ARM GAS  C:\Users\rmcgarel\AppData\Local\Temp\ccv1YA4O.s 			page 1


   1              		.syntax unified
   2              		.cpu cortex-m3
   3              		.fpu softvfp
   4              		.eabi_attribute 20, 1
   5              		.eabi_attribute 21, 1
   6              		.eabi_attribute 23, 3
   7              		.eabi_attribute 24, 1
   8              		.eabi_attribute 25, 1
   9              		.eabi_attribute 26, 1
  10              		.eabi_attribute 30, 6
  11              		.eabi_attribute 18, 4
  12              		.thumb
  13              		.file	"cyPm.c"
  20 0000 F0030000 		.text
  20      02006700 
  20      00000201 
  20      FB0E0D00 
  20      01010101 
  21              	.Ltext0:
  22              		.cfi_sections	.debug_frame
  23              		.bss
  24              		.align	2
  25              	cyPmBackup:
  26 0000 00000000 		.space	166
  26      00000000 
  26      00000000 
  26      00000000 
  26      00000000 
  27 00a6 0000     		.align	2
  28              	cyPmClockBackup:
  29 00a8 00000000 		.space	18
  29      00000000 
  29      00000000 
  29      00000000 
  29      0000
  30              		.section	.rodata
  31              		.align	2
  32              		.type	cyPmImoFreqReg2Mhz, %object
  33              		.size	cyPmImoFreqReg2Mhz, 7
  34              	cyPmImoFreqReg2Mhz:
  35 0000 0C       		.byte	12
  36 0001 06       		.byte	6
  37 0002 18       		.byte	24
  38 0003 03       		.byte	3
  39 0004 30       		.byte	48
  40 0005 3E       		.byte	62
  41 0006 4A       		.byte	74
  42              		.section	.text.CyPmSaveClocks,"ax",%progbits
  43              		.align	2
  44              		.global	CyPmSaveClocks
  45              		.thumb
ARM GAS  C:\Users\rmcgarel\AppData\Local\Temp\ccv1YA4O.s 			page 2


  46              		.thumb_func
  47              		.type	CyPmSaveClocks, %function
  48              	CyPmSaveClocks:
  49              	.LFB0:
  50              		.file 1 ".\\Generated_Source\\PSoC5\\cyPm.c"
   1:.\Generated_Source\PSoC5/cyPm.c **** /*******************************************************************************
   2:.\Generated_Source\PSoC5/cyPm.c **** * File Name: cyPm.c
   3:.\Generated_Source\PSoC5/cyPm.c **** * Version 3.30
   4:.\Generated_Source\PSoC5/cyPm.c **** *
   5:.\Generated_Source\PSoC5/cyPm.c **** * Description:
   6:.\Generated_Source\PSoC5/cyPm.c **** *  Provides an API for the power management.
   7:.\Generated_Source\PSoC5/cyPm.c **** *
   8:.\Generated_Source\PSoC5/cyPm.c **** * Note:
   9:.\Generated_Source\PSoC5/cyPm.c **** *  Documentation of the API's in this file is located in the
  10:.\Generated_Source\PSoC5/cyPm.c **** *  System Reference Guide provided with PSoC Creator.
  11:.\Generated_Source\PSoC5/cyPm.c **** *
  12:.\Generated_Source\PSoC5/cyPm.c **** ********************************************************************************
  13:.\Generated_Source\PSoC5/cyPm.c **** * Copyright 2008-2012, Cypress Semiconductor Corporation.  All rights reserved.
  14:.\Generated_Source\PSoC5/cyPm.c **** * You may use this file only in accordance with the license, terms, conditions,
  15:.\Generated_Source\PSoC5/cyPm.c **** * disclaimers, and limitations in the end user license agreement accompanying
  16:.\Generated_Source\PSoC5/cyPm.c **** * the software package with which this file was provided.
  17:.\Generated_Source\PSoC5/cyPm.c **** *******************************************************************************/
  18:.\Generated_Source\PSoC5/cyPm.c **** 
  19:.\Generated_Source\PSoC5/cyPm.c **** #include "cyPm.h"
  20:.\Generated_Source\PSoC5/cyPm.c **** 
  21:.\Generated_Source\PSoC5/cyPm.c **** 
  22:.\Generated_Source\PSoC5/cyPm.c **** /*******************************************************************
  23:.\Generated_Source\PSoC5/cyPm.c **** * Place your includes, defines and code here. Do not use merge
  24:.\Generated_Source\PSoC5/cyPm.c **** * region below unless any component datasheet suggest to do so.
  25:.\Generated_Source\PSoC5/cyPm.c **** *******************************************************************/
  26:.\Generated_Source\PSoC5/cyPm.c **** /* `#START CY_PM_HEADER_INCLUDE` */
  27:.\Generated_Source\PSoC5/cyPm.c **** 
  28:.\Generated_Source\PSoC5/cyPm.c **** /* `#END` */
  29:.\Generated_Source\PSoC5/cyPm.c **** 
  30:.\Generated_Source\PSoC5/cyPm.c **** 
  31:.\Generated_Source\PSoC5/cyPm.c **** static CY_PM_BACKUP_STRUCT          cyPmBackup;
  32:.\Generated_Source\PSoC5/cyPm.c **** static CY_PM_CLOCK_BACKUP_STRUCT    cyPmClockBackup;
  33:.\Generated_Source\PSoC5/cyPm.c **** 
  34:.\Generated_Source\PSoC5/cyPm.c **** /* Convertion table between register's values and frequency in MHz  */
  35:.\Generated_Source\PSoC5/cyPm.c **** static const uint8 CYCODE cyPmImoFreqReg2Mhz[7u] = {12u, 6u, 24u, 3u, 48u, 62u, 74u};
  36:.\Generated_Source\PSoC5/cyPm.c **** 
  37:.\Generated_Source\PSoC5/cyPm.c **** /* Function Prototypes */
  38:.\Generated_Source\PSoC5/cyPm.c **** static void CyPmHibSaveSet(void);
  39:.\Generated_Source\PSoC5/cyPm.c **** static void CyPmHibRestore(void) ;
  40:.\Generated_Source\PSoC5/cyPm.c **** 
  41:.\Generated_Source\PSoC5/cyPm.c **** static void CyPmSlpSaveSet(void) ;
  42:.\Generated_Source\PSoC5/cyPm.c **** static void CyPmSlpRestore(void) ;
  43:.\Generated_Source\PSoC5/cyPm.c **** 
  44:.\Generated_Source\PSoC5/cyPm.c **** static void CyPmHibSlpSaveSet(void) ;
  45:.\Generated_Source\PSoC5/cyPm.c **** static void CyPmHibSlpRestore(void) ;
  46:.\Generated_Source\PSoC5/cyPm.c **** 
  47:.\Generated_Source\PSoC5/cyPm.c **** static void CyPmHviLviSaveDisable(void) ;
  48:.\Generated_Source\PSoC5/cyPm.c **** static void CyPmHviLviRestore(void) ;
  49:.\Generated_Source\PSoC5/cyPm.c **** 
  50:.\Generated_Source\PSoC5/cyPm.c **** #if(CY_PSOC5A)
  51:.\Generated_Source\PSoC5/cyPm.c **** 
  52:.\Generated_Source\PSoC5/cyPm.c ****     /***************************************************************************
ARM GAS  C:\Users\rmcgarel\AppData\Local\Temp\ccv1YA4O.s 			page 3


  53:.\Generated_Source\PSoC5/cyPm.c ****     * The PICU interupt event is not allowed to act as wakeup source for PSoC 5.
  54:.\Generated_Source\PSoC5/cyPm.c ****     * To prevent accidental wakeup all the PICU interrupts are disabled before
  55:.\Generated_Source\PSoC5/cyPm.c ****     * Sleep and Hibernate low power modes entry. In case of Sleep mode registers
  56:.\Generated_Source\PSoC5/cyPm.c ****     * values must be restored on wakeup, but in case of Hibernate low power mode
  57:.\Generated_Source\PSoC5/cyPm.c ****     * there is no sense in saving/restoring registers values as the only wakeup
  58:.\Generated_Source\PSoC5/cyPm.c ****     * source for this mode is external reset (XRES). For more information refer
  59:.\Generated_Source\PSoC5/cyPm.c ****     * to the PSoC 5 device TRM.
  60:.\Generated_Source\PSoC5/cyPm.c ****     ***************************************************************************/
  61:.\Generated_Source\PSoC5/cyPm.c **** 
  62:.\Generated_Source\PSoC5/cyPm.c ****     static void CyPmSavePicuInterrupts(void);
  63:.\Generated_Source\PSoC5/cyPm.c ****     static void CyPmDisablePicuInterrupts(void) ;
  64:.\Generated_Source\PSoC5/cyPm.c ****     static void CyPmRestorePicuInterrupts(void) ;
  65:.\Generated_Source\PSoC5/cyPm.c **** 
  66:.\Generated_Source\PSoC5/cyPm.c **** #endif  /* (CY_PSOC5A) */
  67:.\Generated_Source\PSoC5/cyPm.c **** 
  68:.\Generated_Source\PSoC5/cyPm.c **** 
  69:.\Generated_Source\PSoC5/cyPm.c **** /*******************************************************************************
  70:.\Generated_Source\PSoC5/cyPm.c **** * Function Name: CyPmSaveClocks
  71:.\Generated_Source\PSoC5/cyPm.c **** ********************************************************************************
  72:.\Generated_Source\PSoC5/cyPm.c **** *
  73:.\Generated_Source\PSoC5/cyPm.c **** * Summary:
  74:.\Generated_Source\PSoC5/cyPm.c **** *  This function is called in preparation for entering sleep or hibernate low
  75:.\Generated_Source\PSoC5/cyPm.c **** *  power modes. Saves all state of the clocking system that does not persist
  76:.\Generated_Source\PSoC5/cyPm.c **** *  during sleep/hibernate or that needs to be altered in preparation for
  77:.\Generated_Source\PSoC5/cyPm.c **** *  sleep/hibernate. Shutdowns all the digital and analog clock dividers for the
  78:.\Generated_Source\PSoC5/cyPm.c **** *  active power mode configuration.
  79:.\Generated_Source\PSoC5/cyPm.c **** *
  80:.\Generated_Source\PSoC5/cyPm.c **** *  Switches the master clock over to the IMO and shuts down the PLL and MHz
  81:.\Generated_Source\PSoC5/cyPm.c **** *  Crystal. The IMO frequency is set to either 12 MHz or 48 MHz to match the
  82:.\Generated_Source\PSoC5/cyPm.c **** *  Design-Wide Resources System Editor "Enable Fast IMO During Startup" setting.
  83:.\Generated_Source\PSoC5/cyPm.c **** *  The ILO and 32 KHz oscillators are not impacted. The current Flash wait state
  84:.\Generated_Source\PSoC5/cyPm.c **** *  setting is saved and the Flash wait state setting is set for the current IMO
  85:.\Generated_Source\PSoC5/cyPm.c **** *  speed.
  86:.\Generated_Source\PSoC5/cyPm.c **** *
  87:.\Generated_Source\PSoC5/cyPm.c **** *  Note If the Master Clock source is routed through the DSI inputs, then it
  88:.\Generated_Source\PSoC5/cyPm.c **** *  must be set manually to another source before using the
  89:.\Generated_Source\PSoC5/cyPm.c **** *  CyPmSaveClocks()/CyPmRestoreClocks() functions.
  90:.\Generated_Source\PSoC5/cyPm.c **** *
  91:.\Generated_Source\PSoC5/cyPm.c **** * Parameters:
  92:.\Generated_Source\PSoC5/cyPm.c **** *  None
  93:.\Generated_Source\PSoC5/cyPm.c **** *
  94:.\Generated_Source\PSoC5/cyPm.c **** * Return:
  95:.\Generated_Source\PSoC5/cyPm.c **** *  None
  96:.\Generated_Source\PSoC5/cyPm.c **** *
  97:.\Generated_Source\PSoC5/cyPm.c **** * Side Effects:
  98:.\Generated_Source\PSoC5/cyPm.c **** *  All peripheral clocks are going to be off after this API method call.
  99:.\Generated_Source\PSoC5/cyPm.c **** *
 100:.\Generated_Source\PSoC5/cyPm.c **** *******************************************************************************/
 101:.\Generated_Source\PSoC5/cyPm.c **** void CyPmSaveClocks(void) 
 102:.\Generated_Source\PSoC5/cyPm.c **** {
  51              		.loc 1 102 0
  52              		.cfi_startproc
  53              		@ args = 0, pretend = 0, frame = 0
  54              		@ frame_needed = 1, uses_anonymous_args = 0
  55 0000 80B5     		push	{r7, lr}
  56              	.LCFI0:
  57              		.cfi_def_cfa_offset 8
ARM GAS  C:\Users\rmcgarel\AppData\Local\Temp\ccv1YA4O.s 			page 4


  58 0002 00AF     		add	r7, sp, #0
  59              		.cfi_offset 14, -4
  60              		.cfi_offset 7, -8
  61              	.LCFI1:
  62              		.cfi_def_cfa_register 7
 103:.\Generated_Source\PSoC5/cyPm.c ****     /* Digital and analog clocks - save enable state and disable them all */
 104:.\Generated_Source\PSoC5/cyPm.c ****     cyPmClockBackup.enClkA = CY_PM_ACT_CFG1_REG & CY_PM_ACT_EN_CLK_A_MASK;
  63              		.loc 1 104 0
  64 0004 44F2A133 		movw	r3, #:lower16:1073759137
  65 0008 C4F20003 		movt	r3, #:upper16:1073759137
  66 000c 1B78     		ldrb	r3, [r3, #0]
  67 000e DBB2     		uxtb	r3, r3
  68 0010 1A46     		mov	r2, r3
  69 0012 02F00F02 		and	r2, r2, #15
  70 0016 40F20003 		movw	r3, #:lower16:cyPmClockBackup
  71 001a C0F20003 		movt	r3, #:upper16:cyPmClockBackup
  72 001e 1A70     		strb	r2, [r3, #0]
 105:.\Generated_Source\PSoC5/cyPm.c ****     cyPmClockBackup.enClkD = CY_PM_ACT_CFG2_REG;
  73              		.loc 1 105 0
  74 0020 44F2A233 		movw	r3, #:lower16:1073759138
  75 0024 C4F20003 		movt	r3, #:upper16:1073759138
  76 0028 1B78     		ldrb	r3, [r3, #0]
  77 002a DAB2     		uxtb	r2, r3
  78 002c 40F20003 		movw	r3, #:lower16:cyPmClockBackup
  79 0030 C0F20003 		movt	r3, #:upper16:cyPmClockBackup
  80 0034 5A70     		strb	r2, [r3, #1]
 106:.\Generated_Source\PSoC5/cyPm.c ****     CY_PM_ACT_CFG1_REG &= ((uint8)(~CY_PM_ACT_EN_CLK_A_MASK));
  81              		.loc 1 106 0
  82 0036 44F2A133 		movw	r3, #:lower16:1073759137
  83 003a C4F20003 		movt	r3, #:upper16:1073759137
  84 003e 44F2A132 		movw	r2, #:lower16:1073759137
  85 0042 C4F20002 		movt	r2, #:upper16:1073759137
  86 0046 1278     		ldrb	r2, [r2, #0]
  87 0048 D2B2     		uxtb	r2, r2
  88 004a 02F0F002 		and	r2, r2, #240
  89 004e 1A70     		strb	r2, [r3, #0]
 107:.\Generated_Source\PSoC5/cyPm.c ****     CY_PM_ACT_CFG2_REG &= ((uint8)(~CY_PM_ACT_EN_CLK_D_MASK));
  90              		.loc 1 107 0
  91 0050 44F2A233 		movw	r3, #:lower16:1073759138
  92 0054 C4F20003 		movt	r3, #:upper16:1073759138
  93 0058 1B78     		ldrb	r3, [r3, #0]
  94 005a 44F2A233 		movw	r3, #:lower16:1073759138
  95 005e C4F20003 		movt	r3, #:upper16:1073759138
  96 0062 4FF00002 		mov	r2, #0
  97 0066 1A70     		strb	r2, [r3, #0]
 108:.\Generated_Source\PSoC5/cyPm.c **** 
 109:.\Generated_Source\PSoC5/cyPm.c ****     /* Save current flash wait cycles and set the maximum value */
 110:.\Generated_Source\PSoC5/cyPm.c ****     cyPmClockBackup.flashWaitCycles = CY_PM_CACHE_CR_CYCLES_MASK & CY_PM_CACHE_CR_REG;
  98              		.loc 1 110 0
  99 0068 44F60003 		movw	r3, #:lower16:1073760256
 100 006c C4F20003 		movt	r3, #:upper16:1073760256
 101 0070 1B78     		ldrb	r3, [r3, #0]
 102 0072 DBB2     		uxtb	r3, r3
 103 0074 1A46     		mov	r2, r3
 104 0076 02F0C002 		and	r2, r2, #192
 105 007a 40F20003 		movw	r3, #:lower16:cyPmClockBackup
 106 007e C0F20003 		movt	r3, #:upper16:cyPmClockBackup
ARM GAS  C:\Users\rmcgarel\AppData\Local\Temp\ccv1YA4O.s 			page 5


 107 0082 5A71     		strb	r2, [r3, #5]
 111:.\Generated_Source\PSoC5/cyPm.c ****     CyFlash_SetWaitCycles(CY_PM_MAX_FLASH_WAIT_CYCLES);
 108              		.loc 1 111 0
 109 0084 4FF03700 		mov	r0, #55
 110 0088 FFF7FEFF 		bl	CyFlash_SetWaitCycles
 112:.\Generated_Source\PSoC5/cyPm.c **** 
 113:.\Generated_Source\PSoC5/cyPm.c ****     /* IMO - save current IMO MHz OSC frequency and USB mode is on bit */
 114:.\Generated_Source\PSoC5/cyPm.c ****     cyPmClockBackup.imoFreq = CY_PM_FASTCLK_IMO_CR_REG & CY_PM_FASTCLK_IMO_CR_FREQ_MASK;
 111              		.loc 1 114 0
 112 008c 44F20023 		movw	r3, #:lower16:1073758720
 113 0090 C4F20003 		movt	r3, #:upper16:1073758720
 114 0094 1B78     		ldrb	r3, [r3, #0]
 115 0096 DBB2     		uxtb	r3, r3
 116 0098 1A46     		mov	r2, r3
 117 009a 02F00702 		and	r2, r2, #7
 118 009e 40F20003 		movw	r3, #:lower16:cyPmClockBackup
 119 00a2 C0F20003 		movt	r3, #:upper16:cyPmClockBackup
 120 00a6 DA70     		strb	r2, [r3, #3]
 115:.\Generated_Source\PSoC5/cyPm.c ****     cyPmClockBackup.imoUsbClk = CY_PM_FASTCLK_IMO_CR_REG & CY_PM_FASTCLK_IMO_CR_USB;
 121              		.loc 1 115 0
 122 00a8 44F20023 		movw	r3, #:lower16:1073758720
 123 00ac C4F20003 		movt	r3, #:upper16:1073758720
 124 00b0 1B78     		ldrb	r3, [r3, #0]
 125 00b2 DBB2     		uxtb	r3, r3
 126 00b4 1A46     		mov	r2, r3
 127 00b6 02F04002 		and	r2, r2, #64
 128 00ba 40F20003 		movw	r3, #:lower16:cyPmClockBackup
 129 00be C0F20003 		movt	r3, #:upper16:cyPmClockBackup
 130 00c2 1A71     		strb	r2, [r3, #4]
 116:.\Generated_Source\PSoC5/cyPm.c **** 
 117:.\Generated_Source\PSoC5/cyPm.c ****     /* IMO doubler - save enable state */
 118:.\Generated_Source\PSoC5/cyPm.c ****     if(0u != (CY_PM_FASTCLK_IMO_CR_REG & CY_PM_FASTCLK_IMO_CR_F2XON))
 131              		.loc 1 118 0
 132 00c4 44F20023 		movw	r3, #:lower16:1073758720
 133 00c8 C4F20003 		movt	r3, #:upper16:1073758720
 134 00cc 1B78     		ldrb	r3, [r3, #0]
 135 00ce DBB2     		uxtb	r3, r3
 136 00d0 03F01003 		and	r3, r3, #16
 137 00d4 002B     		cmp	r3, #0
 138 00d6 07D0     		beq	.L2
 119:.\Generated_Source\PSoC5/cyPm.c ****     {
 120:.\Generated_Source\PSoC5/cyPm.c ****         /* IMO doubler enabled - save and disable */
 121:.\Generated_Source\PSoC5/cyPm.c ****         cyPmClockBackup.imo2x = CY_PM_ENABLED;
 139              		.loc 1 121 0
 140 00d8 40F20003 		movw	r3, #:lower16:cyPmClockBackup
 141 00dc C0F20003 		movt	r3, #:upper16:cyPmClockBackup
 142 00e0 4FF00102 		mov	r2, #1
 143 00e4 5A72     		strb	r2, [r3, #9]
 144 00e6 06E0     		b	.L3
 145              	.L2:
 122:.\Generated_Source\PSoC5/cyPm.c ****     }
 123:.\Generated_Source\PSoC5/cyPm.c ****     else
 124:.\Generated_Source\PSoC5/cyPm.c ****     {
 125:.\Generated_Source\PSoC5/cyPm.c ****         /* IMO doubler disabled */
 126:.\Generated_Source\PSoC5/cyPm.c ****         cyPmClockBackup.imo2x = CY_PM_DISABLED;
 146              		.loc 1 126 0
 147 00e8 40F20003 		movw	r3, #:lower16:cyPmClockBackup
ARM GAS  C:\Users\rmcgarel\AppData\Local\Temp\ccv1YA4O.s 			page 6


 148 00ec C0F20003 		movt	r3, #:upper16:cyPmClockBackup
 149 00f0 4FF00002 		mov	r2, #0
 150 00f4 5A72     		strb	r2, [r3, #9]
 151              	.L3:
 127:.\Generated_Source\PSoC5/cyPm.c ****     }
 128:.\Generated_Source\PSoC5/cyPm.c **** 
 129:.\Generated_Source\PSoC5/cyPm.c ****     /* IMO - set appropriate frequency for LPM */
 130:.\Generated_Source\PSoC5/cyPm.c ****     CyIMO_SetFreq(CY_PM_IMO_FREQ_LPM);
 152              		.loc 1 130 0
 153 00f6 4FF00200 		mov	r0, #2
 154 00fa FFF7FEFF 		bl	CyIMO_SetFreq
 131:.\Generated_Source\PSoC5/cyPm.c **** 
 132:.\Generated_Source\PSoC5/cyPm.c ****     /* IMO - save enable state and enable without wait to settle */
 133:.\Generated_Source\PSoC5/cyPm.c ****     if(0u != (CY_PM_ACT_CFG0_IMO & CY_PM_ACT_CFG0_REG))
 155              		.loc 1 133 0
 156 00fe 44F2A033 		movw	r3, #:lower16:1073759136
 157 0102 C4F20003 		movt	r3, #:upper16:1073759136
 158 0106 1B78     		ldrb	r3, [r3, #0]
 159 0108 DBB2     		uxtb	r3, r3
 160 010a 03F01003 		and	r3, r3, #16
 161 010e 002B     		cmp	r3, #0
 162 0110 07D0     		beq	.L4
 134:.\Generated_Source\PSoC5/cyPm.c ****     {
 135:.\Generated_Source\PSoC5/cyPm.c ****         /* IMO - save enabled state */
 136:.\Generated_Source\PSoC5/cyPm.c ****         cyPmClockBackup.imoEnable = CY_PM_ENABLED;
 163              		.loc 1 136 0
 164 0112 40F20003 		movw	r3, #:lower16:cyPmClockBackup
 165 0116 C0F20003 		movt	r3, #:upper16:cyPmClockBackup
 166 011a 4FF00102 		mov	r2, #1
 167 011e 9A71     		strb	r2, [r3, #6]
 168 0120 0AE0     		b	.L5
 169              	.L4:
 137:.\Generated_Source\PSoC5/cyPm.c ****     }
 138:.\Generated_Source\PSoC5/cyPm.c ****     else
 139:.\Generated_Source\PSoC5/cyPm.c ****     {
 140:.\Generated_Source\PSoC5/cyPm.c ****         /* IMO - save disabled state */
 141:.\Generated_Source\PSoC5/cyPm.c ****         cyPmClockBackup.imoEnable = CY_PM_DISABLED;
 170              		.loc 1 141 0
 171 0122 40F20003 		movw	r3, #:lower16:cyPmClockBackup
 172 0126 C0F20003 		movt	r3, #:upper16:cyPmClockBackup
 173 012a 4FF00002 		mov	r2, #0
 174 012e 9A71     		strb	r2, [r3, #6]
 142:.\Generated_Source\PSoC5/cyPm.c **** 
 143:.\Generated_Source\PSoC5/cyPm.c ****         /* IMO - enable */
 144:.\Generated_Source\PSoC5/cyPm.c ****         CyIMO_Start(CY_PM_IMO_NO_WAIT_TO_SETTLE);
 175              		.loc 1 144 0
 176 0130 4FF00000 		mov	r0, #0
 177 0134 FFF7FEFF 		bl	CyIMO_Start
 178              	.L5:
 145:.\Generated_Source\PSoC5/cyPm.c ****     }
 146:.\Generated_Source\PSoC5/cyPm.c **** 
 147:.\Generated_Source\PSoC5/cyPm.c ****     /* IMO - save the current IMOCLK source and set to IMO if not yet */
 148:.\Generated_Source\PSoC5/cyPm.c ****     if(0u != (CY_PM_FASTCLK_IMO_CR_REG & CY_PM_FASTCLK_IMO_CR_XCLKEN))
 179              		.loc 1 148 0
 180 0138 44F20023 		movw	r3, #:lower16:1073758720
 181 013c C4F20003 		movt	r3, #:upper16:1073758720
 182 0140 1B78     		ldrb	r3, [r3, #0]
ARM GAS  C:\Users\rmcgarel\AppData\Local\Temp\ccv1YA4O.s 			page 7


 183 0142 DBB2     		uxtb	r3, r3
 184 0144 03F02003 		and	r3, r3, #32
 185 0148 002B     		cmp	r3, #0
 186 014a 18D0     		beq	.L6
 149:.\Generated_Source\PSoC5/cyPm.c ****     {
 150:.\Generated_Source\PSoC5/cyPm.c ****         /* DSI or XTAL CLK */
 151:.\Generated_Source\PSoC5/cyPm.c ****         cyPmClockBackup.imoClkSrc =
 152:.\Generated_Source\PSoC5/cyPm.c ****             (0u == (CY_PM_CLKDIST_CR_REG & CY_PM_CLKDIST_IMO2X_SRC)) ? CY_IMO_SOURCE_DSI : CY_IMO_S
 187              		.loc 1 152 0
 188 014c 44F20003 		movw	r3, #:lower16:1073758208
 189 0150 C4F20003 		movt	r3, #:upper16:1073758208
 190 0154 1B78     		ldrb	r3, [r3, #0]
 191 0156 DBB2     		uxtb	r3, r3
 192 0158 03F04003 		and	r3, r3, #64
 193              		.loc 1 151 0
 194 015c 002B     		cmp	r3, #0
 195 015e 02D1     		bne	.L7
 196 0160 4FF00202 		mov	r2, #2
 197 0164 01E0     		b	.L8
 198              	.L7:
 199 0166 4FF00102 		mov	r2, #1
 200              	.L8:
 201 016a 40F20003 		movw	r3, #:lower16:cyPmClockBackup
 202 016e C0F20003 		movt	r3, #:upper16:cyPmClockBackup
 203 0172 DA71     		strb	r2, [r3, #7]
 153:.\Generated_Source\PSoC5/cyPm.c **** 
 154:.\Generated_Source\PSoC5/cyPm.c ****         /* IMO -  set IMOCLK source to MHz OSC */
 155:.\Generated_Source\PSoC5/cyPm.c ****         CyIMO_SetSource(CY_IMO_SOURCE_IMO);
 204              		.loc 1 155 0
 205 0174 4FF00000 		mov	r0, #0
 206 0178 FFF7FEFF 		bl	CyIMO_SetSource
 207 017c 06E0     		b	.L9
 208              	.L6:
 156:.\Generated_Source\PSoC5/cyPm.c ****     }
 157:.\Generated_Source\PSoC5/cyPm.c ****     else
 158:.\Generated_Source\PSoC5/cyPm.c ****     {
 159:.\Generated_Source\PSoC5/cyPm.c ****         /* IMO */
 160:.\Generated_Source\PSoC5/cyPm.c ****         cyPmClockBackup.imoClkSrc = CY_IMO_SOURCE_IMO;
 209              		.loc 1 160 0
 210 017e 40F20003 		movw	r3, #:lower16:cyPmClockBackup
 211 0182 C0F20003 		movt	r3, #:upper16:cyPmClockBackup
 212 0186 4FF00002 		mov	r2, #0
 213 018a DA71     		strb	r2, [r3, #7]
 214              	.L9:
 161:.\Generated_Source\PSoC5/cyPm.c ****     }
 162:.\Generated_Source\PSoC5/cyPm.c **** 
 163:.\Generated_Source\PSoC5/cyPm.c ****     /* Save clk_imo source */
 164:.\Generated_Source\PSoC5/cyPm.c ****     cyPmClockBackup.clkImoSrc = CY_PM_CLKDIST_CR_REG & CY_PM_CLKDIST_IMO_OUT_MASK;
 215              		.loc 1 164 0
 216 018c 44F20003 		movw	r3, #:lower16:1073758208
 217 0190 C4F20003 		movt	r3, #:upper16:1073758208
 218 0194 1B78     		ldrb	r3, [r3, #0]
 219 0196 DBB2     		uxtb	r3, r3
 220 0198 1A46     		mov	r2, r3
 221 019a 02F03002 		and	r2, r2, #48
 222 019e 40F20003 		movw	r3, #:lower16:cyPmClockBackup
 223 01a2 C0F20003 		movt	r3, #:upper16:cyPmClockBackup
ARM GAS  C:\Users\rmcgarel\AppData\Local\Temp\ccv1YA4O.s 			page 8


 224 01a6 1A72     		strb	r2, [r3, #8]
 165:.\Generated_Source\PSoC5/cyPm.c **** 
 166:.\Generated_Source\PSoC5/cyPm.c ****     /* If IMOCLK2X or SPC OSC is source for clk_imo, set it to IMOCLK */
 167:.\Generated_Source\PSoC5/cyPm.c ****     if(CY_PM_CLKDIST_IMO_OUT_IMO != cyPmClockBackup.clkImoSrc)
 225              		.loc 1 167 0
 226 01a8 40F20003 		movw	r3, #:lower16:cyPmClockBackup
 227 01ac C0F20003 		movt	r3, #:upper16:cyPmClockBackup
 228 01b0 1B7A     		ldrb	r3, [r3, #8]	@ zero_extendqisi2
 229 01b2 002B     		cmp	r3, #0
 230 01b4 0CD0     		beq	.L10
 168:.\Generated_Source\PSoC5/cyPm.c ****     {
 169:.\Generated_Source\PSoC5/cyPm.c ****         /* Set IMOCLK to source for clk_imo */
 170:.\Generated_Source\PSoC5/cyPm.c ****         CY_PM_CLKDIST_CR_REG = (CY_PM_CLKDIST_CR_REG & ((uint8)(~CY_PM_CLKDIST_IMO_OUT_MASK))) |
 231              		.loc 1 170 0
 232 01b6 44F20003 		movw	r3, #:lower16:1073758208
 233 01ba C4F20003 		movt	r3, #:upper16:1073758208
 234 01be 44F20002 		movw	r2, #:lower16:1073758208
 235 01c2 C4F20002 		movt	r2, #:upper16:1073758208
 236 01c6 1278     		ldrb	r2, [r2, #0]
 237 01c8 D2B2     		uxtb	r2, r2
 238 01ca 02F0CF02 		and	r2, r2, #207
 239 01ce 1A70     		strb	r2, [r3, #0]
 240              	.L10:
 171:.\Generated_Source\PSoC5/cyPm.c ****                                 CY_PM_CLKDIST_IMO_OUT_IMO;
 172:.\Generated_Source\PSoC5/cyPm.c ****     }    /* Need to change nothing if IMOCLK is source clk_imo */
 173:.\Generated_Source\PSoC5/cyPm.c **** 
 174:.\Generated_Source\PSoC5/cyPm.c ****     /* IMO doubler - disable it (saved above) */
 175:.\Generated_Source\PSoC5/cyPm.c ****     if(0u != (CY_PM_FASTCLK_IMO_CR_REG & CY_PM_FASTCLK_IMO_CR_F2XON))
 241              		.loc 1 175 0
 242 01d0 44F20023 		movw	r3, #:lower16:1073758720
 243 01d4 C4F20003 		movt	r3, #:upper16:1073758720
 244 01d8 1B78     		ldrb	r3, [r3, #0]
 245 01da DBB2     		uxtb	r3, r3
 246 01dc 03F01003 		and	r3, r3, #16
 247 01e0 002B     		cmp	r3, #0
 248 01e2 01D0     		beq	.L11
 176:.\Generated_Source\PSoC5/cyPm.c ****     {
 177:.\Generated_Source\PSoC5/cyPm.c ****         CyIMO_DisableDoubler();
 249              		.loc 1 177 0
 250 01e4 FFF7FEFF 		bl	CyIMO_DisableDoubler
 251              	.L11:
 178:.\Generated_Source\PSoC5/cyPm.c ****     }
 179:.\Generated_Source\PSoC5/cyPm.c **** 
 180:.\Generated_Source\PSoC5/cyPm.c ****     /* Master clock - save divider and set it to divide-by-one (if no yet) */
 181:.\Generated_Source\PSoC5/cyPm.c ****     cyPmClockBackup.clkSyncDiv = CY_PM_CLKDIST_MSTR0_REG;
 252              		.loc 1 181 0
 253 01e8 44F20403 		movw	r3, #:lower16:1073758212
 254 01ec C4F20003 		movt	r3, #:upper16:1073758212
 255 01f0 1B78     		ldrb	r3, [r3, #0]
 256 01f2 DAB2     		uxtb	r2, r3
 257 01f4 40F20003 		movw	r3, #:lower16:cyPmClockBackup
 258 01f8 C0F20003 		movt	r3, #:upper16:cyPmClockBackup
 259 01fc 9A72     		strb	r2, [r3, #10]
 182:.\Generated_Source\PSoC5/cyPm.c ****     if(CY_PM_DIV_BY_ONE != cyPmClockBackup.clkSyncDiv)
 260              		.loc 1 182 0
 261 01fe 40F20003 		movw	r3, #:lower16:cyPmClockBackup
 262 0202 C0F20003 		movt	r3, #:upper16:cyPmClockBackup
ARM GAS  C:\Users\rmcgarel\AppData\Local\Temp\ccv1YA4O.s 			page 9


 263 0206 9B7A     		ldrb	r3, [r3, #10]	@ zero_extendqisi2
 264 0208 002B     		cmp	r3, #0
 265 020a 03D0     		beq	.L12
 183:.\Generated_Source\PSoC5/cyPm.c ****     {
 184:.\Generated_Source\PSoC5/cyPm.c ****         CyMasterClk_SetDivider(CY_PM_DIV_BY_ONE);
 266              		.loc 1 184 0
 267 020c 4FF00000 		mov	r0, #0
 268 0210 FFF7FEFF 		bl	CyMasterClk_SetDivider
 269              	.L12:
 185:.\Generated_Source\PSoC5/cyPm.c ****     }    /* Need to change nothing if master clock divider is 1 */
 186:.\Generated_Source\PSoC5/cyPm.c **** 
 187:.\Generated_Source\PSoC5/cyPm.c ****     /* Master clock - save current source */
 188:.\Generated_Source\PSoC5/cyPm.c ****     cyPmClockBackup.masterClkSrc = CY_PM_CLKDIST_MSTR1_REG & CY_PM_MASTER_CLK_SRC_MASK;
 270              		.loc 1 188 0
 271 0214 44F20503 		movw	r3, #:lower16:1073758213
 272 0218 C4F20003 		movt	r3, #:upper16:1073758213
 273 021c 1B78     		ldrb	r3, [r3, #0]
 274 021e DBB2     		uxtb	r3, r3
 275 0220 1A46     		mov	r2, r3
 276 0222 02F00302 		and	r2, r2, #3
 277 0226 40F20003 		movw	r3, #:lower16:cyPmClockBackup
 278 022a C0F20003 		movt	r3, #:upper16:cyPmClockBackup
 279 022e 9A70     		strb	r2, [r3, #2]
 189:.\Generated_Source\PSoC5/cyPm.c **** 
 190:.\Generated_Source\PSoC5/cyPm.c ****     /* Master clock source - set it to IMO if not yet. */
 191:.\Generated_Source\PSoC5/cyPm.c ****     if(CY_MASTER_SOURCE_IMO != cyPmClockBackup.masterClkSrc)
 280              		.loc 1 191 0
 281 0230 40F20003 		movw	r3, #:lower16:cyPmClockBackup
 282 0234 C0F20003 		movt	r3, #:upper16:cyPmClockBackup
 283 0238 9B78     		ldrb	r3, [r3, #2]	@ zero_extendqisi2
 284 023a 002B     		cmp	r3, #0
 285 023c 03D0     		beq	.L13
 192:.\Generated_Source\PSoC5/cyPm.c ****     {
 193:.\Generated_Source\PSoC5/cyPm.c ****         CyMasterClk_SetSource(CY_MASTER_SOURCE_IMO);
 286              		.loc 1 193 0
 287 023e 4FF00000 		mov	r0, #0
 288 0242 FFF7FEFF 		bl	CyMasterClk_SetSource
 289              	.L13:
 194:.\Generated_Source\PSoC5/cyPm.c ****     }    /* Need to change nothing if master clock source is IMO */
 195:.\Generated_Source\PSoC5/cyPm.c **** 
 196:.\Generated_Source\PSoC5/cyPm.c ****     /* Bus clock - save divider and set it, if needed, to divide-by-one */
 197:.\Generated_Source\PSoC5/cyPm.c ****     cyPmClockBackup.clkBusDiv = ((uint16) CY_PM_CLK_BUS_MSB_DIV_REG << 8u) | CY_PM_CLK_BUS_LSB_DIV_
 290              		.loc 1 197 0
 291 0246 44F20703 		movw	r3, #:lower16:1073758215
 292 024a C4F20003 		movt	r3, #:upper16:1073758215
 293 024e 1B78     		ldrb	r3, [r3, #0]
 294 0250 DBB2     		uxtb	r3, r3
 295 0252 4FEA0323 		lsl	r3, r3, #8
 296 0256 9AB2     		uxth	r2, r3
 297 0258 44F20603 		movw	r3, #:lower16:1073758214
 298 025c C4F20003 		movt	r3, #:upper16:1073758214
 299 0260 1B78     		ldrb	r3, [r3, #0]
 300 0262 DBB2     		uxtb	r3, r3
 301 0264 42EA0303 		orr	r3, r2, r3
 302 0268 9BB2     		uxth	r3, r3
 303 026a 9AB2     		uxth	r2, r3
 304 026c 40F20003 		movw	r3, #:lower16:cyPmClockBackup
ARM GAS  C:\Users\rmcgarel\AppData\Local\Temp\ccv1YA4O.s 			page 10


 305 0270 C0F20003 		movt	r3, #:upper16:cyPmClockBackup
 306 0274 9A81     		strh	r2, [r3, #12]	@ movhi
 198:.\Generated_Source\PSoC5/cyPm.c ****     if(CY_PM_BUS_CLK_DIV_BY_ONE != cyPmClockBackup.clkBusDiv)
 307              		.loc 1 198 0
 308 0276 40F20003 		movw	r3, #:lower16:cyPmClockBackup
 309 027a C0F20003 		movt	r3, #:upper16:cyPmClockBackup
 310 027e 9B89     		ldrh	r3, [r3, #12]
 311 0280 002B     		cmp	r3, #0
 312 0282 03D0     		beq	.L14
 199:.\Generated_Source\PSoC5/cyPm.c ****     {
 200:.\Generated_Source\PSoC5/cyPm.c ****         CyBusClk_SetDivider(CY_PM_BUS_CLK_DIV_BY_ONE);
 313              		.loc 1 200 0
 314 0284 4FF00000 		mov	r0, #0
 315 0288 FFF7FEFF 		bl	CyBusClk_SetDivider
 316              	.L14:
 201:.\Generated_Source\PSoC5/cyPm.c ****     }    /* Do nothing if saved and actual values are equal */
 202:.\Generated_Source\PSoC5/cyPm.c **** 
 203:.\Generated_Source\PSoC5/cyPm.c ****     /* Set number of wait cycles for the flash according CPU frequency in MHz */
 204:.\Generated_Source\PSoC5/cyPm.c ****     CyFlash_SetWaitCycles((uint8)CY_PM_GET_CPU_FREQ_MHZ);
 317              		.loc 1 204 0
 318 028c 44F20023 		movw	r3, #:lower16:1073758720
 319 0290 C4F20003 		movt	r3, #:upper16:1073758720
 320 0294 1B78     		ldrb	r3, [r3, #0]
 321 0296 DBB2     		uxtb	r3, r3
 322 0298 03F00702 		and	r2, r3, #7
 323 029c 40F20003 		movw	r3, #:lower16:cyPmImoFreqReg2Mhz
 324 02a0 C0F20003 		movt	r3, #:upper16:cyPmImoFreqReg2Mhz
 325 02a4 9B5C     		ldrb	r3, [r3, r2]	@ zero_extendqisi2
 326 02a6 1846     		mov	r0, r3
 327 02a8 FFF7FEFF 		bl	CyFlash_SetWaitCycles
 205:.\Generated_Source\PSoC5/cyPm.c **** 
 206:.\Generated_Source\PSoC5/cyPm.c ****     /* PLL - check enable state, disable if needed */
 207:.\Generated_Source\PSoC5/cyPm.c ****     if(0u != (CY_PM_FASTCLK_PLL_CFG0_REG & CY_PM_PLL_CFG0_ENABLE))
 328              		.loc 1 207 0
 329 02ac 44F22023 		movw	r3, #:lower16:1073758752
 330 02b0 C4F20003 		movt	r3, #:upper16:1073758752
 331 02b4 1B78     		ldrb	r3, [r3, #0]
 332 02b6 DBB2     		uxtb	r3, r3
 333 02b8 03F00103 		and	r3, r3, #1
 334 02bc DBB2     		uxtb	r3, r3
 335 02be 002B     		cmp	r3, #0
 336 02c0 09D0     		beq	.L15
 208:.\Generated_Source\PSoC5/cyPm.c ****     {
 209:.\Generated_Source\PSoC5/cyPm.c ****         /* PLL is enabled - save state and disable */
 210:.\Generated_Source\PSoC5/cyPm.c ****         cyPmClockBackup.pllEnableState = CY_PM_ENABLED;
 337              		.loc 1 210 0
 338 02c2 40F20003 		movw	r3, #:lower16:cyPmClockBackup
 339 02c6 C0F20003 		movt	r3, #:upper16:cyPmClockBackup
 340 02ca 4FF00102 		mov	r2, #1
 341 02ce 9A73     		strb	r2, [r3, #14]
 211:.\Generated_Source\PSoC5/cyPm.c ****         CyPLL_OUT_Stop();
 342              		.loc 1 211 0
 343 02d0 FFF7FEFF 		bl	CyPLL_OUT_Stop
 344 02d4 06E0     		b	.L16
 345              	.L15:
 212:.\Generated_Source\PSoC5/cyPm.c ****     }
 213:.\Generated_Source\PSoC5/cyPm.c ****     else
ARM GAS  C:\Users\rmcgarel\AppData\Local\Temp\ccv1YA4O.s 			page 11


 214:.\Generated_Source\PSoC5/cyPm.c ****     {
 215:.\Generated_Source\PSoC5/cyPm.c ****         /* PLL is disabled - save state */
 216:.\Generated_Source\PSoC5/cyPm.c ****         cyPmClockBackup.pllEnableState = CY_PM_DISABLED;
 346              		.loc 1 216 0
 347 02d6 40F20003 		movw	r3, #:lower16:cyPmClockBackup
 348 02da C0F20003 		movt	r3, #:upper16:cyPmClockBackup
 349 02de 4FF00002 		mov	r2, #0
 350 02e2 9A73     		strb	r2, [r3, #14]
 351              	.L16:
 217:.\Generated_Source\PSoC5/cyPm.c ****     }
 218:.\Generated_Source\PSoC5/cyPm.c **** 
 219:.\Generated_Source\PSoC5/cyPm.c ****     /* MHz ECO - check enable state and disable if needed */
 220:.\Generated_Source\PSoC5/cyPm.c ****     if(0u != (CY_PM_FASTCLK_XMHZ_CSR_REG & CY_PM_XMHZ_CSR_ENABLE))
 352              		.loc 1 220 0
 353 02e4 44F21023 		movw	r3, #:lower16:1073758736
 354 02e8 C4F20003 		movt	r3, #:upper16:1073758736
 355 02ec 1B78     		ldrb	r3, [r3, #0]
 356 02ee DBB2     		uxtb	r3, r3
 357 02f0 03F00103 		and	r3, r3, #1
 358 02f4 DBB2     		uxtb	r3, r3
 359 02f6 002B     		cmp	r3, #0
 360 02f8 09D0     		beq	.L17
 221:.\Generated_Source\PSoC5/cyPm.c ****     {
 222:.\Generated_Source\PSoC5/cyPm.c ****         /* MHz ECO is enabled - save state and disable */
 223:.\Generated_Source\PSoC5/cyPm.c ****         cyPmClockBackup.xmhzEnableState = CY_PM_ENABLED;
 361              		.loc 1 223 0
 362 02fa 40F20003 		movw	r3, #:lower16:cyPmClockBackup
 363 02fe C0F20003 		movt	r3, #:upper16:cyPmClockBackup
 364 0302 4FF00102 		mov	r2, #1
 365 0306 DA73     		strb	r2, [r3, #15]
 224:.\Generated_Source\PSoC5/cyPm.c ****         CyXTAL_Stop();
 366              		.loc 1 224 0
 367 0308 FFF7FEFF 		bl	CyXTAL_Stop
 368 030c 06E0     		b	.L18
 369              	.L17:
 225:.\Generated_Source\PSoC5/cyPm.c ****     }
 226:.\Generated_Source\PSoC5/cyPm.c ****     else
 227:.\Generated_Source\PSoC5/cyPm.c ****     {
 228:.\Generated_Source\PSoC5/cyPm.c ****         /* MHz ECO is disabled - save state */
 229:.\Generated_Source\PSoC5/cyPm.c ****         cyPmClockBackup.xmhzEnableState = CY_PM_DISABLED;
 370              		.loc 1 229 0
 371 030e 40F20003 		movw	r3, #:lower16:cyPmClockBackup
 372 0312 C0F20003 		movt	r3, #:upper16:cyPmClockBackup
 373 0316 4FF00002 		mov	r2, #0
 374 031a DA73     		strb	r2, [r3, #15]
 375              	.L18:
 230:.\Generated_Source\PSoC5/cyPm.c ****     }
 231:.\Generated_Source\PSoC5/cyPm.c **** 
 232:.\Generated_Source\PSoC5/cyPm.c **** 
 233:.\Generated_Source\PSoC5/cyPm.c ****     /***************************************************************************
 234:.\Generated_Source\PSoC5/cyPm.c ****     * Save enable state of delay between the system bus clock and each of the
 235:.\Generated_Source\PSoC5/cyPm.c ****     * 4 individual analog clocks. This bit non-retention and it's value should
 236:.\Generated_Source\PSoC5/cyPm.c ****     * be restored on wakeup.
 237:.\Generated_Source\PSoC5/cyPm.c ****     ***************************************************************************/
 238:.\Generated_Source\PSoC5/cyPm.c ****     if(0u != (CY_PM_CLKDIST_DELAY_REG & CY_PM_CLKDIST_DELAY_EN))
 376              		.loc 1 238 0
 377 031c 44F20B03 		movw	r3, #:lower16:1073758219
ARM GAS  C:\Users\rmcgarel\AppData\Local\Temp\ccv1YA4O.s 			page 12


 378 0320 C4F20003 		movt	r3, #:upper16:1073758219
 379 0324 1B78     		ldrb	r3, [r3, #0]
 380 0326 DBB2     		uxtb	r3, r3
 381 0328 03F00403 		and	r3, r3, #4
 382 032c 002B     		cmp	r3, #0
 383 032e 07D0     		beq	.L19
 239:.\Generated_Source\PSoC5/cyPm.c ****     {
 240:.\Generated_Source\PSoC5/cyPm.c ****         cyPmClockBackup.clkDistDelay = CY_PM_ENABLED;
 384              		.loc 1 240 0
 385 0330 40F20003 		movw	r3, #:lower16:cyPmClockBackup
 386 0334 C0F20003 		movt	r3, #:upper16:cyPmClockBackup
 387 0338 4FF00102 		mov	r2, #1
 388 033c 1A74     		strb	r2, [r3, #16]
 389 033e 06E0     		b	.L21
 390              	.L19:
 241:.\Generated_Source\PSoC5/cyPm.c ****     }
 242:.\Generated_Source\PSoC5/cyPm.c ****     else
 243:.\Generated_Source\PSoC5/cyPm.c ****     {
 244:.\Generated_Source\PSoC5/cyPm.c ****         cyPmClockBackup.clkDistDelay = CY_PM_DISABLED;
 391              		.loc 1 244 0
 392 0340 40F20003 		movw	r3, #:lower16:cyPmClockBackup
 393 0344 C0F20003 		movt	r3, #:upper16:cyPmClockBackup
 394 0348 4FF00002 		mov	r2, #0
 395 034c 1A74     		strb	r2, [r3, #16]
 396              	.L21:
 245:.\Generated_Source\PSoC5/cyPm.c ****     }
 246:.\Generated_Source\PSoC5/cyPm.c **** }
 397              		.loc 1 246 0
 398 034e 80BD     		pop	{r7, pc}
 399              		.cfi_endproc
 400              	.LFE0:
 401              		.size	CyPmSaveClocks, .-CyPmSaveClocks
 402              		.section	.text.CyPmRestoreClocks,"ax",%progbits
 403              		.align	2
 404              		.global	CyPmRestoreClocks
 405              		.thumb
 406              		.thumb_func
 407              		.type	CyPmRestoreClocks, %function
 408              	CyPmRestoreClocks:
 409              	.LFB1:
 247:.\Generated_Source\PSoC5/cyPm.c **** 
 248:.\Generated_Source\PSoC5/cyPm.c **** 
 249:.\Generated_Source\PSoC5/cyPm.c **** /*******************************************************************************
 250:.\Generated_Source\PSoC5/cyPm.c **** * Function Name: CyPmRestoreClocks
 251:.\Generated_Source\PSoC5/cyPm.c **** ********************************************************************************
 252:.\Generated_Source\PSoC5/cyPm.c **** *
 253:.\Generated_Source\PSoC5/cyPm.c **** * Summary:
 254:.\Generated_Source\PSoC5/cyPm.c **** *  Restores any state that was preserved by the last call to CyPmSaveClocks().
 255:.\Generated_Source\PSoC5/cyPm.c **** *  The Flash wait state setting is also restored.
 256:.\Generated_Source\PSoC5/cyPm.c **** *
 257:.\Generated_Source\PSoC5/cyPm.c **** *  Note If the Master Clock source is routed through the DSI inputs, then it
 258:.\Generated_Source\PSoC5/cyPm.c **** *  must be set manually to another source before using the
 259:.\Generated_Source\PSoC5/cyPm.c **** *  CyPmSaveClocks()/CyPmRestoreClocks() functions.
 260:.\Generated_Source\PSoC5/cyPm.c **** *
 261:.\Generated_Source\PSoC5/cyPm.c **** *  PSoC 3 and PSoC 5LP:
 262:.\Generated_Source\PSoC5/cyPm.c **** *  The merge region could be used to process state when the megahertz crystal is
 263:.\Generated_Source\PSoC5/cyPm.c **** *  not ready after the hold-off timeout.
ARM GAS  C:\Users\rmcgarel\AppData\Local\Temp\ccv1YA4O.s 			page 13


 264:.\Generated_Source\PSoC5/cyPm.c **** *
 265:.\Generated_Source\PSoC5/cyPm.c **** *  PSoC 5:
 266:.\Generated_Source\PSoC5/cyPm.c **** *  The 130 ms is given for the megahertz crystal to stabilize. It's readiness is
 267:.\Generated_Source\PSoC5/cyPm.c **** *  not verified after the hold-off timeout.
 268:.\Generated_Source\PSoC5/cyPm.c **** *
 269:.\Generated_Source\PSoC5/cyPm.c **** * Parameters:
 270:.\Generated_Source\PSoC5/cyPm.c **** *  None
 271:.\Generated_Source\PSoC5/cyPm.c **** *
 272:.\Generated_Source\PSoC5/cyPm.c **** * Return:
 273:.\Generated_Source\PSoC5/cyPm.c **** *  None
 274:.\Generated_Source\PSoC5/cyPm.c **** *
 275:.\Generated_Source\PSoC5/cyPm.c **** *******************************************************************************/
 276:.\Generated_Source\PSoC5/cyPm.c **** void CyPmRestoreClocks(void) 
 277:.\Generated_Source\PSoC5/cyPm.c **** {
 410              		.loc 1 277 0
 411              		.cfi_startproc
 412              		@ args = 0, pretend = 0, frame = 8
 413              		@ frame_needed = 1, uses_anonymous_args = 0
 414 0000 80B5     		push	{r7, lr}
 415              	.LCFI2:
 416              		.cfi_def_cfa_offset 8
 417 0002 82B0     		sub	sp, sp, #8
 418              	.LCFI3:
 419              		.cfi_def_cfa_offset 16
 420 0004 00AF     		add	r7, sp, #0
 421              		.cfi_offset 14, -4
 422              		.cfi_offset 7, -8
 423              	.LCFI4:
 424              		.cfi_def_cfa_register 7
 278:.\Generated_Source\PSoC5/cyPm.c ****     #if (!CY_PSOC5A)
 279:.\Generated_Source\PSoC5/cyPm.c **** 
 280:.\Generated_Source\PSoC5/cyPm.c ****         cystatus status = CYRET_TIMEOUT;
 281:.\Generated_Source\PSoC5/cyPm.c ****         uint16 i;
 282:.\Generated_Source\PSoC5/cyPm.c **** 
 283:.\Generated_Source\PSoC5/cyPm.c ****     #endif  /* (!CY_PSOC5A) */
 284:.\Generated_Source\PSoC5/cyPm.c **** 
 285:.\Generated_Source\PSoC5/cyPm.c **** 
 286:.\Generated_Source\PSoC5/cyPm.c ****     /* Convertion table between CyIMO_SetFreq() parameters and register's value */
 287:.\Generated_Source\PSoC5/cyPm.c ****     const uint8 CYCODE cyPmImoFreqMhz2Reg[7u] = {
 288:.\Generated_Source\PSoC5/cyPm.c ****         CY_IMO_FREQ_12MHZ, CY_IMO_FREQ_6MHZ,  CY_IMO_FREQ_24MHZ, CY_IMO_FREQ_3MHZ,
 289:.\Generated_Source\PSoC5/cyPm.c ****         CY_IMO_FREQ_48MHZ, 5u, 6u};
 425              		.loc 1 289 0
 426 0006 40F20002 		movw	r2, #:lower16:C.2.2081
 427 000a C0F20002 		movt	r2, #:upper16:C.2.2081
 428 000e 3B46     		mov	r3, r7
 429 0010 92E80300 		ldmia	r2, {r0, r1}
 430 0014 1860     		str	r0, [r3, #0]
 431 0016 03F10403 		add	r3, r3, #4
 432 001a 1980     		strh	r1, [r3, #0]	@ movhi
 433 001c 03F10203 		add	r3, r3, #2
 434 0020 4FEA1142 		lsr	r2, r1, #16
 435 0024 1A70     		strb	r2, [r3, #0]
 290:.\Generated_Source\PSoC5/cyPm.c **** 
 291:.\Generated_Source\PSoC5/cyPm.c ****     /* Restore enable state of delay between the system bus clock and ACLKs. */
 292:.\Generated_Source\PSoC5/cyPm.c ****     if(CY_PM_ENABLED == cyPmClockBackup.clkDistDelay)
 436              		.loc 1 292 0
 437 0026 40F20003 		movw	r3, #:lower16:cyPmClockBackup
ARM GAS  C:\Users\rmcgarel\AppData\Local\Temp\ccv1YA4O.s 			page 14


 438 002a C0F20003 		movt	r3, #:upper16:cyPmClockBackup
 439 002e 1B7C     		ldrb	r3, [r3, #16]	@ zero_extendqisi2
 440 0030 012B     		cmp	r3, #1
 441 0032 26D1     		bne	.L23
 293:.\Generated_Source\PSoC5/cyPm.c ****     {
 294:.\Generated_Source\PSoC5/cyPm.c ****         /* Delay for both the bandgap and the delay line to settle out */
 295:.\Generated_Source\PSoC5/cyPm.c ****         CyDelayCycles((uint32)(CY_PM_CLK_DELAY_BANDGAP_SETTLE_US + CY_PM_CLK_DELAY_BIAS_SETTLE_US) 
 296:.\Generated_Source\PSoC5/cyPm.c ****                         CY_PM_GET_CPU_FREQ_MHZ);
 442              		.loc 1 296 0
 443 0034 44F20023 		movw	r3, #:lower16:1073758720
 444 0038 C4F20003 		movt	r3, #:upper16:1073758720
 445 003c 1B78     		ldrb	r3, [r3, #0]
 446 003e DBB2     		uxtb	r3, r3
 447 0040 03F00702 		and	r2, r3, #7
 448 0044 40F20003 		movw	r3, #:lower16:cyPmImoFreqReg2Mhz
 449 0048 C0F20003 		movt	r3, #:upper16:cyPmImoFreqReg2Mhz
 450 004c 9B5C     		ldrb	r3, [r3, r2]	@ zero_extendqisi2
 451              		.loc 1 295 0
 452 004e 1A46     		mov	r2, r3
 453 0050 1346     		mov	r3, r2
 454 0052 4FEA8303 		lsl	r3, r3, #2
 455 0056 1344     		add	r3, r3, r2
 456 0058 4FEA0312 		lsl	r2, r3, #4
 457 005c C3EB0203 		rsb	r3, r3, r2
 458 0060 1846     		mov	r0, r3
 459 0062 FFF7FEFF 		bl	CyDelayCycles
 297:.\Generated_Source\PSoC5/cyPm.c **** 
 298:.\Generated_Source\PSoC5/cyPm.c ****         CY_PM_CLKDIST_DELAY_REG |= CY_PM_CLKDIST_DELAY_EN;
 460              		.loc 1 298 0
 461 0066 44F20B03 		movw	r3, #:lower16:1073758219
 462 006a C4F20003 		movt	r3, #:upper16:1073758219
 463 006e 44F20B02 		movw	r2, #:lower16:1073758219
 464 0072 C4F20002 		movt	r2, #:upper16:1073758219
 465 0076 1278     		ldrb	r2, [r2, #0]
 466 0078 D2B2     		uxtb	r2, r2
 467 007a 42F00402 		orr	r2, r2, #4
 468 007e D2B2     		uxtb	r2, r2
 469 0080 1A70     		strb	r2, [r3, #0]
 470              	.L23:
 299:.\Generated_Source\PSoC5/cyPm.c ****     }
 300:.\Generated_Source\PSoC5/cyPm.c **** 
 301:.\Generated_Source\PSoC5/cyPm.c ****     /* MHz ECO restore state */
 302:.\Generated_Source\PSoC5/cyPm.c ****     if(CY_PM_ENABLED == cyPmClockBackup.xmhzEnableState)
 471              		.loc 1 302 0
 472 0082 40F20003 		movw	r3, #:lower16:cyPmClockBackup
 473 0086 C0F20003 		movt	r3, #:upper16:cyPmClockBackup
 474 008a DB7B     		ldrb	r3, [r3, #15]	@ zero_extendqisi2
 475 008c 012B     		cmp	r3, #1
 476 008e 1AD1     		bne	.L24
 303:.\Generated_Source\PSoC5/cyPm.c ****     {
 304:.\Generated_Source\PSoC5/cyPm.c ****         /***********************************************************************
 305:.\Generated_Source\PSoC5/cyPm.c ****         * Enabling XMHZ XTAL. The actual CyXTAL_Start() with non zero wait
 306:.\Generated_Source\PSoC5/cyPm.c ****         * period uses FTW for period measurement. This could cause a problem
 307:.\Generated_Source\PSoC5/cyPm.c ****         * if CTW/FTW is used as a wake up time in the low power modes APIs.
 308:.\Generated_Source\PSoC5/cyPm.c ****         * So, the XTAL wait procedure is implemented with a software delay.
 309:.\Generated_Source\PSoC5/cyPm.c ****         ***********************************************************************/
 310:.\Generated_Source\PSoC5/cyPm.c **** 
ARM GAS  C:\Users\rmcgarel\AppData\Local\Temp\ccv1YA4O.s 			page 15


 311:.\Generated_Source\PSoC5/cyPm.c ****         /* Enable XMHZ XTAL with no wait */
 312:.\Generated_Source\PSoC5/cyPm.c ****         (void) CyXTAL_Start(CY_PM_XTAL_MHZ_NO_WAIT);
 477              		.loc 1 312 0
 478 0090 4FF00000 		mov	r0, #0
 479 0094 FFF7FEFF 		bl	CyXTAL_Start
 313:.\Generated_Source\PSoC5/cyPm.c **** 
 314:.\Generated_Source\PSoC5/cyPm.c ****         #if(CY_PSOC5A)
 315:.\Generated_Source\PSoC5/cyPm.c **** 
 316:.\Generated_Source\PSoC5/cyPm.c ****             /* Make a 130 milliseconds delay */
 317:.\Generated_Source\PSoC5/cyPm.c ****             CyDelayCycles((uint32)CY_PM_WAIT_200_US * CY_PM_GET_CPU_FREQ_MHZ * CY_PM_MHZ_XTAL_WAIT_
 480              		.loc 1 317 0
 481 0098 44F20023 		movw	r3, #:lower16:1073758720
 482 009c C4F20003 		movt	r3, #:upper16:1073758720
 483 00a0 1B78     		ldrb	r3, [r3, #0]
 484 00a2 DBB2     		uxtb	r3, r3
 485 00a4 03F00702 		and	r2, r3, #7
 486 00a8 40F20003 		movw	r3, #:lower16:cyPmImoFreqReg2Mhz
 487 00ac C0F20003 		movt	r3, #:upper16:cyPmImoFreqReg2Mhz
 488 00b0 9B5C     		ldrb	r3, [r3, r2]	@ zero_extendqisi2
 489 00b2 1A46     		mov	r2, r3
 490 00b4 4FF6D033 		movw	r3, #:lower16:130000
 491 00b8 C0F20103 		movt	r3, #:upper16:130000
 492 00bc 03FB02F3 		mul	r3, r3, r2
 493 00c0 1846     		mov	r0, r3
 494 00c2 FFF7FEFF 		bl	CyDelayCycles
 495              	.L24:
 318:.\Generated_Source\PSoC5/cyPm.c **** 
 319:.\Generated_Source\PSoC5/cyPm.c ****         #else
 320:.\Generated_Source\PSoC5/cyPm.c **** 
 321:.\Generated_Source\PSoC5/cyPm.c ****             /* Read XERR bit to clear it */
 322:.\Generated_Source\PSoC5/cyPm.c ****             (void) CY_PM_FASTCLK_XMHZ_CSR_REG;
 323:.\Generated_Source\PSoC5/cyPm.c **** 
 324:.\Generated_Source\PSoC5/cyPm.c ****             /* Wait */
 325:.\Generated_Source\PSoC5/cyPm.c ****             for(i = CY_PM_MHZ_XTAL_WAIT_NUM_OF_200_US; i > 0u; i--)
 326:.\Generated_Source\PSoC5/cyPm.c ****             {
 327:.\Generated_Source\PSoC5/cyPm.c ****                 /* Make a 200 microseconds delay */
 328:.\Generated_Source\PSoC5/cyPm.c ****                 CyDelayCycles((uint32)CY_PM_WAIT_200_US * CY_PM_GET_CPU_FREQ_MHZ);
 329:.\Generated_Source\PSoC5/cyPm.c **** 
 330:.\Generated_Source\PSoC5/cyPm.c ****                 /* High output indicates oscillator failure */
 331:.\Generated_Source\PSoC5/cyPm.c ****                 if(0u == (CY_PM_FASTCLK_XMHZ_CSR_REG & CY_PM_XMHZ_CSR_XERR))
 332:.\Generated_Source\PSoC5/cyPm.c ****                 {
 333:.\Generated_Source\PSoC5/cyPm.c ****                     status = CYRET_SUCCESS;
 334:.\Generated_Source\PSoC5/cyPm.c ****                     break;
 335:.\Generated_Source\PSoC5/cyPm.c ****                 }
 336:.\Generated_Source\PSoC5/cyPm.c ****             }
 337:.\Generated_Source\PSoC5/cyPm.c **** 
 338:.\Generated_Source\PSoC5/cyPm.c ****             if(CYRET_TIMEOUT == status)
 339:.\Generated_Source\PSoC5/cyPm.c ****             {
 340:.\Generated_Source\PSoC5/cyPm.c ****                 /*******************************************************************
 341:.\Generated_Source\PSoC5/cyPm.c ****                 * Process the situation when megahertz crystal is not ready.
 342:.\Generated_Source\PSoC5/cyPm.c ****                 * Time to stabialize value is crystal specific.
 343:.\Generated_Source\PSoC5/cyPm.c ****                 *******************************************************************/
 344:.\Generated_Source\PSoC5/cyPm.c **** 
 345:.\Generated_Source\PSoC5/cyPm.c ****                 /* `#START_MHZ_ECO_TIMEOUT` */
 346:.\Generated_Source\PSoC5/cyPm.c **** 
 347:.\Generated_Source\PSoC5/cyPm.c ****                 /* `#END` */
 348:.\Generated_Source\PSoC5/cyPm.c ****             }
ARM GAS  C:\Users\rmcgarel\AppData\Local\Temp\ccv1YA4O.s 			page 16


 349:.\Generated_Source\PSoC5/cyPm.c **** 
 350:.\Generated_Source\PSoC5/cyPm.c ****         #endif  /* (CY_PSOC5A) */
 351:.\Generated_Source\PSoC5/cyPm.c **** 
 352:.\Generated_Source\PSoC5/cyPm.c ****     }   /* (CY_PM_ENABLED == cyPmClockBackup.xmhzEnableState) */
 353:.\Generated_Source\PSoC5/cyPm.c **** 
 354:.\Generated_Source\PSoC5/cyPm.c **** 
 355:.\Generated_Source\PSoC5/cyPm.c ****     /* Temprorary set the maximum flash wait cycles */
 356:.\Generated_Source\PSoC5/cyPm.c ****     CyFlash_SetWaitCycles(CY_PM_MAX_FLASH_WAIT_CYCLES);
 496              		.loc 1 356 0
 497 00c6 4FF03700 		mov	r0, #55
 498 00ca FFF7FEFF 		bl	CyFlash_SetWaitCycles
 357:.\Generated_Source\PSoC5/cyPm.c **** 
 358:.\Generated_Source\PSoC5/cyPm.c ****     /* The XTAL and DSI clocks are ready to be source for Master clock. */
 359:.\Generated_Source\PSoC5/cyPm.c ****     if((CY_PM_MASTER_CLK_SRC_XTAL == cyPmClockBackup.masterClkSrc) ||
 499              		.loc 1 359 0
 500 00ce 40F20003 		movw	r3, #:lower16:cyPmClockBackup
 501 00d2 C0F20003 		movt	r3, #:upper16:cyPmClockBackup
 502 00d6 9B78     		ldrb	r3, [r3, #2]	@ zero_extendqisi2
 503 00d8 022B     		cmp	r3, #2
 504 00da 06D0     		beq	.L25
 360:.\Generated_Source\PSoC5/cyPm.c ****        (CY_PM_MASTER_CLK_SRC_DSI  == cyPmClockBackup.masterClkSrc))
 505              		.loc 1 360 0
 506 00dc 40F20003 		movw	r3, #:lower16:cyPmClockBackup
 507 00e0 C0F20003 		movt	r3, #:upper16:cyPmClockBackup
 508 00e4 9B78     		ldrb	r3, [r3, #2]	@ zero_extendqisi2
 509              		.loc 1 359 0
 510 00e6 032B     		cmp	r3, #3
 511 00e8 1CD1     		bne	.L26
 512              	.L25:
 361:.\Generated_Source\PSoC5/cyPm.c ****     {
 362:.\Generated_Source\PSoC5/cyPm.c ****         /* Restore Master clock's divider */
 363:.\Generated_Source\PSoC5/cyPm.c ****         if(CY_PM_CLKDIST_MSTR0_REG != cyPmClockBackup.clkSyncDiv)
 513              		.loc 1 363 0
 514 00ea 44F20403 		movw	r3, #:lower16:1073758212
 515 00ee C4F20003 		movt	r3, #:upper16:1073758212
 516 00f2 1B78     		ldrb	r3, [r3, #0]
 517 00f4 DAB2     		uxtb	r2, r3
 518 00f6 40F20003 		movw	r3, #:lower16:cyPmClockBackup
 519 00fa C0F20003 		movt	r3, #:upper16:cyPmClockBackup
 520 00fe 9B7A     		ldrb	r3, [r3, #10]	@ zero_extendqisi2
 521 0100 9A42     		cmp	r2, r3
 522 0102 07D0     		beq	.L27
 364:.\Generated_Source\PSoC5/cyPm.c ****         {
 365:.\Generated_Source\PSoC5/cyPm.c ****             /* Restore Master clock divider */
 366:.\Generated_Source\PSoC5/cyPm.c ****             CyMasterClk_SetDivider(cyPmClockBackup.clkSyncDiv);
 523              		.loc 1 366 0
 524 0104 40F20003 		movw	r3, #:lower16:cyPmClockBackup
 525 0108 C0F20003 		movt	r3, #:upper16:cyPmClockBackup
 526 010c 9B7A     		ldrb	r3, [r3, #10]	@ zero_extendqisi2
 527 010e 1846     		mov	r0, r3
 528 0110 FFF7FEFF 		bl	CyMasterClk_SetDivider
 529              	.L27:
 367:.\Generated_Source\PSoC5/cyPm.c ****         }
 368:.\Generated_Source\PSoC5/cyPm.c **** 
 369:.\Generated_Source\PSoC5/cyPm.c ****         /* Restore Master clock source */
 370:.\Generated_Source\PSoC5/cyPm.c ****         CyMasterClk_SetSource(cyPmClockBackup.masterClkSrc);
 530              		.loc 1 370 0
ARM GAS  C:\Users\rmcgarel\AppData\Local\Temp\ccv1YA4O.s 			page 17


 531 0114 40F20003 		movw	r3, #:lower16:cyPmClockBackup
 532 0118 C0F20003 		movt	r3, #:upper16:cyPmClockBackup
 533 011c 9B78     		ldrb	r3, [r3, #2]	@ zero_extendqisi2
 534 011e 1846     		mov	r0, r3
 535 0120 FFF7FEFF 		bl	CyMasterClk_SetSource
 536              	.L26:
 371:.\Generated_Source\PSoC5/cyPm.c ****     }
 372:.\Generated_Source\PSoC5/cyPm.c **** 
 373:.\Generated_Source\PSoC5/cyPm.c ****     /* IMO - restore IMO frequency */
 374:.\Generated_Source\PSoC5/cyPm.c ****     if((0u != (cyPmClockBackup.imoUsbClk & CY_PM_FASTCLK_IMO_CR_USB)) &&
 537              		.loc 1 374 0
 538 0124 40F20003 		movw	r3, #:lower16:cyPmClockBackup
 539 0128 C0F20003 		movt	r3, #:upper16:cyPmClockBackup
 540 012c 1B79     		ldrb	r3, [r3, #4]	@ zero_extendqisi2
 541 012e 03F04003 		and	r3, r3, #64
 542 0132 002B     		cmp	r3, #0
 543 0134 10D0     		beq	.L28
 375:.\Generated_Source\PSoC5/cyPm.c ****         (CY_IMO_FREQ_24MHZ == cyPmImoFreqMhz2Reg[cyPmClockBackup.imoFreq]))
 544              		.loc 1 375 0
 545 0136 40F20003 		movw	r3, #:lower16:cyPmClockBackup
 546 013a C0F20003 		movt	r3, #:upper16:cyPmClockBackup
 547 013e DB78     		ldrb	r3, [r3, #3]	@ zero_extendqisi2
 548 0140 07F10802 		add	r2, r7, #8
 549 0144 1344     		add	r3, r2, r3
 550 0146 13F8083C 		ldrb	r3, [r3, #-8]	@ zero_extendqisi2
 551              		.loc 1 374 0
 552 014a 032B     		cmp	r3, #3
 553 014c 04D1     		bne	.L28
 376:.\Generated_Source\PSoC5/cyPm.c ****     {
 377:.\Generated_Source\PSoC5/cyPm.c ****         /* Restore IMO frequency (24 MHz) and trim it for USB */
 378:.\Generated_Source\PSoC5/cyPm.c ****         CyIMO_SetFreq(CY_IMO_FREQ_USB);
 554              		.loc 1 378 0
 555 014e 4FF00800 		mov	r0, #8
 556 0152 FFF7FEFF 		bl	CyIMO_SetFreq
 557              		.loc 1 374 0
 558 0156 31E0     		b	.L29
 559              	.L28:
 379:.\Generated_Source\PSoC5/cyPm.c ****     }
 380:.\Generated_Source\PSoC5/cyPm.c ****     else
 381:.\Generated_Source\PSoC5/cyPm.c ****     {
 382:.\Generated_Source\PSoC5/cyPm.c ****         /* Restore IMO frequency */
 383:.\Generated_Source\PSoC5/cyPm.c ****         CyIMO_SetFreq(cyPmImoFreqMhz2Reg[cyPmClockBackup.imoFreq]);
 560              		.loc 1 383 0
 561 0158 40F20003 		movw	r3, #:lower16:cyPmClockBackup
 562 015c C0F20003 		movt	r3, #:upper16:cyPmClockBackup
 563 0160 DB78     		ldrb	r3, [r3, #3]	@ zero_extendqisi2
 564 0162 07F10802 		add	r2, r7, #8
 565 0166 1344     		add	r3, r2, r3
 566 0168 13F8083C 		ldrb	r3, [r3, #-8]	@ zero_extendqisi2
 567 016c 1846     		mov	r0, r3
 568 016e FFF7FEFF 		bl	CyIMO_SetFreq
 384:.\Generated_Source\PSoC5/cyPm.c **** 
 385:.\Generated_Source\PSoC5/cyPm.c ****         if(0u != (cyPmClockBackup.imoUsbClk & CY_PM_FASTCLK_IMO_CR_USB))
 569              		.loc 1 385 0
 570 0172 40F20003 		movw	r3, #:lower16:cyPmClockBackup
 571 0176 C0F20003 		movt	r3, #:upper16:cyPmClockBackup
 572 017a 1B79     		ldrb	r3, [r3, #4]	@ zero_extendqisi2
ARM GAS  C:\Users\rmcgarel\AppData\Local\Temp\ccv1YA4O.s 			page 18


 573 017c 03F04003 		and	r3, r3, #64
 574 0180 002B     		cmp	r3, #0
 575 0182 0ED0     		beq	.L30
 386:.\Generated_Source\PSoC5/cyPm.c ****         {
 387:.\Generated_Source\PSoC5/cyPm.c ****             CY_PM_FASTCLK_IMO_CR_REG |= CY_PM_FASTCLK_IMO_CR_USB;
 576              		.loc 1 387 0
 577 0184 44F20023 		movw	r3, #:lower16:1073758720
 578 0188 C4F20003 		movt	r3, #:upper16:1073758720
 579 018c 44F20022 		movw	r2, #:lower16:1073758720
 580 0190 C4F20002 		movt	r2, #:upper16:1073758720
 581 0194 1278     		ldrb	r2, [r2, #0]
 582 0196 D2B2     		uxtb	r2, r2
 583 0198 42F04002 		orr	r2, r2, #64
 584 019c D2B2     		uxtb	r2, r2
 585 019e 1A70     		strb	r2, [r3, #0]
 586 01a0 0CE0     		b	.L29
 587              	.L30:
 388:.\Generated_Source\PSoC5/cyPm.c ****         }
 389:.\Generated_Source\PSoC5/cyPm.c ****         else
 390:.\Generated_Source\PSoC5/cyPm.c ****         {
 391:.\Generated_Source\PSoC5/cyPm.c ****             CY_PM_FASTCLK_IMO_CR_REG &= ((uint8)(~CY_PM_FASTCLK_IMO_CR_USB));
 588              		.loc 1 391 0
 589 01a2 44F20023 		movw	r3, #:lower16:1073758720
 590 01a6 C4F20003 		movt	r3, #:upper16:1073758720
 591 01aa 44F20022 		movw	r2, #:lower16:1073758720
 592 01ae C4F20002 		movt	r2, #:upper16:1073758720
 593 01b2 1278     		ldrb	r2, [r2, #0]
 594 01b4 D2B2     		uxtb	r2, r2
 595 01b6 02F0BF02 		and	r2, r2, #191
 596 01ba 1A70     		strb	r2, [r3, #0]
 597              	.L29:
 392:.\Generated_Source\PSoC5/cyPm.c ****         }
 393:.\Generated_Source\PSoC5/cyPm.c ****     }
 394:.\Generated_Source\PSoC5/cyPm.c **** 
 395:.\Generated_Source\PSoC5/cyPm.c ****     /* IMO - restore enable state if needed */
 396:.\Generated_Source\PSoC5/cyPm.c ****     if((CY_PM_ENABLED == cyPmClockBackup.imoEnable) &&
 598              		.loc 1 396 0
 599 01bc 40F20003 		movw	r3, #:lower16:cyPmClockBackup
 600 01c0 C0F20003 		movt	r3, #:upper16:cyPmClockBackup
 601 01c4 9B79     		ldrb	r3, [r3, #6]	@ zero_extendqisi2
 602 01c6 012B     		cmp	r3, #1
 603 01c8 0DD1     		bne	.L31
 397:.\Generated_Source\PSoC5/cyPm.c ****        (0u == (CY_PM_ACT_CFG0_IMO & CY_PM_ACT_CFG0_REG)))
 604              		.loc 1 397 0
 605 01ca 44F2A033 		movw	r3, #:lower16:1073759136
 606 01ce C4F20003 		movt	r3, #:upper16:1073759136
 607 01d2 1B78     		ldrb	r3, [r3, #0]
 608 01d4 DBB2     		uxtb	r3, r3
 609 01d6 03F01003 		and	r3, r3, #16
 610              		.loc 1 396 0
 611 01da 002B     		cmp	r3, #0
 612 01dc 03D1     		bne	.L31
 398:.\Generated_Source\PSoC5/cyPm.c ****     {
 399:.\Generated_Source\PSoC5/cyPm.c ****         /* IMO - restore enabled state */
 400:.\Generated_Source\PSoC5/cyPm.c ****         CyIMO_Start(CY_PM_IMO_NO_WAIT_TO_SETTLE);
 613              		.loc 1 400 0
 614 01de 4FF00000 		mov	r0, #0
ARM GAS  C:\Users\rmcgarel\AppData\Local\Temp\ccv1YA4O.s 			page 19


 615 01e2 FFF7FEFF 		bl	CyIMO_Start
 616              	.L31:
 401:.\Generated_Source\PSoC5/cyPm.c ****     }
 402:.\Generated_Source\PSoC5/cyPm.c **** 
 403:.\Generated_Source\PSoC5/cyPm.c ****     /* IMO - restore disable state if needed */
 404:.\Generated_Source\PSoC5/cyPm.c ****     if((CY_PM_DISABLED == cyPmClockBackup.imoEnable) &&
 617              		.loc 1 404 0
 618 01e6 40F20003 		movw	r3, #:lower16:cyPmClockBackup
 619 01ea C0F20003 		movt	r3, #:upper16:cyPmClockBackup
 620 01ee 9B79     		ldrb	r3, [r3, #6]	@ zero_extendqisi2
 621 01f0 002B     		cmp	r3, #0
 622 01f2 0BD1     		bne	.L32
 405:.\Generated_Source\PSoC5/cyPm.c ****        (0u != (CY_PM_ACT_CFG0_IMO & CY_PM_ACT_CFG0_REG)))
 623              		.loc 1 405 0
 624 01f4 44F2A033 		movw	r3, #:lower16:1073759136
 625 01f8 C4F20003 		movt	r3, #:upper16:1073759136
 626 01fc 1B78     		ldrb	r3, [r3, #0]
 627 01fe DBB2     		uxtb	r3, r3
 628 0200 03F01003 		and	r3, r3, #16
 629              		.loc 1 404 0
 630 0204 002B     		cmp	r3, #0
 631 0206 01D0     		beq	.L32
 406:.\Generated_Source\PSoC5/cyPm.c ****     {
 407:.\Generated_Source\PSoC5/cyPm.c ****         CyIMO_Stop();
 632              		.loc 1 407 0
 633 0208 FFF7FEFF 		bl	CyIMO_Stop
 634              	.L32:
 408:.\Generated_Source\PSoC5/cyPm.c ****     }
 409:.\Generated_Source\PSoC5/cyPm.c **** 
 410:.\Generated_Source\PSoC5/cyPm.c ****     /* IMO - restore IMOCLK source */
 411:.\Generated_Source\PSoC5/cyPm.c ****     CyIMO_SetSource(cyPmClockBackup.imoClkSrc);
 635              		.loc 1 411 0
 636 020c 40F20003 		movw	r3, #:lower16:cyPmClockBackup
 637 0210 C0F20003 		movt	r3, #:upper16:cyPmClockBackup
 638 0214 DB79     		ldrb	r3, [r3, #7]	@ zero_extendqisi2
 639 0216 1846     		mov	r0, r3
 640 0218 FFF7FEFF 		bl	CyIMO_SetSource
 412:.\Generated_Source\PSoC5/cyPm.c **** 
 413:.\Generated_Source\PSoC5/cyPm.c ****     /* Restore IMO doubler enable state (turned off by CyPmSaveClocks()) */
 414:.\Generated_Source\PSoC5/cyPm.c ****     if(CY_PM_ENABLED == cyPmClockBackup.imo2x)
 641              		.loc 1 414 0
 642 021c 40F20003 		movw	r3, #:lower16:cyPmClockBackup
 643 0220 C0F20003 		movt	r3, #:upper16:cyPmClockBackup
 644 0224 5B7A     		ldrb	r3, [r3, #9]	@ zero_extendqisi2
 645 0226 012B     		cmp	r3, #1
 646 0228 01D1     		bne	.L33
 415:.\Generated_Source\PSoC5/cyPm.c ****     {
 416:.\Generated_Source\PSoC5/cyPm.c ****         CyIMO_EnableDoubler();
 647              		.loc 1 416 0
 648 022a FFF7FEFF 		bl	CyIMO_EnableDoubler
 649              	.L33:
 417:.\Generated_Source\PSoC5/cyPm.c ****     }
 418:.\Generated_Source\PSoC5/cyPm.c **** 
 419:.\Generated_Source\PSoC5/cyPm.c ****     /* IMO - restore clk_imo source, if needed */
 420:.\Generated_Source\PSoC5/cyPm.c ****     if(cyPmClockBackup.clkImoSrc != (CY_PM_CLKDIST_CR_REG & CY_PM_CLKDIST_IMO_OUT_MASK))
 650              		.loc 1 420 0
 651 022e 40F20003 		movw	r3, #:lower16:cyPmClockBackup
ARM GAS  C:\Users\rmcgarel\AppData\Local\Temp\ccv1YA4O.s 			page 20


 652 0232 C0F20003 		movt	r3, #:upper16:cyPmClockBackup
 653 0236 1B7A     		ldrb	r3, [r3, #8]	@ zero_extendqisi2
 654 0238 1A46     		mov	r2, r3
 655 023a 44F20003 		movw	r3, #:lower16:1073758208
 656 023e C4F20003 		movt	r3, #:upper16:1073758208
 657 0242 1B78     		ldrb	r3, [r3, #0]
 658 0244 DBB2     		uxtb	r3, r3
 659 0246 03F03003 		and	r3, r3, #48
 660 024a 9A42     		cmp	r2, r3
 661 024c 19D0     		beq	.L34
 421:.\Generated_Source\PSoC5/cyPm.c ****     {
 422:.\Generated_Source\PSoC5/cyPm.c ****         CY_PM_CLKDIST_CR_REG = (CY_PM_CLKDIST_CR_REG & ((uint8)(~CY_PM_CLKDIST_IMO_OUT_MASK))) |
 662              		.loc 1 422 0
 663 024e 44F20003 		movw	r3, #:lower16:1073758208
 664 0252 C4F20003 		movt	r3, #:upper16:1073758208
 665 0256 44F20002 		movw	r2, #:lower16:1073758208
 666 025a C4F20002 		movt	r2, #:upper16:1073758208
 667 025e 1278     		ldrb	r2, [r2, #0]
 668 0260 D2B2     		uxtb	r2, r2
 669 0262 D2B2     		uxtb	r2, r2
 670 0264 02F0CF02 		and	r2, r2, #207
 671 0268 40F20001 		movw	r1, #:lower16:cyPmClockBackup
 672 026c C0F20001 		movt	r1, #:upper16:cyPmClockBackup
 673 0270 097A     		ldrb	r1, [r1, #8]	@ zero_extendqisi2
 674 0272 0846     		mov	r0, r1
 675 0274 1146     		mov	r1, r2
 676 0276 0246     		mov	r2, r0
 677 0278 41EA0202 		orr	r2, r1, r2
 678 027c D2B2     		uxtb	r2, r2
 679 027e D2B2     		uxtb	r2, r2
 680 0280 1A70     		strb	r2, [r3, #0]
 681              	.L34:
 423:.\Generated_Source\PSoC5/cyPm.c ****                                 cyPmClockBackup.clkImoSrc;
 424:.\Generated_Source\PSoC5/cyPm.c ****     }
 425:.\Generated_Source\PSoC5/cyPm.c **** 
 426:.\Generated_Source\PSoC5/cyPm.c ****     /* PLL restore state */
 427:.\Generated_Source\PSoC5/cyPm.c ****     if(CY_PM_ENABLED == cyPmClockBackup.pllEnableState)
 682              		.loc 1 427 0
 683 0282 40F20003 		movw	r3, #:lower16:cyPmClockBackup
 684 0286 C0F20003 		movt	r3, #:upper16:cyPmClockBackup
 685 028a 9B7B     		ldrb	r3, [r3, #14]	@ zero_extendqisi2
 686 028c 012B     		cmp	r3, #1
 687 028e 17D1     		bne	.L35
 428:.\Generated_Source\PSoC5/cyPm.c ****     {
 429:.\Generated_Source\PSoC5/cyPm.c ****         /***********************************************************************
 430:.\Generated_Source\PSoC5/cyPm.c ****         * Enable PLL. The actual CyPLL_OUT_Start() without wait period uses FTW
 431:.\Generated_Source\PSoC5/cyPm.c ****         * for period measurement. This could cause a problem if CTW/FTW is used
 432:.\Generated_Source\PSoC5/cyPm.c ****         * as a wakeup time in the low power modes APIs. To omit this issue PLL
 433:.\Generated_Source\PSoC5/cyPm.c ****         * wait procedure is implemented with a software delay.
 434:.\Generated_Source\PSoC5/cyPm.c ****         ***********************************************************************/
 435:.\Generated_Source\PSoC5/cyPm.c **** 
 436:.\Generated_Source\PSoC5/cyPm.c ****         /* Enable PLL */
 437:.\Generated_Source\PSoC5/cyPm.c ****         (void) CyPLL_OUT_Start(CY_PM_PLL_OUT_NO_WAIT);
 688              		.loc 1 437 0
 689 0290 4FF00000 		mov	r0, #0
 690 0294 FFF7FEFF 		bl	CyPLL_OUT_Start
 438:.\Generated_Source\PSoC5/cyPm.c **** 
ARM GAS  C:\Users\rmcgarel\AppData\Local\Temp\ccv1YA4O.s 			page 21


 439:.\Generated_Source\PSoC5/cyPm.c ****         /* Make a 250 us delay */
 440:.\Generated_Source\PSoC5/cyPm.c ****         CyDelayCycles((uint32)CY_PM_WAIT_250_US * CY_PM_GET_CPU_FREQ_MHZ);
 691              		.loc 1 440 0
 692 0298 44F20023 		movw	r3, #:lower16:1073758720
 693 029c C4F20003 		movt	r3, #:upper16:1073758720
 694 02a0 1B78     		ldrb	r3, [r3, #0]
 695 02a2 DBB2     		uxtb	r3, r3
 696 02a4 03F00702 		and	r2, r3, #7
 697 02a8 40F20003 		movw	r3, #:lower16:cyPmImoFreqReg2Mhz
 698 02ac C0F20003 		movt	r3, #:upper16:cyPmImoFreqReg2Mhz
 699 02b0 9B5C     		ldrb	r3, [r3, r2]	@ zero_extendqisi2
 700 02b2 4FF0FA02 		mov	r2, #250
 701 02b6 02FB03F3 		mul	r3, r2, r3
 702 02ba 1846     		mov	r0, r3
 703 02bc FFF7FEFF 		bl	CyDelayCycles
 704              	.L35:
 441:.\Generated_Source\PSoC5/cyPm.c ****     }   /* (CY_PM_ENABLED == cyPmClockBackup.pllEnableState) */
 442:.\Generated_Source\PSoC5/cyPm.c **** 
 443:.\Generated_Source\PSoC5/cyPm.c **** 
 444:.\Generated_Source\PSoC5/cyPm.c ****     /* PLL and IMO is ready to be source for Master clock */
 445:.\Generated_Source\PSoC5/cyPm.c ****     if((CY_PM_MASTER_CLK_SRC_IMO == cyPmClockBackup.masterClkSrc) ||
 705              		.loc 1 445 0
 706 02c0 40F20003 		movw	r3, #:lower16:cyPmClockBackup
 707 02c4 C0F20003 		movt	r3, #:upper16:cyPmClockBackup
 708 02c8 9B78     		ldrb	r3, [r3, #2]	@ zero_extendqisi2
 709 02ca 002B     		cmp	r3, #0
 710 02cc 06D0     		beq	.L36
 446:.\Generated_Source\PSoC5/cyPm.c ****        (CY_PM_MASTER_CLK_SRC_PLL == cyPmClockBackup.masterClkSrc))
 711              		.loc 1 446 0
 712 02ce 40F20003 		movw	r3, #:lower16:cyPmClockBackup
 713 02d2 C0F20003 		movt	r3, #:upper16:cyPmClockBackup
 714 02d6 9B78     		ldrb	r3, [r3, #2]	@ zero_extendqisi2
 715              		.loc 1 445 0
 716 02d8 012B     		cmp	r3, #1
 717 02da 1CD1     		bne	.L37
 718              	.L36:
 447:.\Generated_Source\PSoC5/cyPm.c ****     {
 448:.\Generated_Source\PSoC5/cyPm.c ****         /* Restore Master clock divider */
 449:.\Generated_Source\PSoC5/cyPm.c ****         if(CY_PM_CLKDIST_MSTR0_REG != cyPmClockBackup.clkSyncDiv)
 719              		.loc 1 449 0
 720 02dc 44F20403 		movw	r3, #:lower16:1073758212
 721 02e0 C4F20003 		movt	r3, #:upper16:1073758212
 722 02e4 1B78     		ldrb	r3, [r3, #0]
 723 02e6 DAB2     		uxtb	r2, r3
 724 02e8 40F20003 		movw	r3, #:lower16:cyPmClockBackup
 725 02ec C0F20003 		movt	r3, #:upper16:cyPmClockBackup
 726 02f0 9B7A     		ldrb	r3, [r3, #10]	@ zero_extendqisi2
 727 02f2 9A42     		cmp	r2, r3
 728 02f4 07D0     		beq	.L38
 450:.\Generated_Source\PSoC5/cyPm.c ****         {
 451:.\Generated_Source\PSoC5/cyPm.c ****             CyMasterClk_SetDivider(cyPmClockBackup.clkSyncDiv);
 729              		.loc 1 451 0
 730 02f6 40F20003 		movw	r3, #:lower16:cyPmClockBackup
 731 02fa C0F20003 		movt	r3, #:upper16:cyPmClockBackup
 732 02fe 9B7A     		ldrb	r3, [r3, #10]	@ zero_extendqisi2
 733 0300 1846     		mov	r0, r3
 734 0302 FFF7FEFF 		bl	CyMasterClk_SetDivider
ARM GAS  C:\Users\rmcgarel\AppData\Local\Temp\ccv1YA4O.s 			page 22


 735              	.L38:
 452:.\Generated_Source\PSoC5/cyPm.c ****         }
 453:.\Generated_Source\PSoC5/cyPm.c **** 
 454:.\Generated_Source\PSoC5/cyPm.c ****         /* Restore Master clock source */
 455:.\Generated_Source\PSoC5/cyPm.c ****         CyMasterClk_SetSource(cyPmClockBackup.masterClkSrc);
 736              		.loc 1 455 0
 737 0306 40F20003 		movw	r3, #:lower16:cyPmClockBackup
 738 030a C0F20003 		movt	r3, #:upper16:cyPmClockBackup
 739 030e 9B78     		ldrb	r3, [r3, #2]	@ zero_extendqisi2
 740 0310 1846     		mov	r0, r3
 741 0312 FFF7FEFF 		bl	CyMasterClk_SetSource
 742              	.L37:
 456:.\Generated_Source\PSoC5/cyPm.c ****     }
 457:.\Generated_Source\PSoC5/cyPm.c **** 
 458:.\Generated_Source\PSoC5/cyPm.c ****     /* Bus clock - restore divider, if needed */
 459:.\Generated_Source\PSoC5/cyPm.c ****     if(cyPmClockBackup.clkBusDiv != (((uint16) CY_PM_CLK_BUS_MSB_DIV_REG << 8u) | CY_PM_CLK_BUS_LSB
 743              		.loc 1 459 0
 744 0316 40F20003 		movw	r3, #:lower16:cyPmClockBackup
 745 031a C0F20003 		movt	r3, #:upper16:cyPmClockBackup
 746 031e 9B89     		ldrh	r3, [r3, #12]
 747 0320 1A46     		mov	r2, r3
 748 0322 44F20703 		movw	r3, #:lower16:1073758215
 749 0326 C4F20003 		movt	r3, #:upper16:1073758215
 750 032a 1B78     		ldrb	r3, [r3, #0]
 751 032c DBB2     		uxtb	r3, r3
 752 032e 4FEA0321 		lsl	r1, r3, #8
 753 0332 44F20603 		movw	r3, #:lower16:1073758214
 754 0336 C4F20003 		movt	r3, #:upper16:1073758214
 755 033a 1B78     		ldrb	r3, [r3, #0]
 756 033c DBB2     		uxtb	r3, r3
 757 033e 41EA0303 		orr	r3, r1, r3
 758 0342 9A42     		cmp	r2, r3
 759 0344 07D0     		beq	.L39
 460:.\Generated_Source\PSoC5/cyPm.c ****     {
 461:.\Generated_Source\PSoC5/cyPm.c ****         CyBusClk_SetDivider(cyPmClockBackup.clkBusDiv);
 760              		.loc 1 461 0
 761 0346 40F20003 		movw	r3, #:lower16:cyPmClockBackup
 762 034a C0F20003 		movt	r3, #:upper16:cyPmClockBackup
 763 034e 9B89     		ldrh	r3, [r3, #12]
 764 0350 1846     		mov	r0, r3
 765 0352 FFF7FEFF 		bl	CyBusClk_SetDivider
 766              	.L39:
 462:.\Generated_Source\PSoC5/cyPm.c ****     }
 463:.\Generated_Source\PSoC5/cyPm.c **** 
 464:.\Generated_Source\PSoC5/cyPm.c ****     /* Restore flash wait cycles */
 465:.\Generated_Source\PSoC5/cyPm.c ****     CY_PM_CACHE_CR_REG = ((CY_PM_CACHE_CR_REG & ((uint8)(~CY_PM_CACHE_CR_CYCLES_MASK))) |
 767              		.loc 1 465 0
 768 0356 44F60003 		movw	r3, #:lower16:1073760256
 769 035a C4F20003 		movt	r3, #:upper16:1073760256
 770 035e 44F60002 		movw	r2, #:lower16:1073760256
 771 0362 C4F20002 		movt	r2, #:upper16:1073760256
 772 0366 1278     		ldrb	r2, [r2, #0]
 773 0368 D2B2     		uxtb	r2, r2
 774 036a D2B2     		uxtb	r2, r2
 775 036c 02F03F02 		and	r2, r2, #63
 776 0370 40F20001 		movw	r1, #:lower16:cyPmClockBackup
 777 0374 C0F20001 		movt	r1, #:upper16:cyPmClockBackup
ARM GAS  C:\Users\rmcgarel\AppData\Local\Temp\ccv1YA4O.s 			page 23


 778 0378 4979     		ldrb	r1, [r1, #5]	@ zero_extendqisi2
 779 037a 0846     		mov	r0, r1
 780 037c 1146     		mov	r1, r2
 781 037e 0246     		mov	r2, r0
 782 0380 41EA0202 		orr	r2, r1, r2
 783 0384 D2B2     		uxtb	r2, r2
 784 0386 D2B2     		uxtb	r2, r2
 785 0388 1A70     		strb	r2, [r3, #0]
 466:.\Generated_Source\PSoC5/cyPm.c ****                            cyPmClockBackup.flashWaitCycles);
 467:.\Generated_Source\PSoC5/cyPm.c **** 
 468:.\Generated_Source\PSoC5/cyPm.c ****     /* Digital and analog clocks - restore state */
 469:.\Generated_Source\PSoC5/cyPm.c ****     CY_PM_ACT_CFG1_REG = cyPmClockBackup.enClkA;
 786              		.loc 1 469 0
 787 038a 44F2A133 		movw	r3, #:lower16:1073759137
 788 038e C4F20003 		movt	r3, #:upper16:1073759137
 789 0392 40F20002 		movw	r2, #:lower16:cyPmClockBackup
 790 0396 C0F20002 		movt	r2, #:upper16:cyPmClockBackup
 791 039a 1278     		ldrb	r2, [r2, #0]	@ zero_extendqisi2
 792 039c 1A70     		strb	r2, [r3, #0]
 470:.\Generated_Source\PSoC5/cyPm.c ****     CY_PM_ACT_CFG2_REG = cyPmClockBackup.enClkD;
 793              		.loc 1 470 0
 794 039e 44F2A233 		movw	r3, #:lower16:1073759138
 795 03a2 C4F20003 		movt	r3, #:upper16:1073759138
 796 03a6 40F20002 		movw	r2, #:lower16:cyPmClockBackup
 797 03aa C0F20002 		movt	r2, #:upper16:cyPmClockBackup
 798 03ae 5278     		ldrb	r2, [r2, #1]	@ zero_extendqisi2
 799 03b0 1A70     		strb	r2, [r3, #0]
 471:.\Generated_Source\PSoC5/cyPm.c **** }
 800              		.loc 1 471 0
 801 03b2 07F10807 		add	r7, r7, #8
 802 03b6 BD46     		mov	sp, r7
 803 03b8 80BD     		pop	{r7, pc}
 804              		.cfi_endproc
 805              	.LFE1:
 806              		.size	CyPmRestoreClocks, .-CyPmRestoreClocks
 807 03ba 00BF     		.section	.text.CyPmAltAct,"ax",%progbits
 808              		.align	2
 809              		.global	CyPmAltAct
 810              		.thumb
 811              		.thumb_func
 812              		.type	CyPmAltAct, %function
 813              	CyPmAltAct:
 814              	.LFB2:
 472:.\Generated_Source\PSoC5/cyPm.c **** 
 473:.\Generated_Source\PSoC5/cyPm.c **** 
 474:.\Generated_Source\PSoC5/cyPm.c **** /*******************************************************************************
 475:.\Generated_Source\PSoC5/cyPm.c **** * Function Name: CyPmAltAct
 476:.\Generated_Source\PSoC5/cyPm.c **** ********************************************************************************
 477:.\Generated_Source\PSoC5/cyPm.c **** *
 478:.\Generated_Source\PSoC5/cyPm.c **** * Summary:
 479:.\Generated_Source\PSoC5/cyPm.c **** *  Puts the part into the Alternate Active (Standby) state. The Alternate Active
 480:.\Generated_Source\PSoC5/cyPm.c **** *  state can allow for any of the capabilities of the device to be active, but
 481:.\Generated_Source\PSoC5/cyPm.c **** *  the operation of this function is dependent on the CPU being disabled during
 482:.\Generated_Source\PSoC5/cyPm.c **** *  the Alternate Active state. The configuration code and the component APIs
 483:.\Generated_Source\PSoC5/cyPm.c **** *  will configure the template for the Alternate Active state to be the same as
 484:.\Generated_Source\PSoC5/cyPm.c **** *  the Active state with the exception that the CPU will be disabled during
 485:.\Generated_Source\PSoC5/cyPm.c **** *  Alternate Active.
ARM GAS  C:\Users\rmcgarel\AppData\Local\Temp\ccv1YA4O.s 			page 24


 486:.\Generated_Source\PSoC5/cyPm.c **** *
 487:.\Generated_Source\PSoC5/cyPm.c **** *  Note Before calling this function, you must manually configure the power mode
 488:.\Generated_Source\PSoC5/cyPm.c **** *  of the source clocks for the timer that is used as the wakeup timer.
 489:.\Generated_Source\PSoC5/cyPm.c **** *
 490:.\Generated_Source\PSoC5/cyPm.c **** *  PSoC 3:
 491:.\Generated_Source\PSoC5/cyPm.c **** *  Before switching to Alternate Active, if a wakeupTime other than NONE is
 492:.\Generated_Source\PSoC5/cyPm.c **** *  specified, then the appropriate timer state is configured as specified with
 493:.\Generated_Source\PSoC5/cyPm.c **** *  the interrupt for that timer disabled.  The wakeup source will be the
 494:.\Generated_Source\PSoC5/cyPm.c **** *  combination of the values specified in the wakeupSource and any timer
 495:.\Generated_Source\PSoC5/cyPm.c **** *  specified in the wakeupTime argument.  Once the wakeup condition is
 496:.\Generated_Source\PSoC5/cyPm.c **** *  satisfied, then all saved state is restored and the function returns in the
 497:.\Generated_Source\PSoC5/cyPm.c **** *  Active state.
 498:.\Generated_Source\PSoC5/cyPm.c **** *
 499:.\Generated_Source\PSoC5/cyPm.c **** *  Note that if the wakeupTime is made with a different value, the period before
 500:.\Generated_Source\PSoC5/cyPm.c **** *  the wakeup occurs can be significantly shorter than the specified time.  If
 501:.\Generated_Source\PSoC5/cyPm.c **** *  the next call is made with the same wakeupTime value, then the wakeup will
 502:.\Generated_Source\PSoC5/cyPm.c **** *  occur the specified period after the previous wakeup occurred.
 503:.\Generated_Source\PSoC5/cyPm.c **** *
 504:.\Generated_Source\PSoC5/cyPm.c **** *  If a wakeupTime other than NONE is specified, then upon exit the state of the
 505:.\Generated_Source\PSoC5/cyPm.c **** *  specified timer will be left as specified by wakeupTime with the timer
 506:.\Generated_Source\PSoC5/cyPm.c **** *  enabled and the interrupt disabled.  If the CTW, FTW or One PPS is already
 507:.\Generated_Source\PSoC5/cyPm.c **** *  configured for wakeup, for example with the SleepTimer or RTC components,
 508:.\Generated_Source\PSoC5/cyPm.c **** *  then specify NONE for the wakeupTime and include the appropriate source for
 509:.\Generated_Source\PSoC5/cyPm.c **** *  wakeupSource.
 510:.\Generated_Source\PSoC5/cyPm.c **** *
 511:.\Generated_Source\PSoC5/cyPm.c **** *  PSoC 5:
 512:.\Generated_Source\PSoC5/cyPm.c **** *  This function is used to both enter the Alternate Active mode and halt the
 513:.\Generated_Source\PSoC5/cyPm.c **** *  processor.  For PSoC 3 these two actions must be paired together.  With
 514:.\Generated_Source\PSoC5/cyPm.c **** *  PSoC 5 the processor can be halted independently with the __WFI() function
 515:.\Generated_Source\PSoC5/cyPm.c **** *  from the CMSIS library that is included in Creator.  This function should be
 516:.\Generated_Source\PSoC5/cyPm.c **** *  used instead when the action required is just to halt the processor until an
 517:.\Generated_Source\PSoC5/cyPm.c **** *  enabled interrupt occurs.
 518:.\Generated_Source\PSoC5/cyPm.c **** *
 519:.\Generated_Source\PSoC5/cyPm.c **** *  Neither of the parameters to the CyPmAltAct() function are used. The
 520:.\Generated_Source\PSoC5/cyPm.c **** *  parameters must be set to 0 (PM_ALT_ACT_TIME_NONE and PM_ALT_ACT_SRC_NONE).
 521:.\Generated_Source\PSoC5/cyPm.c **** *  The wake up time configuration can be done by a separate component: the CTW
 522:.\Generated_Source\PSoC5/cyPm.c **** *  wakeup interval should be configured with the Sleep Timer component and one
 523:.\Generated_Source\PSoC5/cyPm.c **** *  second interval should be configured with the RTC component.
 524:.\Generated_Source\PSoC5/cyPm.c **** *
 525:.\Generated_Source\PSoC5/cyPm.c **** *  Upon function execution the device will be switched from Active to Alternate
 526:.\Generated_Source\PSoC5/cyPm.c **** *  Active mode and the CPU will be halted. When an enabled interrupt occurs the
 527:.\Generated_Source\PSoC5/cyPm.c **** *  device will be switched to Active mode and the CPU will be started. Note that
 528:.\Generated_Source\PSoC5/cyPm.c **** *  if a wakeup event occurs and the associated interrupt is not enabled, then
 529:.\Generated_Source\PSoC5/cyPm.c **** *  the device will switch to Active mode with the CPU still halted. The CPU will
 530:.\Generated_Source\PSoC5/cyPm.c **** *  remain halted until an enabled interrupt occurs.
 531:.\Generated_Source\PSoC5/cyPm.c **** *
 532:.\Generated_Source\PSoC5/cyPm.c **** *  PSoC 5LP:
 533:.\Generated_Source\PSoC5/cyPm.c **** *  This function is used to both enter the Alternate Active mode and halt the
 534:.\Generated_Source\PSoC5/cyPm.c **** *  processor.  For PSoC 3 these two actions must be paired together.  With PSoC
 535:.\Generated_Source\PSoC5/cyPm.c **** *  5LP the processor can be halted independently with the __WFI() function from
 536:.\Generated_Source\PSoC5/cyPm.c **** *  the CMSIS library that is included in Creator.  This function should be used
 537:.\Generated_Source\PSoC5/cyPm.c **** *  instead when the action required is just to halt the processor until an
 538:.\Generated_Source\PSoC5/cyPm.c **** *  enabled interrupt occurs.
 539:.\Generated_Source\PSoC5/cyPm.c **** *
 540:.\Generated_Source\PSoC5/cyPm.c **** *  The wakeupTime parameter is not used for this device. It must be set to zero
 541:.\Generated_Source\PSoC5/cyPm.c **** *  (PM_ALT_ACT_TIME_NONE). The wake up time configuration can be done by a
 542:.\Generated_Source\PSoC5/cyPm.c **** *  separate component: the CTW wakeup interval should be configured with the
ARM GAS  C:\Users\rmcgarel\AppData\Local\Temp\ccv1YA4O.s 			page 25


 543:.\Generated_Source\PSoC5/cyPm.c **** *  Sleep Timer component and one second interval should be configured with the
 544:.\Generated_Source\PSoC5/cyPm.c **** *  RTC component.
 545:.\Generated_Source\PSoC5/cyPm.c **** *
 546:.\Generated_Source\PSoC5/cyPm.c **** *  The wakeup behavior depends on wakeupSource parameter in the following
 547:.\Generated_Source\PSoC5/cyPm.c **** *  manner: upon function execution the device will be switched from Active to
 548:.\Generated_Source\PSoC5/cyPm.c **** *  Alternate Active mode and then the CPU will be halted. When an enabled wakeup
 549:.\Generated_Source\PSoC5/cyPm.c **** *  event occurs the device will return to Active mode.  Similarly when an
 550:.\Generated_Source\PSoC5/cyPm.c **** *  enabled interrupt occurs the CPU will be started. These two actions will
 551:.\Generated_Source\PSoC5/cyPm.c **** *  occur together provided that the event that occurs is an enabled wakeup
 552:.\Generated_Source\PSoC5/cyPm.c **** *  source and also generates an interrupt. If just the wakeup event occurs then
 553:.\Generated_Source\PSoC5/cyPm.c **** *  the device will be in Active mode, but the CPU will remain halted waiting for
 554:.\Generated_Source\PSoC5/cyPm.c **** *  an interrupt. If an interrupt occurs from something other than a wakeup
 555:.\Generated_Source\PSoC5/cyPm.c **** *  source, then the CPU will restart with the device in Alternate Active mode
 556:.\Generated_Source\PSoC5/cyPm.c **** *  until a wakeup event occurs.
 557:.\Generated_Source\PSoC5/cyPm.c **** *
 558:.\Generated_Source\PSoC5/cyPm.c **** *  For example, if CyPmAltAct(PM_ALT_ACT_TIME_NONE, PM_ALT_ACT_SRC_PICU) is
 559:.\Generated_Source\PSoC5/cyPm.c **** *  called and PICU interrupt occurs, the CPU will be started and device will be
 560:.\Generated_Source\PSoC5/cyPm.c **** *  switched into Active mode. And if CyPmAltAct(PM_ALT_ACT_TIME_NONE,
 561:.\Generated_Source\PSoC5/cyPm.c **** *  PM_ALT_ACT_SRC_NONE) is called and PICU interrupt occurs, the CPU will be
 562:.\Generated_Source\PSoC5/cyPm.c **** *  started while device remains in Alternate Active mode.
 563:.\Generated_Source\PSoC5/cyPm.c **** *
 564:.\Generated_Source\PSoC5/cyPm.c **** * Parameters:
 565:.\Generated_Source\PSoC5/cyPm.c **** *  wakeupTime: Specifies a timer wakeup source and the frequency of that
 566:.\Generated_Source\PSoC5/cyPm.c **** *              source. For PSoC 5 and PSoC 5LP this parameter is ignored.
 567:.\Generated_Source\PSoC5/cyPm.c **** *
 568:.\Generated_Source\PSoC5/cyPm.c **** *           Define                      Time
 569:.\Generated_Source\PSoC5/cyPm.c **** *  PM_ALT_ACT_TIME_NONE             None
 570:.\Generated_Source\PSoC5/cyPm.c **** *  PM_ALT_ACT_TIME_ONE_PPS          One PPS: 1 second
 571:.\Generated_Source\PSoC5/cyPm.c **** *  PM_ALT_ACT_TIME_CTW_2MS          CTW: 2 ms
 572:.\Generated_Source\PSoC5/cyPm.c **** *  PM_ALT_ACT_TIME_CTW_4MS          CTW: 4 ms
 573:.\Generated_Source\PSoC5/cyPm.c **** *  PM_ALT_ACT_TIME_CTW_8MS          CTW: 8 ms
 574:.\Generated_Source\PSoC5/cyPm.c **** *  PM_ALT_ACT_TIME_CTW_16MS         CTW: 16 ms
 575:.\Generated_Source\PSoC5/cyPm.c **** *  PM_ALT_ACT_TIME_CTW_32MS         CTW: 32 ms
 576:.\Generated_Source\PSoC5/cyPm.c **** *  PM_ALT_ACT_TIME_CTW_64MS         CTW: 64 ms
 577:.\Generated_Source\PSoC5/cyPm.c **** *  PM_ALT_ACT_TIME_CTW_128MS        CTW: 128 ms
 578:.\Generated_Source\PSoC5/cyPm.c **** *  PM_ALT_ACT_TIME_CTW_256MS        CTW: 256 ms
 579:.\Generated_Source\PSoC5/cyPm.c **** *  PM_ALT_ACT_TIME_CTW_512MS        CTW: 512 ms
 580:.\Generated_Source\PSoC5/cyPm.c **** *  PM_ALT_ACT_TIME_CTW_1024MS       CTW: 1024 ms
 581:.\Generated_Source\PSoC5/cyPm.c **** *  PM_ALT_ACT_TIME_CTW_2048MS       CTW: 2048 ms
 582:.\Generated_Source\PSoC5/cyPm.c **** *  PM_ALT_ACT_TIME_CTW_4096MS       CTW: 4096 ms
 583:.\Generated_Source\PSoC5/cyPm.c **** *  PM_ALT_ACT_TIME_FTW(1-256)*       FTW: 10us to 2.56 ms
 584:.\Generated_Source\PSoC5/cyPm.c **** *
 585:.\Generated_Source\PSoC5/cyPm.c **** *  *Note:   PM_ALT_ACT_TIME_FTW() is a macro that takes an argument that
 586:.\Generated_Source\PSoC5/cyPm.c **** *           specifies how many increments of 10 us to delay.
 587:.\Generated_Source\PSoC5/cyPm.c ****             For PSoC 3 silicon the valid range of  values is 1 to 256.
 588:.\Generated_Source\PSoC5/cyPm.c **** *
 589:.\Generated_Source\PSoC5/cyPm.c **** *  wakeUpSource:    Specifies a bitwise mask of wakeup sources. In addition, if
 590:.\Generated_Source\PSoC5/cyPm.c **** *                   a wakeupTime has been specified the associated timer will be
 591:.\Generated_Source\PSoC5/cyPm.c **** *                   included as a wakeup source. For PSoC 5 this parameter is
 592:.\Generated_Source\PSoC5/cyPm.c **** *                   ignored.
 593:.\Generated_Source\PSoC5/cyPm.c **** *
 594:.\Generated_Source\PSoC5/cyPm.c **** *           Define                      Source
 595:.\Generated_Source\PSoC5/cyPm.c **** *  PM_ALT_ACT_SRC_NONE              None
 596:.\Generated_Source\PSoC5/cyPm.c **** *  PM_ALT_ACT_SRC_COMPARATOR0       Comparator 0
 597:.\Generated_Source\PSoC5/cyPm.c **** *  PM_ALT_ACT_SRC_COMPARATOR1       Comparator 1
 598:.\Generated_Source\PSoC5/cyPm.c **** *  PM_ALT_ACT_SRC_COMPARATOR2       Comparator 2
 599:.\Generated_Source\PSoC5/cyPm.c **** *  PM_ALT_ACT_SRC_COMPARATOR3       Comparator 3
ARM GAS  C:\Users\rmcgarel\AppData\Local\Temp\ccv1YA4O.s 			page 26


 600:.\Generated_Source\PSoC5/cyPm.c **** *  PM_ALT_ACT_SRC_INTERRUPT         Interrupt
 601:.\Generated_Source\PSoC5/cyPm.c **** *  PM_ALT_ACT_SRC_PICU              PICU
 602:.\Generated_Source\PSoC5/cyPm.c **** *  PM_ALT_ACT_SRC_I2C               I2C
 603:.\Generated_Source\PSoC5/cyPm.c **** *  PM_ALT_ACT_SRC_BOOSTCONVERTER    Boost Converter
 604:.\Generated_Source\PSoC5/cyPm.c **** *  PM_ALT_ACT_SRC_FTW               Fast Timewheel*
 605:.\Generated_Source\PSoC5/cyPm.c **** *  PM_ALT_ACT_SRC_VD                High and Low Voltage Detection (HVI, LVI)*
 606:.\Generated_Source\PSoC5/cyPm.c **** *  PM_ALT_ACT_SRC_CTW               Central Timewheel**
 607:.\Generated_Source\PSoC5/cyPm.c **** *  PM_ALT_ACT_SRC_ONE_PPS           One PPS**
 608:.\Generated_Source\PSoC5/cyPm.c **** *  PM_ALT_ACT_SRC_LCD               LCD
 609:.\Generated_Source\PSoC5/cyPm.c **** *
 610:.\Generated_Source\PSoC5/cyPm.c **** *  *Note : FTW and HVI/LVI wakeup signals are in the same mask bit.
 611:.\Generated_Source\PSoC5/cyPm.c **** *  **Note: CTW and One PPS wakeup signals are in the same mask bit.
 612:.\Generated_Source\PSoC5/cyPm.c **** *
 613:.\Generated_Source\PSoC5/cyPm.c **** *  When specifying a Comparator as the wakeupSource an instance specific define
 614:.\Generated_Source\PSoC5/cyPm.c **** *  should be used that will track with the specific comparator that the instance
 615:.\Generated_Source\PSoC5/cyPm.c **** *  is placed into. As an example, for a Comparator instance named MyComp the
 616:.\Generated_Source\PSoC5/cyPm.c **** *  value to OR into the mask is: MyComp_ctComp__CMP_MASK.
 617:.\Generated_Source\PSoC5/cyPm.c **** *
 618:.\Generated_Source\PSoC5/cyPm.c **** *  When CTW, FTW or One PPS is used as a wakeup source, the CyPmReadStatus()
 619:.\Generated_Source\PSoC5/cyPm.c **** *  function must be called upon wakeup with corresponding parameter. Please
 620:.\Generated_Source\PSoC5/cyPm.c **** *  refer to the CyPmReadStatus() API in the System Reference Guide for more
 621:.\Generated_Source\PSoC5/cyPm.c **** *  information.
 622:.\Generated_Source\PSoC5/cyPm.c **** *
 623:.\Generated_Source\PSoC5/cyPm.c **** * Return:
 624:.\Generated_Source\PSoC5/cyPm.c **** *  None
 625:.\Generated_Source\PSoC5/cyPm.c **** *
 626:.\Generated_Source\PSoC5/cyPm.c **** * Reentrant:
 627:.\Generated_Source\PSoC5/cyPm.c **** *  No
 628:.\Generated_Source\PSoC5/cyPm.c **** *
 629:.\Generated_Source\PSoC5/cyPm.c **** * Side Effects:
 630:.\Generated_Source\PSoC5/cyPm.c **** *  If a wakeupTime other than NONE is specified, then upon exit the state of the
 631:.\Generated_Source\PSoC5/cyPm.c **** *  specified timer will be left as specified by wakeupTime with the timer
 632:.\Generated_Source\PSoC5/cyPm.c **** *  enabled and the interrupt disabled.  Also, the ILO 1 KHz (if CTW timer is
 633:.\Generated_Source\PSoC5/cyPm.c **** *  used as wakeup time) or ILO 100 KHz (if FTW timer is used as wakeup time)
 634:.\Generated_Source\PSoC5/cyPm.c **** *  will be left started.
 635:.\Generated_Source\PSoC5/cyPm.c **** *
 636:.\Generated_Source\PSoC5/cyPm.c **** *******************************************************************************/
 637:.\Generated_Source\PSoC5/cyPm.c **** void CyPmAltAct(uint16 wakeupTime, uint16 wakeupSource) 
 638:.\Generated_Source\PSoC5/cyPm.c **** {
 815              		.loc 1 638 0
 816              		.cfi_startproc
 817              		@ args = 0, pretend = 0, frame = 8
 818              		@ frame_needed = 1, uses_anonymous_args = 0
 819 0000 80B5     		push	{r7, lr}
 820              	.LCFI5:
 821              		.cfi_def_cfa_offset 8
 822 0002 82B0     		sub	sp, sp, #8
 823              	.LCFI6:
 824              		.cfi_def_cfa_offset 16
 825 0004 00AF     		add	r7, sp, #0
 826              		.cfi_offset 14, -4
 827              		.cfi_offset 7, -8
 828              	.LCFI7:
 829              		.cfi_def_cfa_register 7
 830 0006 0246     		mov	r2, r0
 831 0008 0B46     		mov	r3, r1
 832 000a FA80     		strh	r2, [r7, #6]	@ movhi
ARM GAS  C:\Users\rmcgarel\AppData\Local\Temp\ccv1YA4O.s 			page 27


 833 000c BB80     		strh	r3, [r7, #4]	@ movhi
 639:.\Generated_Source\PSoC5/cyPm.c ****     #if(CY_PSOC5)
 640:.\Generated_Source\PSoC5/cyPm.c **** 
 641:.\Generated_Source\PSoC5/cyPm.c ****         /* Arguments expected to be 0 */
 642:.\Generated_Source\PSoC5/cyPm.c ****         CYASSERT(PM_ALT_ACT_TIME_NONE == wakeupTime);
 834              		.loc 1 642 0
 835 000e FB88     		ldrh	r3, [r7, #6]
 836 0010 002B     		cmp	r3, #0
 837 0012 03D0     		beq	.L42
 838 0014 4FF00000 		mov	r0, #0
 839 0018 FFF7FEFF 		bl	CyHalt
 840              	.L42:
 643:.\Generated_Source\PSoC5/cyPm.c **** 
 644:.\Generated_Source\PSoC5/cyPm.c ****         #if(CY_PSOC5A)
 645:.\Generated_Source\PSoC5/cyPm.c **** 
 646:.\Generated_Source\PSoC5/cyPm.c ****             /* The wakeupSource argument expected to be 0 */
 647:.\Generated_Source\PSoC5/cyPm.c ****             CYASSERT(PM_ALT_ACT_SRC_NONE  == wakeupSource);
 841              		.loc 1 647 0
 842 001c BB88     		ldrh	r3, [r7, #4]
 843 001e 002B     		cmp	r3, #0
 844 0020 03D0     		beq	.L43
 845 0022 4FF00000 		mov	r0, #0
 846 0026 FFF7FEFF 		bl	CyHalt
 847              	.L43:
 648:.\Generated_Source\PSoC5/cyPm.c **** 
 649:.\Generated_Source\PSoC5/cyPm.c ****             if(0u != wakeupSource)
 650:.\Generated_Source\PSoC5/cyPm.c ****             {
 651:.\Generated_Source\PSoC5/cyPm.c ****                 /* To remove unreferenced local variable warning */
 652:.\Generated_Source\PSoC5/cyPm.c ****             }
 653:.\Generated_Source\PSoC5/cyPm.c **** 
 654:.\Generated_Source\PSoC5/cyPm.c ****         #endif /* (CY_PSOC5A) */
 655:.\Generated_Source\PSoC5/cyPm.c **** 
 656:.\Generated_Source\PSoC5/cyPm.c ****         if(0u != wakeupTime)
 657:.\Generated_Source\PSoC5/cyPm.c ****         {
 658:.\Generated_Source\PSoC5/cyPm.c ****             /* To remove unreferenced local variable warning */
 659:.\Generated_Source\PSoC5/cyPm.c ****         }
 660:.\Generated_Source\PSoC5/cyPm.c **** 
 661:.\Generated_Source\PSoC5/cyPm.c ****     #endif /* (CY_PSOC5) */
 662:.\Generated_Source\PSoC5/cyPm.c **** 
 663:.\Generated_Source\PSoC5/cyPm.c **** 
 664:.\Generated_Source\PSoC5/cyPm.c ****     #if(CY_PSOC3)
 665:.\Generated_Source\PSoC5/cyPm.c **** 
 666:.\Generated_Source\PSoC5/cyPm.c ****         /* FTW - save current and set new configuration */
 667:.\Generated_Source\PSoC5/cyPm.c ****         if((wakeupTime >= PM_ALT_ACT_TIME_FTW(1u)) && (wakeupTime <= PM_ALT_ACT_TIME_FTW(256u)))
 668:.\Generated_Source\PSoC5/cyPm.c ****         {
 669:.\Generated_Source\PSoC5/cyPm.c ****             CyPmFtwSetInterval(PM_ALT_ACT_FTW_INTERVAL(wakeupTime));
 670:.\Generated_Source\PSoC5/cyPm.c **** 
 671:.\Generated_Source\PSoC5/cyPm.c ****             /* Include associated timer to the wakeupSource */
 672:.\Generated_Source\PSoC5/cyPm.c ****             wakeupSource |= PM_ALT_ACT_SRC_FTW;
 673:.\Generated_Source\PSoC5/cyPm.c ****         }
 674:.\Generated_Source\PSoC5/cyPm.c **** 
 675:.\Generated_Source\PSoC5/cyPm.c ****         /* CTW - save current and set new configuration */
 676:.\Generated_Source\PSoC5/cyPm.c ****         if((wakeupTime >= PM_ALT_ACT_TIME_CTW_2MS) && (wakeupTime <= PM_ALT_ACT_TIME_CTW_4096MS))
 677:.\Generated_Source\PSoC5/cyPm.c ****         {
 678:.\Generated_Source\PSoC5/cyPm.c ****             /* Save current CTW configuration and set new one */
 679:.\Generated_Source\PSoC5/cyPm.c ****             CyPmCtwSetInterval((uint8)(wakeupTime - 1u));
 680:.\Generated_Source\PSoC5/cyPm.c **** 
ARM GAS  C:\Users\rmcgarel\AppData\Local\Temp\ccv1YA4O.s 			page 28


 681:.\Generated_Source\PSoC5/cyPm.c ****             /* Include associated timer to the wakeupSource */
 682:.\Generated_Source\PSoC5/cyPm.c ****             wakeupSource |= PM_ALT_ACT_SRC_CTW;
 683:.\Generated_Source\PSoC5/cyPm.c ****         }
 684:.\Generated_Source\PSoC5/cyPm.c **** 
 685:.\Generated_Source\PSoC5/cyPm.c ****         /* 1PPS - save current and set new configuration */
 686:.\Generated_Source\PSoC5/cyPm.c ****         if(PM_ALT_ACT_TIME_ONE_PPS == wakeupTime)
 687:.\Generated_Source\PSoC5/cyPm.c ****         {
 688:.\Generated_Source\PSoC5/cyPm.c ****             /* Save current 1PPS configuration and set new one */
 689:.\Generated_Source\PSoC5/cyPm.c ****             CyPmOppsSet();
 690:.\Generated_Source\PSoC5/cyPm.c **** 
 691:.\Generated_Source\PSoC5/cyPm.c ****             /* Include associated timer to the wakeupSource */
 692:.\Generated_Source\PSoC5/cyPm.c ****             wakeupSource |= PM_ALT_ACT_SRC_ONE_PPS;
 693:.\Generated_Source\PSoC5/cyPm.c ****         }
 694:.\Generated_Source\PSoC5/cyPm.c **** 
 695:.\Generated_Source\PSoC5/cyPm.c ****     #endif /* (CY_PSOC3) */
 696:.\Generated_Source\PSoC5/cyPm.c **** 
 697:.\Generated_Source\PSoC5/cyPm.c **** 
 698:.\Generated_Source\PSoC5/cyPm.c ****     #if(CY_PSOC3 || CY_PSOC5LP)
 699:.\Generated_Source\PSoC5/cyPm.c **** 
 700:.\Generated_Source\PSoC5/cyPm.c ****         /* Save and set new wake up configuration */
 701:.\Generated_Source\PSoC5/cyPm.c **** 
 702:.\Generated_Source\PSoC5/cyPm.c ****         /* Interrupt, PICU, I2C, Boost converter, CTW/1PPS */
 703:.\Generated_Source\PSoC5/cyPm.c ****         cyPmBackup.wakeupCfg0 = CY_PM_WAKEUP_CFG0_REG;
 704:.\Generated_Source\PSoC5/cyPm.c ****         CY_PM_WAKEUP_CFG0_REG = (uint8) (wakeupSource >> 4u);
 705:.\Generated_Source\PSoC5/cyPm.c **** 
 706:.\Generated_Source\PSoC5/cyPm.c ****         /* Comparators */
 707:.\Generated_Source\PSoC5/cyPm.c ****         cyPmBackup.wakeupCfg1 = CY_PM_WAKEUP_CFG1_REG;
 708:.\Generated_Source\PSoC5/cyPm.c ****         CY_PM_WAKEUP_CFG1_REG = (((uint8) wakeupSource) & CY_PM_WAKEUP_SRC_CMPS_MASK);
 709:.\Generated_Source\PSoC5/cyPm.c **** 
 710:.\Generated_Source\PSoC5/cyPm.c ****         /* LCD */
 711:.\Generated_Source\PSoC5/cyPm.c ****         cyPmBackup.wakeupCfg2 = CY_PM_WAKEUP_CFG2_REG;
 712:.\Generated_Source\PSoC5/cyPm.c ****         CY_PM_WAKEUP_CFG2_REG = ((uint8) ((wakeupSource >> 12u) & 0x01u));
 713:.\Generated_Source\PSoC5/cyPm.c **** 
 714:.\Generated_Source\PSoC5/cyPm.c ****     #endif  /* (CY_PSOC3 || CY_PSOC5LP) */
 715:.\Generated_Source\PSoC5/cyPm.c **** 
 716:.\Generated_Source\PSoC5/cyPm.c **** 
 717:.\Generated_Source\PSoC5/cyPm.c ****     /* Switch to the Alternate Active mode */
 718:.\Generated_Source\PSoC5/cyPm.c ****     CY_PM_MODE_CSR_REG = ((CY_PM_MODE_CSR_REG & ((uint8)(~CY_PM_MODE_CSR_MASK))) | CY_PM_MODE_CSR_A
 848              		.loc 1 718 0
 849 002a 44F29333 		movw	r3, #:lower16:1073759123
 850 002e C4F20003 		movt	r3, #:upper16:1073759123
 851 0032 44F29332 		movw	r2, #:lower16:1073759123
 852 0036 C4F20002 		movt	r2, #:upper16:1073759123
 853 003a 1278     		ldrb	r2, [r2, #0]
 854 003c D2B2     		uxtb	r2, r2
 855 003e 02F0F802 		and	r2, r2, #248
 856 0042 42F00102 		orr	r2, r2, #1
 857 0046 D2B2     		uxtb	r2, r2
 858 0048 1A70     		strb	r2, [r3, #0]
 719:.\Generated_Source\PSoC5/cyPm.c **** 
 720:.\Generated_Source\PSoC5/cyPm.c ****     /* Recommended readback. */
 721:.\Generated_Source\PSoC5/cyPm.c ****     (void) CY_PM_MODE_CSR_REG;
 859              		.loc 1 721 0
 860 004a 44F29333 		movw	r3, #:lower16:1073759123
 861 004e C4F20003 		movt	r3, #:upper16:1073759123
 862 0052 1B78     		ldrb	r3, [r3, #0]
 722:.\Generated_Source\PSoC5/cyPm.c **** 
ARM GAS  C:\Users\rmcgarel\AppData\Local\Temp\ccv1YA4O.s 			page 29


 723:.\Generated_Source\PSoC5/cyPm.c ****     /* Two recommended NOPs to get into the mode. */
 724:.\Generated_Source\PSoC5/cyPm.c ****     CY_NOP;
 863              		.loc 1 724 0
 864              	@ 724 ".\Generated_Source\PSoC5\cyPm.c" 1
 865 0054 00BF     		NOP
 866              	
 867              	@ 0 "" 2
 725:.\Generated_Source\PSoC5/cyPm.c ****     CY_NOP;
 868              		.loc 1 725 0
 869              	@ 725 ".\Generated_Source\PSoC5\cyPm.c" 1
 870 0056 00BF     		NOP
 871              	
 872              	@ 0 "" 2
 726:.\Generated_Source\PSoC5/cyPm.c **** 
 727:.\Generated_Source\PSoC5/cyPm.c ****     /* Execute WFI instruction (for ARM-based devices only) */
 728:.\Generated_Source\PSoC5/cyPm.c ****     CY_PM_WFI;
 873              		.loc 1 728 0
 874              	@ 728 ".\Generated_Source\PSoC5\cyPm.c" 1
 875 0058 30BF     		WFI 
 876              	
 877              	@ 0 "" 2
 729:.\Generated_Source\PSoC5/cyPm.c **** 
 730:.\Generated_Source\PSoC5/cyPm.c ****     /* Point of return from Alternate Active Mode */
 731:.\Generated_Source\PSoC5/cyPm.c **** 
 732:.\Generated_Source\PSoC5/cyPm.c ****     #if(CY_PSOC3 || CY_PSOC5LP)
 733:.\Generated_Source\PSoC5/cyPm.c **** 
 734:.\Generated_Source\PSoC5/cyPm.c ****         /* Restore wake up configuration */
 735:.\Generated_Source\PSoC5/cyPm.c ****         CY_PM_WAKEUP_CFG0_REG = cyPmBackup.wakeupCfg0;
 736:.\Generated_Source\PSoC5/cyPm.c ****         CY_PM_WAKEUP_CFG1_REG = cyPmBackup.wakeupCfg1;
 737:.\Generated_Source\PSoC5/cyPm.c ****         CY_PM_WAKEUP_CFG2_REG = cyPmBackup.wakeupCfg2;
 738:.\Generated_Source\PSoC5/cyPm.c **** 
 739:.\Generated_Source\PSoC5/cyPm.c ****     #endif  /* (CY_PSOC3 || CY_PSOC5LP) */
 740:.\Generated_Source\PSoC5/cyPm.c **** }
 878              		.loc 1 740 0
 879              		.thumb
 880 005a 07F10807 		add	r7, r7, #8
 881 005e BD46     		mov	sp, r7
 882 0060 80BD     		pop	{r7, pc}
 883              		.cfi_endproc
 884              	.LFE2:
 885              		.size	CyPmAltAct, .-CyPmAltAct
 886 0062 00BF     		.section	.text.CyPmSleep,"ax",%progbits
 887              		.align	2
 888              		.global	CyPmSleep
 889              		.thumb
 890              		.thumb_func
 891              		.type	CyPmSleep, %function
 892              	CyPmSleep:
 893              	.LFB3:
 741:.\Generated_Source\PSoC5/cyPm.c **** 
 742:.\Generated_Source\PSoC5/cyPm.c **** 
 743:.\Generated_Source\PSoC5/cyPm.c **** /*******************************************************************************
 744:.\Generated_Source\PSoC5/cyPm.c **** * Function Name: CyPmSleep
 745:.\Generated_Source\PSoC5/cyPm.c **** ********************************************************************************
 746:.\Generated_Source\PSoC5/cyPm.c **** *
 747:.\Generated_Source\PSoC5/cyPm.c **** * Summary:
 748:.\Generated_Source\PSoC5/cyPm.c **** *  Puts the part into the Sleep state.
ARM GAS  C:\Users\rmcgarel\AppData\Local\Temp\ccv1YA4O.s 			page 30


 749:.\Generated_Source\PSoC5/cyPm.c **** *
 750:.\Generated_Source\PSoC5/cyPm.c **** *  Note Before calling this function, you must manually configure the power
 751:.\Generated_Source\PSoC5/cyPm.c **** *  mode of the source clocks for the timer that is used as wakeup timer.
 752:.\Generated_Source\PSoC5/cyPm.c **** *
 753:.\Generated_Source\PSoC5/cyPm.c **** *  Note Before calling this function, you must prepare clock tree configuration
 754:.\Generated_Source\PSoC5/cyPm.c **** *  for the low power mode by calling CyPmSaveClocks(). And restore clock
 755:.\Generated_Source\PSoC5/cyPm.c **** *  configuration after CyPmSleep() execution by calling CyPmRestoreClocks(). See
 756:.\Generated_Source\PSoC5/cyPm.c **** *  Power Management section, Clock Configuration subsection of the System
 757:.\Generated_Source\PSoC5/cyPm.c **** *  Reference Guide for more information.
 758:.\Generated_Source\PSoC5/cyPm.c **** *
 759:.\Generated_Source\PSoC5/cyPm.c **** *  PSoC 3:
 760:.\Generated_Source\PSoC5/cyPm.c **** *  Before switching to Sleep, if a wakeupTime other than NONE is specified,
 761:.\Generated_Source\PSoC5/cyPm.c **** *  then the appropriate timer state is configured as specified with the
 762:.\Generated_Source\PSoC5/cyPm.c **** *  interrupt for that timer disabled.  The wakeup source will be the combination
 763:.\Generated_Source\PSoC5/cyPm.c **** *  of the values specified in the wakeupSource and any timer specified in the
 764:.\Generated_Source\PSoC5/cyPm.c **** *  wakeupTime argument.  Once the wakeup condition is satisfied, then all saved
 765:.\Generated_Source\PSoC5/cyPm.c **** *  state is restored and the function returns in the Active state.
 766:.\Generated_Source\PSoC5/cyPm.c **** *
 767:.\Generated_Source\PSoC5/cyPm.c **** *  Note that if the wakeupTime is made with a different value, the period before
 768:.\Generated_Source\PSoC5/cyPm.c **** *  the wakeup occurs can be significantly shorter than the specified time.  If
 769:.\Generated_Source\PSoC5/cyPm.c **** *  the next call is made with the same wakeupTime value, then the wakeup will
 770:.\Generated_Source\PSoC5/cyPm.c **** *  occur the specified period after the previous wakeup occurred.
 771:.\Generated_Source\PSoC5/cyPm.c **** *
 772:.\Generated_Source\PSoC5/cyPm.c **** *  If a wakeupTime other than NONE is specified, then upon exit the state of the
 773:.\Generated_Source\PSoC5/cyPm.c **** *  specified timer will be left as specified by wakeupTime with the timer
 774:.\Generated_Source\PSoC5/cyPm.c **** *  enabled and the interrupt disabled.  If the CTW or One PPS is already
 775:.\Generated_Source\PSoC5/cyPm.c **** *  configured for wakeup, for example with the SleepTimer or RTC components,
 776:.\Generated_Source\PSoC5/cyPm.c **** *  then specify NONE for the wakeupTime and include the appropriate source for
 777:.\Generated_Source\PSoC5/cyPm.c **** *  wakeupSource.
 778:.\Generated_Source\PSoC5/cyPm.c **** *
 779:.\Generated_Source\PSoC5/cyPm.c **** *  PSoC 5:
 780:.\Generated_Source\PSoC5/cyPm.c **** *  Neither parameter to this function is used for PSoC 5. The parameters must be
 781:.\Generated_Source\PSoC5/cyPm.c **** *  set to 0 (PM_SLEEP_TIME_NONE and PM_SLEEP_SRC_NONE).  The device will go
 782:.\Generated_Source\PSoC5/cyPm.c **** *  into Sleep mode until it is woken by an interrupt from the Central Time Wheel
 783:.\Generated_Source\PSoC5/cyPm.c **** *  (CTW). The CTW must already be configured to generate an interrupt. It is
 784:.\Generated_Source\PSoC5/cyPm.c **** *  configured using the SleepTimer component.  Only the CTW can be used to wake
 785:.\Generated_Source\PSoC5/cyPm.c **** *  the device from sleep mode.  The other wakeup sources, Once per second or
 786:.\Generated_Source\PSoC5/cyPm.c **** *  Port Interrupt Controller (PICU), cannot be used reliably with PSoC 5. This
 787:.\Generated_Source\PSoC5/cyPm.c **** *  function automatically disables these interrupt sources and then restores
 788:.\Generated_Source\PSoC5/cyPm.c **** *  them after the devices is woken by the CTW.
 789:.\Generated_Source\PSoC5/cyPm.c **** *
 790:.\Generated_Source\PSoC5/cyPm.c **** *  The duration of sleep needs to be controlled so that the device doesn't wake
 791:.\Generated_Source\PSoC5/cyPm.c **** *  up too soon after going to sleep or remain asleep for too long.  Reliable
 792:.\Generated_Source\PSoC5/cyPm.c **** *  sleep times of between 1 ms and 128 ms can be supported.  This requirement is
 793:.\Generated_Source\PSoC5/cyPm.c **** *  satisfied with CTW settings of 4, 8, 16, 32, 64, 128 or 256 ms.  To control
 794:.\Generated_Source\PSoC5/cyPm.c **** *  the sleep time the CTW is reset automatically just before putting the device
 795:.\Generated_Source\PSoC5/cyPm.c **** *  to sleep.  The resulting wakeup time is half the duration programmed into the
 796:.\Generated_Source\PSoC5/cyPm.c **** *  CTW with an uncertainty of 1 ms due to the arrival time of the first ILO
 797:.\Generated_Source\PSoC5/cyPm.c **** *  clock edge. For example, the setting of 4 ms will result in a sleep time
 798:.\Generated_Source\PSoC5/cyPm.c **** *  between 1 ms and 2 ms.
 799:.\Generated_Source\PSoC5/cyPm.c **** *
 800:.\Generated_Source\PSoC5/cyPm.c **** *  PSoC 5LP:
 801:.\Generated_Source\PSoC5/cyPm.c **** *  The wakeupTime parameter is not used and the only NONE can be specified.
 802:.\Generated_Source\PSoC5/cyPm.c **** *  The wakeup time must be configured with the component, SleepTimer for CTW
 803:.\Generated_Source\PSoC5/cyPm.c **** *  intervals and RTC for 1PPS interval. The component must be configured to
 804:.\Generated_Source\PSoC5/cyPm.c **** *  generate an interrrupt.
 805:.\Generated_Source\PSoC5/cyPm.c **** *
ARM GAS  C:\Users\rmcgarel\AppData\Local\Temp\ccv1YA4O.s 			page 31


 806:.\Generated_Source\PSoC5/cyPm.c **** * Parameters:
 807:.\Generated_Source\PSoC5/cyPm.c **** *  wakeupTime:      Specifies a timer wakeup source and the frequency of that
 808:.\Generated_Source\PSoC5/cyPm.c **** *                   source. For PSoC 5 and PSoC 5LP, this parameter is ignored.
 809:.\Generated_Source\PSoC5/cyPm.c **** *
 810:.\Generated_Source\PSoC5/cyPm.c **** *           Define                      Time
 811:.\Generated_Source\PSoC5/cyPm.c **** *  PM_SLEEP_TIME_NONE               None
 812:.\Generated_Source\PSoC5/cyPm.c **** *  PM_SLEEP_TIME_ONE_PPS            One PPS: 1 second
 813:.\Generated_Source\PSoC5/cyPm.c **** *  PM_SLEEP_TIME_CTW_2MS            CTW: 2 ms
 814:.\Generated_Source\PSoC5/cyPm.c **** *  PM_SLEEP_TIME_CTW_4MS            CTW: 4 ms
 815:.\Generated_Source\PSoC5/cyPm.c **** *  PM_SLEEP_TIME_CTW_8MS            CTW: 8 ms
 816:.\Generated_Source\PSoC5/cyPm.c **** *  PM_SLEEP_TIME_CTW_16MS           CTW: 16 ms
 817:.\Generated_Source\PSoC5/cyPm.c **** *  PM_SLEEP_TIME_CTW_32MS           CTW: 32 ms
 818:.\Generated_Source\PSoC5/cyPm.c **** *  PM_SLEEP_TIME_CTW_64MS           CTW: 64 ms
 819:.\Generated_Source\PSoC5/cyPm.c **** *  PM_SLEEP_TIME_CTW_128MS          CTW: 128 ms
 820:.\Generated_Source\PSoC5/cyPm.c **** *  PM_SLEEP_TIME_CTW_256MS          CTW: 256 ms
 821:.\Generated_Source\PSoC5/cyPm.c **** *  PM_SLEEP_TIME_CTW_512MS          CTW: 512 ms
 822:.\Generated_Source\PSoC5/cyPm.c **** *  PM_SLEEP_TIME_CTW_1024MS         CTW: 1024 ms
 823:.\Generated_Source\PSoC5/cyPm.c **** *  PM_SLEEP_TIME_CTW_2048MS         CTW: 2048 ms
 824:.\Generated_Source\PSoC5/cyPm.c **** *  PM_SLEEP_TIME_CTW_4096MS         CTW: 4096 ms
 825:.\Generated_Source\PSoC5/cyPm.c **** *
 826:.\Generated_Source\PSoC5/cyPm.c **** *  wakeUpSource:    Specifies a bitwise mask of wakeup sources. In addition, if
 827:.\Generated_Source\PSoC5/cyPm.c **** *                   a wakeupTime has been specified the associated timer will be
 828:.\Generated_Source\PSoC5/cyPm.c **** *                   included as a wakeup source. For PSoC 5 this parameter is
 829:.\Generated_Source\PSoC5/cyPm.c **** *                   ignored.
 830:.\Generated_Source\PSoC5/cyPm.c **** *
 831:.\Generated_Source\PSoC5/cyPm.c **** *           Define                      Source
 832:.\Generated_Source\PSoC5/cyPm.c **** *  PM_SLEEP_SRC_NONE                None
 833:.\Generated_Source\PSoC5/cyPm.c **** *  PM_SLEEP_SRC_COMPARATOR0         Comparator 0
 834:.\Generated_Source\PSoC5/cyPm.c **** *  PM_SLEEP_SRC_COMPARATOR1         Comparator 1
 835:.\Generated_Source\PSoC5/cyPm.c **** *  PM_SLEEP_SRC_COMPARATOR2         Comparator 2
 836:.\Generated_Source\PSoC5/cyPm.c **** *  PM_SLEEP_SRC_COMPARATOR3         Comparator 3
 837:.\Generated_Source\PSoC5/cyPm.c **** *  PM_SLEEP_SRC_PICU                PICU
 838:.\Generated_Source\PSoC5/cyPm.c **** *  PM_SLEEP_SRC_I2C                 I2C
 839:.\Generated_Source\PSoC5/cyPm.c **** *  PM_SLEEP_SRC_BOOSTCONVERTER      Boost Converter
 840:.\Generated_Source\PSoC5/cyPm.c **** *  PM_SLEEP_SRC_VD                  High and Low Voltage Detection (HVI, LVI)
 841:.\Generated_Source\PSoC5/cyPm.c **** *  PM_SLEEP_SRC_CTW                 Central Timewheel*
 842:.\Generated_Source\PSoC5/cyPm.c **** *  PM_SLEEP_SRC_ONE_PPS             One PPS*
 843:.\Generated_Source\PSoC5/cyPm.c **** *  PM_SLEEP_SRC_LCD                 LCD
 844:.\Generated_Source\PSoC5/cyPm.c **** *
 845:.\Generated_Source\PSoC5/cyPm.c **** *  *Note:   CTW and One PPS wakeup signals are in the same mask bit.
 846:.\Generated_Source\PSoC5/cyPm.c **** *           For PSoC 5, these are in a different bit (value 1024).
 847:.\Generated_Source\PSoC5/cyPm.c **** *
 848:.\Generated_Source\PSoC5/cyPm.c **** *  When specifying a Comparator as the wakeupSource an instance specific define
 849:.\Generated_Source\PSoC5/cyPm.c **** *  should be used that will track with the specific comparator that the instance
 850:.\Generated_Source\PSoC5/cyPm.c **** *  is placed into. As an example for a Comparator instance named MyComp the
 851:.\Generated_Source\PSoC5/cyPm.c **** *  value to OR into the mask is: MyComp_ctComp__CMP_MASK.
 852:.\Generated_Source\PSoC5/cyPm.c **** *
 853:.\Generated_Source\PSoC5/cyPm.c **** *  When CTW or One PPS is used as a wakeup source, the CyPmReadStatus()
 854:.\Generated_Source\PSoC5/cyPm.c **** *  function must be called upon wakeup with corresponding parameter. Please
 855:.\Generated_Source\PSoC5/cyPm.c **** *  refer to the CyPmReadStatus() API in the System Reference Guide for more
 856:.\Generated_Source\PSoC5/cyPm.c **** *  information.
 857:.\Generated_Source\PSoC5/cyPm.c **** *
 858:.\Generated_Source\PSoC5/cyPm.c **** * Return:
 859:.\Generated_Source\PSoC5/cyPm.c **** *  None
 860:.\Generated_Source\PSoC5/cyPm.c **** *
 861:.\Generated_Source\PSoC5/cyPm.c **** * Reentrant:
 862:.\Generated_Source\PSoC5/cyPm.c **** *  No
ARM GAS  C:\Users\rmcgarel\AppData\Local\Temp\ccv1YA4O.s 			page 32


 863:.\Generated_Source\PSoC5/cyPm.c **** *
 864:.\Generated_Source\PSoC5/cyPm.c **** * Side Effects:
 865:.\Generated_Source\PSoC5/cyPm.c **** *  For PSoC 5 silicon the wakeup source is not selectable. In this case the
 866:.\Generated_Source\PSoC5/cyPm.c **** *  wakeupSource argument is ignored and any of the available wakeup sources will
 867:.\Generated_Source\PSoC5/cyPm.c **** *  wake the device.
 868:.\Generated_Source\PSoC5/cyPm.c **** *
 869:.\Generated_Source\PSoC5/cyPm.c **** *  If a wakeupTime other than NONE is specified, then upon exit the state of the
 870:.\Generated_Source\PSoC5/cyPm.c **** *  specified timer will be left as specified by wakeupTime with the timer
 871:.\Generated_Source\PSoC5/cyPm.c **** *  enabled and the interrupt disabled. Also, the ILO 1 KHz (if CTW timer is
 872:.\Generated_Source\PSoC5/cyPm.c **** *  used as wake up time) will be left started.
 873:.\Generated_Source\PSoC5/cyPm.c **** *
 874:.\Generated_Source\PSoC5/cyPm.c **** *  The 1 kHz ILO clock is expected to be enabled for PSoC 3 and PSoC 5LP to
 875:.\Generated_Source\PSoC5/cyPm.c **** *  measure Hibernate/Sleep regulator settling time after a reset. The holdoff
 876:.\Generated_Source\PSoC5/cyPm.c **** *  delay is measured using rising edges of the 1 kHz ILO.
 877:.\Generated_Source\PSoC5/cyPm.c **** *
 878:.\Generated_Source\PSoC5/cyPm.c **** *******************************************************************************/
 879:.\Generated_Source\PSoC5/cyPm.c **** void CyPmSleep(uint8 wakeupTime, uint16 wakeupSource) 
 880:.\Generated_Source\PSoC5/cyPm.c **** {
 894              		.loc 1 880 0
 895              		.cfi_startproc
 896              		@ args = 0, pretend = 0, frame = 16
 897              		@ frame_needed = 1, uses_anonymous_args = 0
 898 0000 80B5     		push	{r7, lr}
 899              	.LCFI8:
 900              		.cfi_def_cfa_offset 8
 901 0002 84B0     		sub	sp, sp, #16
 902              	.LCFI9:
 903              		.cfi_def_cfa_offset 24
 904 0004 00AF     		add	r7, sp, #0
 905              		.cfi_offset 14, -4
 906              		.cfi_offset 7, -8
 907              	.LCFI10:
 908              		.cfi_def_cfa_register 7
 909 0006 0246     		mov	r2, r0
 910 0008 0B46     		mov	r3, r1
 911 000a FA71     		strb	r2, [r7, #7]
 912 000c BB80     		strh	r3, [r7, #4]	@ movhi
 881:.\Generated_Source\PSoC5/cyPm.c ****     uint8 interruptState;
 882:.\Generated_Source\PSoC5/cyPm.c **** 
 883:.\Generated_Source\PSoC5/cyPm.c ****     /* Save current global interrupt enable and disable it */
 884:.\Generated_Source\PSoC5/cyPm.c ****     interruptState = CyEnterCriticalSection();
 913              		.loc 1 884 0
 914 000e FFF7FEFF 		bl	CyEnterCriticalSection
 915 0012 0346     		mov	r3, r0
 916 0014 FB73     		strb	r3, [r7, #15]
 885:.\Generated_Source\PSoC5/cyPm.c **** 
 886:.\Generated_Source\PSoC5/cyPm.c **** 
 887:.\Generated_Source\PSoC5/cyPm.c ****     #if(CY_PSOC3 || CY_PSOC5LP)
 888:.\Generated_Source\PSoC5/cyPm.c **** 
 889:.\Generated_Source\PSoC5/cyPm.c ****         /***********************************************************************
 890:.\Generated_Source\PSoC5/cyPm.c ****         * The Hibernate/Sleep regulator has a settling time after a reset.
 891:.\Generated_Source\PSoC5/cyPm.c ****         * During this time, the system ignores requests to enter Sleep and
 892:.\Generated_Source\PSoC5/cyPm.c ****         * Hibernate modes. The holdoff delay is measured using rising edges of
 893:.\Generated_Source\PSoC5/cyPm.c ****         * the 1 kHz ILO.
 894:.\Generated_Source\PSoC5/cyPm.c ****         ***********************************************************************/
 895:.\Generated_Source\PSoC5/cyPm.c ****         if(0u == (CY_PM_MODE_CSR_REG & CY_PM_MODE_CSR_PWRUP_PULSE_Q))
 896:.\Generated_Source\PSoC5/cyPm.c ****         {
ARM GAS  C:\Users\rmcgarel\AppData\Local\Temp\ccv1YA4O.s 			page 33


 897:.\Generated_Source\PSoC5/cyPm.c ****             /* Disable hold off - no action on restore */
 898:.\Generated_Source\PSoC5/cyPm.c ****             CY_PM_PWRSYS_SLP_TR_REG &= CY_PM_PWRSYS_SLP_TR_HIBSLP_HOLDOFF_MASK;
 899:.\Generated_Source\PSoC5/cyPm.c ****         }
 900:.\Generated_Source\PSoC5/cyPm.c ****         else
 901:.\Generated_Source\PSoC5/cyPm.c ****         {
 902:.\Generated_Source\PSoC5/cyPm.c ****             /* Abort, device is not ready for low power mode entry */
 903:.\Generated_Source\PSoC5/cyPm.c **** 
 904:.\Generated_Source\PSoC5/cyPm.c ****             /* Restore global interrupt enable state */
 905:.\Generated_Source\PSoC5/cyPm.c ****             CyExitCriticalSection(interruptState);
 906:.\Generated_Source\PSoC5/cyPm.c **** 
 907:.\Generated_Source\PSoC5/cyPm.c ****             return;
 908:.\Generated_Source\PSoC5/cyPm.c ****         }
 909:.\Generated_Source\PSoC5/cyPm.c **** 
 910:.\Generated_Source\PSoC5/cyPm.c ****     #endif /* (CY_PSOC3 || CY_PSOC5LP) */
 911:.\Generated_Source\PSoC5/cyPm.c **** 
 912:.\Generated_Source\PSoC5/cyPm.c **** 
 913:.\Generated_Source\PSoC5/cyPm.c ****     #if(CY_PSOC3)
 914:.\Generated_Source\PSoC5/cyPm.c **** 
 915:.\Generated_Source\PSoC5/cyPm.c ****         /* Hardware buzz expected to be disabled below for TO6 */
 916:.\Generated_Source\PSoC5/cyPm.c ****         if(CYDEV_CHIP_REV_ACTUAL < 5u)
 917:.\Generated_Source\PSoC5/cyPm.c ****         {
 918:.\Generated_Source\PSoC5/cyPm.c ****             CYASSERT(0u == (CY_PM_PWRSYS_WAKE_TR2_REG & CY_PM_PWRSYS_WAKE_TR2_EN_BUZZ));
 919:.\Generated_Source\PSoC5/cyPm.c ****         }
 920:.\Generated_Source\PSoC5/cyPm.c **** 
 921:.\Generated_Source\PSoC5/cyPm.c ****     #endif /* (CY_PSOC3) */
 922:.\Generated_Source\PSoC5/cyPm.c **** 
 923:.\Generated_Source\PSoC5/cyPm.c **** 
 924:.\Generated_Source\PSoC5/cyPm.c ****     /*******************************************************************************
 925:.\Generated_Source\PSoC5/cyPm.c ****     * For ARM-based devices, an interrupt is required for the CPU to wake up. The
 926:.\Generated_Source\PSoC5/cyPm.c ****     * Power Management implementation assumes that wakeup time is configured with a
 927:.\Generated_Source\PSoC5/cyPm.c ****     * separate component (component-based wakeup time configuration) for an
 928:.\Generated_Source\PSoC5/cyPm.c ****     * interrupt to be issued on terminal count. For more information, refer to the
 929:.\Generated_Source\PSoC5/cyPm.c ****     * Wakeup Time Configuration section of System Reference Guide.
 930:.\Generated_Source\PSoC5/cyPm.c ****     *******************************************************************************/
 931:.\Generated_Source\PSoC5/cyPm.c ****     #if(CY_PSOC5)
 932:.\Generated_Source\PSoC5/cyPm.c **** 
 933:.\Generated_Source\PSoC5/cyPm.c ****         /* Arguments expected to be 0 */
 934:.\Generated_Source\PSoC5/cyPm.c ****         CYASSERT(PM_SLEEP_TIME_NONE == wakeupTime);
 917              		.loc 1 934 0
 918 0016 FB79     		ldrb	r3, [r7, #7]	@ zero_extendqisi2
 919 0018 002B     		cmp	r3, #0
 920 001a 03D0     		beq	.L46
 921 001c 4FF00000 		mov	r0, #0
 922 0020 FFF7FEFF 		bl	CyHalt
 923              	.L46:
 935:.\Generated_Source\PSoC5/cyPm.c **** 
 936:.\Generated_Source\PSoC5/cyPm.c ****         #if(CY_PSOC5A)
 937:.\Generated_Source\PSoC5/cyPm.c **** 
 938:.\Generated_Source\PSoC5/cyPm.c ****             /* The wakeupSource argument expected to be 0 */
 939:.\Generated_Source\PSoC5/cyPm.c ****             CYASSERT(PM_SLEEP_SRC_NONE  == wakeupSource);
 924              		.loc 1 939 0
 925 0024 BB88     		ldrh	r3, [r7, #4]
 926 0026 002B     		cmp	r3, #0
 927 0028 03D0     		beq	.L47
 928 002a 4FF00000 		mov	r0, #0
 929 002e FFF7FEFF 		bl	CyHalt
 930              	.L47:
ARM GAS  C:\Users\rmcgarel\AppData\Local\Temp\ccv1YA4O.s 			page 34


 940:.\Generated_Source\PSoC5/cyPm.c **** 
 941:.\Generated_Source\PSoC5/cyPm.c ****             if(0u != wakeupSource)
 942:.\Generated_Source\PSoC5/cyPm.c ****             {
 943:.\Generated_Source\PSoC5/cyPm.c ****                 /* To remove unreferenced local variable warning */
 944:.\Generated_Source\PSoC5/cyPm.c ****             }
 945:.\Generated_Source\PSoC5/cyPm.c **** 
 946:.\Generated_Source\PSoC5/cyPm.c ****         #endif /* (CY_PSOC5A) */
 947:.\Generated_Source\PSoC5/cyPm.c **** 
 948:.\Generated_Source\PSoC5/cyPm.c ****         if(0u != wakeupTime)
 949:.\Generated_Source\PSoC5/cyPm.c ****         {
 950:.\Generated_Source\PSoC5/cyPm.c ****             /* To remove unreferenced local variable warning */
 951:.\Generated_Source\PSoC5/cyPm.c ****         }
 952:.\Generated_Source\PSoC5/cyPm.c **** 
 953:.\Generated_Source\PSoC5/cyPm.c ****     #endif /* (CY_PSOC5) */
 954:.\Generated_Source\PSoC5/cyPm.c **** 
 955:.\Generated_Source\PSoC5/cyPm.c **** 
 956:.\Generated_Source\PSoC5/cyPm.c ****     /* Prepare hardware for Sleep mode */
 957:.\Generated_Source\PSoC5/cyPm.c ****     CyPmSlpSaveSet();
 931              		.loc 1 957 0
 932 0032 FFF7FEFF 		bl	CyPmSlpSaveSet
 958:.\Generated_Source\PSoC5/cyPm.c **** 
 959:.\Generated_Source\PSoC5/cyPm.c **** 
 960:.\Generated_Source\PSoC5/cyPm.c ****     #if(CY_PSOC3)
 961:.\Generated_Source\PSoC5/cyPm.c **** 
 962:.\Generated_Source\PSoC5/cyPm.c ****         /* CTW - save current and set new configuration */
 963:.\Generated_Source\PSoC5/cyPm.c ****         if((wakeupTime >= PM_SLEEP_TIME_CTW_2MS) && (wakeupTime <= PM_SLEEP_TIME_CTW_4096MS))
 964:.\Generated_Source\PSoC5/cyPm.c ****         {
 965:.\Generated_Source\PSoC5/cyPm.c ****             /* Save current and set new configuration of the CTW */
 966:.\Generated_Source\PSoC5/cyPm.c ****             CyPmCtwSetInterval((uint8)(wakeupTime - 1u));
 967:.\Generated_Source\PSoC5/cyPm.c **** 
 968:.\Generated_Source\PSoC5/cyPm.c ****             /* Include associated timer to the wakeupSource */
 969:.\Generated_Source\PSoC5/cyPm.c ****             wakeupSource |= PM_SLEEP_SRC_CTW;
 970:.\Generated_Source\PSoC5/cyPm.c ****         }
 971:.\Generated_Source\PSoC5/cyPm.c **** 
 972:.\Generated_Source\PSoC5/cyPm.c ****         /* 1PPS - save current and set new configuration */
 973:.\Generated_Source\PSoC5/cyPm.c ****         if(PM_SLEEP_TIME_ONE_PPS == wakeupTime)
 974:.\Generated_Source\PSoC5/cyPm.c ****         {
 975:.\Generated_Source\PSoC5/cyPm.c ****             /* Save current and set new configuration of the 1PPS */
 976:.\Generated_Source\PSoC5/cyPm.c ****             CyPmOppsSet();
 977:.\Generated_Source\PSoC5/cyPm.c **** 
 978:.\Generated_Source\PSoC5/cyPm.c ****             /* Include associated timer to the wakeupSource */
 979:.\Generated_Source\PSoC5/cyPm.c ****             wakeupSource |= PM_SLEEP_SRC_ONE_PPS;
 980:.\Generated_Source\PSoC5/cyPm.c ****         }
 981:.\Generated_Source\PSoC5/cyPm.c **** 
 982:.\Generated_Source\PSoC5/cyPm.c ****     #endif /* (CY_PSOC3) */
 983:.\Generated_Source\PSoC5/cyPm.c **** 
 984:.\Generated_Source\PSoC5/cyPm.c **** 
 985:.\Generated_Source\PSoC5/cyPm.c ****     #if(!CY_PSOC5A)
 986:.\Generated_Source\PSoC5/cyPm.c **** 
 987:.\Generated_Source\PSoC5/cyPm.c ****         /* Save and set new wake up configuration */
 988:.\Generated_Source\PSoC5/cyPm.c **** 
 989:.\Generated_Source\PSoC5/cyPm.c ****         /* Interrupt, PICU, I2C, Boost converter, CTW/1PPS */
 990:.\Generated_Source\PSoC5/cyPm.c ****         cyPmBackup.wakeupCfg0 = CY_PM_WAKEUP_CFG0_REG;
 991:.\Generated_Source\PSoC5/cyPm.c ****         CY_PM_WAKEUP_CFG0_REG = (uint8) (wakeupSource >> 4u);
 992:.\Generated_Source\PSoC5/cyPm.c **** 
 993:.\Generated_Source\PSoC5/cyPm.c ****         /* Comparators */
 994:.\Generated_Source\PSoC5/cyPm.c ****         cyPmBackup.wakeupCfg1 = CY_PM_WAKEUP_CFG1_REG;
ARM GAS  C:\Users\rmcgarel\AppData\Local\Temp\ccv1YA4O.s 			page 35


 995:.\Generated_Source\PSoC5/cyPm.c ****         CY_PM_WAKEUP_CFG1_REG = (((uint8) wakeupSource) & CY_PM_WAKEUP_SRC_CMPS_MASK);
 996:.\Generated_Source\PSoC5/cyPm.c **** 
 997:.\Generated_Source\PSoC5/cyPm.c ****         /* LCD */
 998:.\Generated_Source\PSoC5/cyPm.c ****         cyPmBackup.wakeupCfg2 = CY_PM_WAKEUP_CFG2_REG;
 999:.\Generated_Source\PSoC5/cyPm.c ****         CY_PM_WAKEUP_CFG2_REG = ((uint8) ((wakeupSource >> 12u) & 0x01u));
1000:.\Generated_Source\PSoC5/cyPm.c **** 
1001:.\Generated_Source\PSoC5/cyPm.c ****     #endif /* (!CY_PSOC5A) */
1002:.\Generated_Source\PSoC5/cyPm.c **** 
1003:.\Generated_Source\PSoC5/cyPm.c **** 
1004:.\Generated_Source\PSoC5/cyPm.c ****     /*******************************************************************
1005:.\Generated_Source\PSoC5/cyPm.c ****     * Do not use merge region below unless any component datasheet
1006:.\Generated_Source\PSoC5/cyPm.c ****     * suggest to do so.
1007:.\Generated_Source\PSoC5/cyPm.c ****     *******************************************************************/
1008:.\Generated_Source\PSoC5/cyPm.c ****     /* `#START CY_PM_JUST_BEFORE_SLEEP` */
1009:.\Generated_Source\PSoC5/cyPm.c **** 
1010:.\Generated_Source\PSoC5/cyPm.c ****     /* `#END` */
1011:.\Generated_Source\PSoC5/cyPm.c **** 
1012:.\Generated_Source\PSoC5/cyPm.c **** 
1013:.\Generated_Source\PSoC5/cyPm.c ****     /* Last moment IMO frequency change */
1014:.\Generated_Source\PSoC5/cyPm.c ****     if(0u == (CY_PM_FASTCLK_IMO_CR_REG & CY_PM_FASTCLK_IMO_CR_FREQ_MASK))
 933              		.loc 1 1014 0
 934 0036 44F20023 		movw	r3, #:lower16:1073758720
 935 003a C4F20003 		movt	r3, #:upper16:1073758720
 936 003e 1B78     		ldrb	r3, [r3, #0]
 937 0040 DBB2     		uxtb	r3, r3
 938 0042 03F00703 		and	r3, r3, #7
 939 0046 002B     		cmp	r3, #0
 940 0048 08D1     		bne	.L48
1015:.\Generated_Source\PSoC5/cyPm.c ****     {
1016:.\Generated_Source\PSoC5/cyPm.c ****         /* IMO frequency is 12 MHz */
1017:.\Generated_Source\PSoC5/cyPm.c ****         cyPmBackup.imoActFreq12Mhz = CY_PM_ENABLED;
 941              		.loc 1 1017 0
 942 004a 40F20003 		movw	r3, #:lower16:cyPmBackup
 943 004e C0F20003 		movt	r3, #:upper16:cyPmBackup
 944 0052 4FF00102 		mov	r2, #1
 945 0056 83F8A420 		strb	r2, [r3, #164]
 946 005a 23E0     		b	.L49
 947              	.L48:
1018:.\Generated_Source\PSoC5/cyPm.c ****     }
1019:.\Generated_Source\PSoC5/cyPm.c ****     else
1020:.\Generated_Source\PSoC5/cyPm.c ****     {
1021:.\Generated_Source\PSoC5/cyPm.c ****         /* IMO frequency is not 12 MHz */
1022:.\Generated_Source\PSoC5/cyPm.c ****         cyPmBackup.imoActFreq12Mhz = CY_PM_DISABLED;
 948              		.loc 1 1022 0
 949 005c 40F20003 		movw	r3, #:lower16:cyPmBackup
 950 0060 C0F20003 		movt	r3, #:upper16:cyPmBackup
 951 0064 4FF00002 		mov	r2, #0
 952 0068 83F8A420 		strb	r2, [r3, #164]
1023:.\Generated_Source\PSoC5/cyPm.c **** 
1024:.\Generated_Source\PSoC5/cyPm.c ****         /* Save IMO frequency */
1025:.\Generated_Source\PSoC5/cyPm.c ****         cyPmBackup.imoActFreq = CY_PM_FASTCLK_IMO_CR_REG & CY_PM_FASTCLK_IMO_CR_FREQ_MASK;
 953              		.loc 1 1025 0
 954 006c 44F20023 		movw	r3, #:lower16:1073758720
 955 0070 C4F20003 		movt	r3, #:upper16:1073758720
 956 0074 1B78     		ldrb	r3, [r3, #0]
 957 0076 DBB2     		uxtb	r3, r3
 958 0078 1A46     		mov	r2, r3
ARM GAS  C:\Users\rmcgarel\AppData\Local\Temp\ccv1YA4O.s 			page 36


 959 007a 02F00702 		and	r2, r2, #7
 960 007e 40F20003 		movw	r3, #:lower16:cyPmBackup
 961 0082 C0F20003 		movt	r3, #:upper16:cyPmBackup
 962 0086 83F8A320 		strb	r2, [r3, #163]
1026:.\Generated_Source\PSoC5/cyPm.c **** 
1027:.\Generated_Source\PSoC5/cyPm.c ****         /* Set IMO frequency to 12 MHz */
1028:.\Generated_Source\PSoC5/cyPm.c ****         CY_PM_FASTCLK_IMO_CR_REG &= ((uint8) (~CY_PM_FASTCLK_IMO_CR_FREQ_MASK));
 963              		.loc 1 1028 0
 964 008a 44F20023 		movw	r3, #:lower16:1073758720
 965 008e C4F20003 		movt	r3, #:upper16:1073758720
 966 0092 44F20022 		movw	r2, #:lower16:1073758720
 967 0096 C4F20002 		movt	r2, #:upper16:1073758720
 968 009a 1278     		ldrb	r2, [r2, #0]
 969 009c D2B2     		uxtb	r2, r2
 970 009e 02F0F802 		and	r2, r2, #248
 971 00a2 1A70     		strb	r2, [r3, #0]
 972              	.L49:
1029:.\Generated_Source\PSoC5/cyPm.c ****     }
1030:.\Generated_Source\PSoC5/cyPm.c **** 
1031:.\Generated_Source\PSoC5/cyPm.c ****     /* Switch to the Sleep mode */
1032:.\Generated_Source\PSoC5/cyPm.c ****     CY_PM_MODE_CSR_REG = ((CY_PM_MODE_CSR_REG & ((uint8)(~CY_PM_MODE_CSR_MASK))) | CY_PM_MODE_CSR_S
 973              		.loc 1 1032 0
 974 00a4 44F29333 		movw	r3, #:lower16:1073759123
 975 00a8 C4F20003 		movt	r3, #:upper16:1073759123
 976 00ac 44F29332 		movw	r2, #:lower16:1073759123
 977 00b0 C4F20002 		movt	r2, #:upper16:1073759123
 978 00b4 1278     		ldrb	r2, [r2, #0]
 979 00b6 D2B2     		uxtb	r2, r2
 980 00b8 02F0F802 		and	r2, r2, #248
 981 00bc 42F00302 		orr	r2, r2, #3
 982 00c0 D2B2     		uxtb	r2, r2
 983 00c2 1A70     		strb	r2, [r3, #0]
1033:.\Generated_Source\PSoC5/cyPm.c **** 
1034:.\Generated_Source\PSoC5/cyPm.c ****     /* Recommended readback. */
1035:.\Generated_Source\PSoC5/cyPm.c ****     (void) CY_PM_MODE_CSR_REG;
 984              		.loc 1 1035 0
 985 00c4 44F29333 		movw	r3, #:lower16:1073759123
 986 00c8 C4F20003 		movt	r3, #:upper16:1073759123
 987 00cc 1B78     		ldrb	r3, [r3, #0]
1036:.\Generated_Source\PSoC5/cyPm.c **** 
1037:.\Generated_Source\PSoC5/cyPm.c ****     /* Two recommended NOPs to get into the mode. */
1038:.\Generated_Source\PSoC5/cyPm.c ****     CY_NOP;
 988              		.loc 1 1038 0
 989              	@ 1038 ".\Generated_Source\PSoC5\cyPm.c" 1
 990 00ce 00BF     		NOP
 991              	
 992              	@ 0 "" 2
1039:.\Generated_Source\PSoC5/cyPm.c ****     CY_NOP;
 993              		.loc 1 1039 0
 994              	@ 1039 ".\Generated_Source\PSoC5\cyPm.c" 1
 995 00d0 00BF     		NOP
 996              	
 997              	@ 0 "" 2
1040:.\Generated_Source\PSoC5/cyPm.c **** 
1041:.\Generated_Source\PSoC5/cyPm.c ****     /* Execute WFI instruction (for ARM-based devices only) */
1042:.\Generated_Source\PSoC5/cyPm.c ****     CY_PM_WFI;
 998              		.loc 1 1042 0
ARM GAS  C:\Users\rmcgarel\AppData\Local\Temp\ccv1YA4O.s 			page 37


 999              	@ 1042 ".\Generated_Source\PSoC5\cyPm.c" 1
 1000 00d2 30BF     		WFI 
 1001              	
 1002              	@ 0 "" 2
1043:.\Generated_Source\PSoC5/cyPm.c **** 
1044:.\Generated_Source\PSoC5/cyPm.c ****     /* Point of return from Sleep Mode */
1045:.\Generated_Source\PSoC5/cyPm.c **** 
1046:.\Generated_Source\PSoC5/cyPm.c ****     /* Restore last moment IMO frequency change */
1047:.\Generated_Source\PSoC5/cyPm.c ****     if(CY_PM_ENABLED != cyPmBackup.imoActFreq12Mhz)
 1003              		.loc 1 1047 0
 1004              		.thumb
 1005 00d4 40F20003 		movw	r3, #:lower16:cyPmBackup
 1006 00d8 C0F20003 		movt	r3, #:upper16:cyPmBackup
 1007 00dc 93F8A430 		ldrb	r3, [r3, #164]	@ zero_extendqisi2
 1008 00e0 012B     		cmp	r3, #1
 1009 00e2 1AD0     		beq	.L50
1048:.\Generated_Source\PSoC5/cyPm.c ****     {
1049:.\Generated_Source\PSoC5/cyPm.c ****         CY_PM_FASTCLK_IMO_CR_REG  = (CY_PM_FASTCLK_IMO_CR_REG & ((uint8)(~CY_PM_FASTCLK_IMO_CR_FREQ
 1010              		.loc 1 1049 0
 1011 00e4 44F20023 		movw	r3, #:lower16:1073758720
 1012 00e8 C4F20003 		movt	r3, #:upper16:1073758720
 1013 00ec 44F20022 		movw	r2, #:lower16:1073758720
 1014 00f0 C4F20002 		movt	r2, #:upper16:1073758720
 1015 00f4 1278     		ldrb	r2, [r2, #0]
 1016 00f6 D2B2     		uxtb	r2, r2
 1017 00f8 D2B2     		uxtb	r2, r2
 1018 00fa 02F0F802 		and	r2, r2, #248
 1019 00fe 40F20001 		movw	r1, #:lower16:cyPmBackup
 1020 0102 C0F20001 		movt	r1, #:upper16:cyPmBackup
 1021 0106 91F8A310 		ldrb	r1, [r1, #163]	@ zero_extendqisi2
 1022 010a 0846     		mov	r0, r1
 1023 010c 1146     		mov	r1, r2
 1024 010e 0246     		mov	r2, r0
 1025 0110 41EA0202 		orr	r2, r1, r2
 1026 0114 D2B2     		uxtb	r2, r2
 1027 0116 D2B2     		uxtb	r2, r2
 1028 0118 1A70     		strb	r2, [r3, #0]
 1029              	.L50:
1050:.\Generated_Source\PSoC5/cyPm.c ****                                     cyPmBackup.imoActFreq;
1051:.\Generated_Source\PSoC5/cyPm.c ****     }
1052:.\Generated_Source\PSoC5/cyPm.c **** 
1053:.\Generated_Source\PSoC5/cyPm.c **** 
1054:.\Generated_Source\PSoC5/cyPm.c ****     /*******************************************************************
1055:.\Generated_Source\PSoC5/cyPm.c ****     * Do not use merge region below unless any component datasheet
1056:.\Generated_Source\PSoC5/cyPm.c ****     * suggest to do so.
1057:.\Generated_Source\PSoC5/cyPm.c ****     *******************************************************************/
1058:.\Generated_Source\PSoC5/cyPm.c ****     /* `#START CY_PM_JUST_AFTER_WAKEUP_FROM_SLEEP` */
1059:.\Generated_Source\PSoC5/cyPm.c **** 
1060:.\Generated_Source\PSoC5/cyPm.c ****     /* `#END` */
1061:.\Generated_Source\PSoC5/cyPm.c **** 
1062:.\Generated_Source\PSoC5/cyPm.c **** 
1063:.\Generated_Source\PSoC5/cyPm.c ****     /* Restore hardware configuration */
1064:.\Generated_Source\PSoC5/cyPm.c ****     CyPmSlpRestore();
 1030              		.loc 1 1064 0
 1031 011a FFF7FEFF 		bl	CyPmSlpRestore
1065:.\Generated_Source\PSoC5/cyPm.c **** 
1066:.\Generated_Source\PSoC5/cyPm.c **** 
ARM GAS  C:\Users\rmcgarel\AppData\Local\Temp\ccv1YA4O.s 			page 38


1067:.\Generated_Source\PSoC5/cyPm.c ****     #if(!CY_PSOC5A)
1068:.\Generated_Source\PSoC5/cyPm.c **** 
1069:.\Generated_Source\PSoC5/cyPm.c ****         /* Restore current wake up configuration */
1070:.\Generated_Source\PSoC5/cyPm.c ****         CY_PM_WAKEUP_CFG0_REG = cyPmBackup.wakeupCfg0;
1071:.\Generated_Source\PSoC5/cyPm.c ****         CY_PM_WAKEUP_CFG1_REG = cyPmBackup.wakeupCfg1;
1072:.\Generated_Source\PSoC5/cyPm.c ****         CY_PM_WAKEUP_CFG2_REG = cyPmBackup.wakeupCfg2;
1073:.\Generated_Source\PSoC5/cyPm.c **** 
1074:.\Generated_Source\PSoC5/cyPm.c ****     #endif /* (!CY_PSOC5A) */
1075:.\Generated_Source\PSoC5/cyPm.c **** 
1076:.\Generated_Source\PSoC5/cyPm.c ****     /* Restore global interrupt enable state */
1077:.\Generated_Source\PSoC5/cyPm.c ****     CyExitCriticalSection(interruptState);
 1032              		.loc 1 1077 0
 1033 011e FB7B     		ldrb	r3, [r7, #15]	@ zero_extendqisi2
 1034 0120 1846     		mov	r0, r3
 1035 0122 FFF7FEFF 		bl	CyExitCriticalSection
1078:.\Generated_Source\PSoC5/cyPm.c **** }
 1036              		.loc 1 1078 0
 1037 0126 07F11007 		add	r7, r7, #16
 1038 012a BD46     		mov	sp, r7
 1039 012c 80BD     		pop	{r7, pc}
 1040              		.cfi_endproc
 1041              	.LFE3:
 1042              		.size	CyPmSleep, .-CyPmSleep
 1043 012e 00BF     		.section	.text.CyPmHibernate,"ax",%progbits
 1044              		.align	2
 1045              		.global	CyPmHibernate
 1046              		.thumb
 1047              		.thumb_func
 1048              		.type	CyPmHibernate, %function
 1049              	CyPmHibernate:
 1050              	.LFB4:
1079:.\Generated_Source\PSoC5/cyPm.c **** 
1080:.\Generated_Source\PSoC5/cyPm.c **** 
1081:.\Generated_Source\PSoC5/cyPm.c **** /*******************************************************************************
1082:.\Generated_Source\PSoC5/cyPm.c **** * Function Name: CyPmHibernate
1083:.\Generated_Source\PSoC5/cyPm.c **** ********************************************************************************
1084:.\Generated_Source\PSoC5/cyPm.c **** *
1085:.\Generated_Source\PSoC5/cyPm.c **** * Summary:
1086:.\Generated_Source\PSoC5/cyPm.c **** *  Puts the part into the Hibernate state.
1087:.\Generated_Source\PSoC5/cyPm.c **** *
1088:.\Generated_Source\PSoC5/cyPm.c **** *  PSoC 3 and PSoC 5LP:
1089:.\Generated_Source\PSoC5/cyPm.c **** *  Before switching to Hibernate, the current status of the PICU wakeup source
1090:.\Generated_Source\PSoC5/cyPm.c **** *  bit is saved and then set. This configures the device to wake up from the
1091:.\Generated_Source\PSoC5/cyPm.c **** *  PICU. Make sure you have at least one pin configured to generate a PICU
1092:.\Generated_Source\PSoC5/cyPm.c **** *  interrupt. For pin Px.y, the register "PICU_INTTYPE_PICUx_INTTYPEy" controls
1093:.\Generated_Source\PSoC5/cyPm.c **** *  the PICU behavior. In the TRM, this register is "PICU[0..15]_INTTYPE[0..7]."
1094:.\Generated_Source\PSoC5/cyPm.c **** *  In the Pins component datasheet, this register is referred to as the IRQ
1095:.\Generated_Source\PSoC5/cyPm.c **** *  option. Once the wakeup occurs, the PICU wakeup source bit is restored and
1096:.\Generated_Source\PSoC5/cyPm.c **** *  the PSoC returns to the Active state.
1097:.\Generated_Source\PSoC5/cyPm.c **** *
1098:.\Generated_Source\PSoC5/cyPm.c **** *  PSoC 5:
1099:.\Generated_Source\PSoC5/cyPm.c **** *  The only method supported for waking up from the Hibernate state is a
1100:.\Generated_Source\PSoC5/cyPm.c **** *  hardware reset of the device.  The PICU wakeup source cannot be used
1101:.\Generated_Source\PSoC5/cyPm.c **** *  reliably, so the PICU interrupt sources are automatically disabled by this
1102:.\Generated_Source\PSoC5/cyPm.c **** *  function before putting the device into the Hibernate state.
1103:.\Generated_Source\PSoC5/cyPm.c **** *
1104:.\Generated_Source\PSoC5/cyPm.c **** * Parameters:
ARM GAS  C:\Users\rmcgarel\AppData\Local\Temp\ccv1YA4O.s 			page 39


1105:.\Generated_Source\PSoC5/cyPm.c **** *  None
1106:.\Generated_Source\PSoC5/cyPm.c **** *
1107:.\Generated_Source\PSoC5/cyPm.c **** * Return:
1108:.\Generated_Source\PSoC5/cyPm.c **** *  None
1109:.\Generated_Source\PSoC5/cyPm.c **** *
1110:.\Generated_Source\PSoC5/cyPm.c **** * Reentrant:
1111:.\Generated_Source\PSoC5/cyPm.c **** *  No
1112:.\Generated_Source\PSoC5/cyPm.c **** *
1113:.\Generated_Source\PSoC5/cyPm.c **** * Side Effects:
1114:.\Generated_Source\PSoC5/cyPm.c **** *  Applications must wait 20 us before re-entering hibernate or sleep after
1115:.\Generated_Source\PSoC5/cyPm.c **** *  waking up from hibernate. The 20 us allows the sleep regulator time to
1116:.\Generated_Source\PSoC5/cyPm.c **** *  stabilize before the next hibernate / sleep event occurs. The 20 us
1117:.\Generated_Source\PSoC5/cyPm.c **** *  requirement begins when the device wakes up. There is no hardware check that
1118:.\Generated_Source\PSoC5/cyPm.c **** *  this requirement is met. The specified delay should be done on ISR entry.
1119:.\Generated_Source\PSoC5/cyPm.c **** *
1120:.\Generated_Source\PSoC5/cyPm.c **** *  After wakeup PICU interrupt occurs, the Pin_ClearInterrupt() (where Pin is
1121:.\Generated_Source\PSoC5/cyPm.c **** *  instance name of the Pins component) function must be called to clear the
1122:.\Generated_Source\PSoC5/cyPm.c **** *  latched pin events to allow proper Hibernate mode entry andd to enable
1123:.\Generated_Source\PSoC5/cyPm.c **** *  detection of future events.
1124:.\Generated_Source\PSoC5/cyPm.c **** *
1125:.\Generated_Source\PSoC5/cyPm.c **** *  The 1 kHz ILO clock is expected to be enabled for PSoC 3 and PSoC 5LP to
1126:.\Generated_Source\PSoC5/cyPm.c **** *  measure Hibernate/Sleep regulator settling time after a reset. The holdoff
1127:.\Generated_Source\PSoC5/cyPm.c **** *  delay is measured using rising edges of the 1 kHz ILO.
1128:.\Generated_Source\PSoC5/cyPm.c **** *
1129:.\Generated_Source\PSoC5/cyPm.c **** *******************************************************************************/
1130:.\Generated_Source\PSoC5/cyPm.c **** void CyPmHibernate(void) 
1131:.\Generated_Source\PSoC5/cyPm.c **** {
 1051              		.loc 1 1131 0
 1052              		.cfi_startproc
 1053              		@ args = 0, pretend = 0, frame = 8
 1054              		@ frame_needed = 1, uses_anonymous_args = 0
 1055 0000 80B5     		push	{r7, lr}
 1056              	.LCFI11:
 1057              		.cfi_def_cfa_offset 8
 1058 0002 82B0     		sub	sp, sp, #8
 1059              	.LCFI12:
 1060              		.cfi_def_cfa_offset 16
 1061 0004 00AF     		add	r7, sp, #0
 1062              		.cfi_offset 14, -4
 1063              		.cfi_offset 7, -8
 1064              	.LCFI13:
 1065              		.cfi_def_cfa_register 7
1132:.\Generated_Source\PSoC5/cyPm.c ****     uint8 interruptState;
1133:.\Generated_Source\PSoC5/cyPm.c **** 
1134:.\Generated_Source\PSoC5/cyPm.c ****     /* Save current global interrupt enable and disable it */
1135:.\Generated_Source\PSoC5/cyPm.c ****     interruptState = CyEnterCriticalSection();
 1066              		.loc 1 1135 0
 1067 0006 FFF7FEFF 		bl	CyEnterCriticalSection
 1068 000a 0346     		mov	r3, r0
 1069 000c FB71     		strb	r3, [r7, #7]
1136:.\Generated_Source\PSoC5/cyPm.c **** 
1137:.\Generated_Source\PSoC5/cyPm.c ****     #if(CY_PSOC3 || CY_PSOC5LP)
1138:.\Generated_Source\PSoC5/cyPm.c **** 
1139:.\Generated_Source\PSoC5/cyPm.c ****         /***********************************************************************
1140:.\Generated_Source\PSoC5/cyPm.c ****         * The Hibernate/Sleep regulator has a settling time after a reset.
1141:.\Generated_Source\PSoC5/cyPm.c ****         * During this time, the system ignores requests to enter Sleep and
1142:.\Generated_Source\PSoC5/cyPm.c ****         * Hibernate modes. The holdoff delay is measured using rising edges of
ARM GAS  C:\Users\rmcgarel\AppData\Local\Temp\ccv1YA4O.s 			page 40


1143:.\Generated_Source\PSoC5/cyPm.c ****         * the 1 kHz ILO.
1144:.\Generated_Source\PSoC5/cyPm.c ****         ***********************************************************************/
1145:.\Generated_Source\PSoC5/cyPm.c ****         if(0u == (CY_PM_MODE_CSR_REG & CY_PM_MODE_CSR_PWRUP_PULSE_Q))
1146:.\Generated_Source\PSoC5/cyPm.c ****         {
1147:.\Generated_Source\PSoC5/cyPm.c ****             /* Disable hold off - no action on restore */
1148:.\Generated_Source\PSoC5/cyPm.c ****             CY_PM_PWRSYS_SLP_TR_REG &= CY_PM_PWRSYS_SLP_TR_HIBSLP_HOLDOFF_MASK;
1149:.\Generated_Source\PSoC5/cyPm.c ****         }
1150:.\Generated_Source\PSoC5/cyPm.c ****         else
1151:.\Generated_Source\PSoC5/cyPm.c ****         {
1152:.\Generated_Source\PSoC5/cyPm.c ****             /* Abort, device is not ready for low power mode entry */
1153:.\Generated_Source\PSoC5/cyPm.c **** 
1154:.\Generated_Source\PSoC5/cyPm.c ****             /* Restore global interrupt enable state */
1155:.\Generated_Source\PSoC5/cyPm.c ****             CyExitCriticalSection(interruptState);
1156:.\Generated_Source\PSoC5/cyPm.c **** 
1157:.\Generated_Source\PSoC5/cyPm.c ****             return;
1158:.\Generated_Source\PSoC5/cyPm.c ****         }
1159:.\Generated_Source\PSoC5/cyPm.c **** 
1160:.\Generated_Source\PSoC5/cyPm.c ****     #endif /* (CY_PSOC3 || CY_PSOC5LP) */
1161:.\Generated_Source\PSoC5/cyPm.c **** 
1162:.\Generated_Source\PSoC5/cyPm.c ****     /* Prepare device for proper Hibernate mode entry */
1163:.\Generated_Source\PSoC5/cyPm.c ****     CyPmHibSaveSet();
 1070              		.loc 1 1163 0
 1071 000e FFF7FEFF 		bl	CyPmHibSaveSet
1164:.\Generated_Source\PSoC5/cyPm.c **** 
1165:.\Generated_Source\PSoC5/cyPm.c **** 
1166:.\Generated_Source\PSoC5/cyPm.c ****     #if(!CY_PSOC5A)
1167:.\Generated_Source\PSoC5/cyPm.c **** 
1168:.\Generated_Source\PSoC5/cyPm.c ****         /* Save and enable only wakeup on PICU */
1169:.\Generated_Source\PSoC5/cyPm.c ****         cyPmBackup.wakeupCfg0 = CY_PM_WAKEUP_CFG0_REG;
1170:.\Generated_Source\PSoC5/cyPm.c ****         CY_PM_WAKEUP_CFG0_REG = CY_PM_WAKEUP_PICU;
1171:.\Generated_Source\PSoC5/cyPm.c **** 
1172:.\Generated_Source\PSoC5/cyPm.c ****         cyPmBackup.wakeupCfg1 = CY_PM_WAKEUP_CFG1_REG;
1173:.\Generated_Source\PSoC5/cyPm.c ****         CY_PM_WAKEUP_CFG1_REG = 0x00u;
1174:.\Generated_Source\PSoC5/cyPm.c **** 
1175:.\Generated_Source\PSoC5/cyPm.c ****         cyPmBackup.wakeupCfg2 = CY_PM_WAKEUP_CFG2_REG;
1176:.\Generated_Source\PSoC5/cyPm.c ****         CY_PM_WAKEUP_CFG2_REG = 0x00u;
1177:.\Generated_Source\PSoC5/cyPm.c **** 
1178:.\Generated_Source\PSoC5/cyPm.c ****     #endif  /* (!CY_PSOC5A) */
1179:.\Generated_Source\PSoC5/cyPm.c **** 
1180:.\Generated_Source\PSoC5/cyPm.c **** 
1181:.\Generated_Source\PSoC5/cyPm.c ****     /* Last moment IMO frequency change */
1182:.\Generated_Source\PSoC5/cyPm.c ****     if(0u == (CY_PM_FASTCLK_IMO_CR_REG & CY_PM_FASTCLK_IMO_CR_FREQ_MASK))
 1072              		.loc 1 1182 0
 1073 0012 44F20023 		movw	r3, #:lower16:1073758720
 1074 0016 C4F20003 		movt	r3, #:upper16:1073758720
 1075 001a 1B78     		ldrb	r3, [r3, #0]
 1076 001c DBB2     		uxtb	r3, r3
 1077 001e 03F00703 		and	r3, r3, #7
 1078 0022 002B     		cmp	r3, #0
 1079 0024 08D1     		bne	.L53
1183:.\Generated_Source\PSoC5/cyPm.c ****     {
1184:.\Generated_Source\PSoC5/cyPm.c ****         /* IMO frequency is 12 MHz */
1185:.\Generated_Source\PSoC5/cyPm.c ****         cyPmBackup.imoActFreq12Mhz = CY_PM_ENABLED;
 1080              		.loc 1 1185 0
 1081 0026 40F20003 		movw	r3, #:lower16:cyPmBackup
 1082 002a C0F20003 		movt	r3, #:upper16:cyPmBackup
 1083 002e 4FF00102 		mov	r2, #1
ARM GAS  C:\Users\rmcgarel\AppData\Local\Temp\ccv1YA4O.s 			page 41


 1084 0032 83F8A420 		strb	r2, [r3, #164]
 1085 0036 23E0     		b	.L54
 1086              	.L53:
1186:.\Generated_Source\PSoC5/cyPm.c ****     }
1187:.\Generated_Source\PSoC5/cyPm.c ****     else
1188:.\Generated_Source\PSoC5/cyPm.c ****     {
1189:.\Generated_Source\PSoC5/cyPm.c ****         /* IMO frequency is not 12 MHz */
1190:.\Generated_Source\PSoC5/cyPm.c ****         cyPmBackup.imoActFreq12Mhz = CY_PM_DISABLED;
 1087              		.loc 1 1190 0
 1088 0038 40F20003 		movw	r3, #:lower16:cyPmBackup
 1089 003c C0F20003 		movt	r3, #:upper16:cyPmBackup
 1090 0040 4FF00002 		mov	r2, #0
 1091 0044 83F8A420 		strb	r2, [r3, #164]
1191:.\Generated_Source\PSoC5/cyPm.c **** 
1192:.\Generated_Source\PSoC5/cyPm.c ****         /* Save IMO frequency */
1193:.\Generated_Source\PSoC5/cyPm.c ****         cyPmBackup.imoActFreq = CY_PM_FASTCLK_IMO_CR_REG & CY_PM_FASTCLK_IMO_CR_FREQ_MASK;
 1092              		.loc 1 1193 0
 1093 0048 44F20023 		movw	r3, #:lower16:1073758720
 1094 004c C4F20003 		movt	r3, #:upper16:1073758720
 1095 0050 1B78     		ldrb	r3, [r3, #0]
 1096 0052 DBB2     		uxtb	r3, r3
 1097 0054 1A46     		mov	r2, r3
 1098 0056 02F00702 		and	r2, r2, #7
 1099 005a 40F20003 		movw	r3, #:lower16:cyPmBackup
 1100 005e C0F20003 		movt	r3, #:upper16:cyPmBackup
 1101 0062 83F8A320 		strb	r2, [r3, #163]
1194:.\Generated_Source\PSoC5/cyPm.c **** 
1195:.\Generated_Source\PSoC5/cyPm.c ****         /* Set IMO frequency to 12 MHz */
1196:.\Generated_Source\PSoC5/cyPm.c ****         CY_PM_FASTCLK_IMO_CR_REG &= ((uint8) (~CY_PM_FASTCLK_IMO_CR_FREQ_MASK));
 1102              		.loc 1 1196 0
 1103 0066 44F20023 		movw	r3, #:lower16:1073758720
 1104 006a C4F20003 		movt	r3, #:upper16:1073758720
 1105 006e 44F20022 		movw	r2, #:lower16:1073758720
 1106 0072 C4F20002 		movt	r2, #:upper16:1073758720
 1107 0076 1278     		ldrb	r2, [r2, #0]
 1108 0078 D2B2     		uxtb	r2, r2
 1109 007a 02F0F802 		and	r2, r2, #248
 1110 007e 1A70     		strb	r2, [r3, #0]
 1111              	.L54:
1197:.\Generated_Source\PSoC5/cyPm.c ****     }
1198:.\Generated_Source\PSoC5/cyPm.c **** 
1199:.\Generated_Source\PSoC5/cyPm.c **** 
1200:.\Generated_Source\PSoC5/cyPm.c ****     /* Switch to Hibernate Mode */
1201:.\Generated_Source\PSoC5/cyPm.c ****     CY_PM_MODE_CSR_REG = (CY_PM_MODE_CSR_REG & ((uint8) (~CY_PM_MODE_CSR_MASK))) | CY_PM_MODE_CSR_H
 1112              		.loc 1 1201 0
 1113 0080 44F29333 		movw	r3, #:lower16:1073759123
 1114 0084 C4F20003 		movt	r3, #:upper16:1073759123
 1115 0088 44F29332 		movw	r2, #:lower16:1073759123
 1116 008c C4F20002 		movt	r2, #:upper16:1073759123
 1117 0090 1278     		ldrb	r2, [r2, #0]
 1118 0092 D2B2     		uxtb	r2, r2
 1119 0094 02F0F802 		and	r2, r2, #248
 1120 0098 42F00402 		orr	r2, r2, #4
 1121 009c D2B2     		uxtb	r2, r2
 1122 009e 1A70     		strb	r2, [r3, #0]
1202:.\Generated_Source\PSoC5/cyPm.c **** 
1203:.\Generated_Source\PSoC5/cyPm.c ****     /* Recommended readback. */
ARM GAS  C:\Users\rmcgarel\AppData\Local\Temp\ccv1YA4O.s 			page 42


1204:.\Generated_Source\PSoC5/cyPm.c ****     (void) CY_PM_MODE_CSR_REG;
 1123              		.loc 1 1204 0
 1124 00a0 44F29333 		movw	r3, #:lower16:1073759123
 1125 00a4 C4F20003 		movt	r3, #:upper16:1073759123
 1126 00a8 1B78     		ldrb	r3, [r3, #0]
1205:.\Generated_Source\PSoC5/cyPm.c **** 
1206:.\Generated_Source\PSoC5/cyPm.c ****     /* Two recommended NOPs to get into the mode. */
1207:.\Generated_Source\PSoC5/cyPm.c ****     CY_NOP;
 1127              		.loc 1 1207 0
 1128              	@ 1207 ".\Generated_Source\PSoC5\cyPm.c" 1
 1129 00aa 00BF     		NOP
 1130              	
 1131              	@ 0 "" 2
1208:.\Generated_Source\PSoC5/cyPm.c ****     CY_NOP;
 1132              		.loc 1 1208 0
 1133              	@ 1208 ".\Generated_Source\PSoC5\cyPm.c" 1
 1134 00ac 00BF     		NOP
 1135              	
 1136              	@ 0 "" 2
1209:.\Generated_Source\PSoC5/cyPm.c **** 
1210:.\Generated_Source\PSoC5/cyPm.c ****     /* Execute WFI instruction (for ARM-based devices only) */
1211:.\Generated_Source\PSoC5/cyPm.c ****     CY_PM_WFI;
 1137              		.loc 1 1211 0
 1138              	@ 1211 ".\Generated_Source\PSoC5\cyPm.c" 1
 1139 00ae 30BF     		WFI 
 1140              	
 1141              	@ 0 "" 2
1212:.\Generated_Source\PSoC5/cyPm.c **** 
1213:.\Generated_Source\PSoC5/cyPm.c ****     /* Point of return from Hibernate mode */
1214:.\Generated_Source\PSoC5/cyPm.c **** 
1215:.\Generated_Source\PSoC5/cyPm.c **** 
1216:.\Generated_Source\PSoC5/cyPm.c ****     /* Restore last moment IMO frequency change */
1217:.\Generated_Source\PSoC5/cyPm.c ****     if(CY_PM_ENABLED != cyPmBackup.imoActFreq12Mhz)
 1142              		.loc 1 1217 0
 1143              		.thumb
 1144 00b0 40F20003 		movw	r3, #:lower16:cyPmBackup
 1145 00b4 C0F20003 		movt	r3, #:upper16:cyPmBackup
 1146 00b8 93F8A430 		ldrb	r3, [r3, #164]	@ zero_extendqisi2
 1147 00bc 012B     		cmp	r3, #1
 1148 00be 1AD0     		beq	.L55
1218:.\Generated_Source\PSoC5/cyPm.c ****     {
1219:.\Generated_Source\PSoC5/cyPm.c ****         CY_PM_FASTCLK_IMO_CR_REG  = (CY_PM_FASTCLK_IMO_CR_REG & ((uint8)(~CY_PM_FASTCLK_IMO_CR_FREQ
 1149              		.loc 1 1219 0
 1150 00c0 44F20023 		movw	r3, #:lower16:1073758720
 1151 00c4 C4F20003 		movt	r3, #:upper16:1073758720
 1152 00c8 44F20022 		movw	r2, #:lower16:1073758720
 1153 00cc C4F20002 		movt	r2, #:upper16:1073758720
 1154 00d0 1278     		ldrb	r2, [r2, #0]
 1155 00d2 D2B2     		uxtb	r2, r2
 1156 00d4 D2B2     		uxtb	r2, r2
 1157 00d6 02F0F802 		and	r2, r2, #248
 1158 00da 40F20001 		movw	r1, #:lower16:cyPmBackup
 1159 00de C0F20001 		movt	r1, #:upper16:cyPmBackup
 1160 00e2 91F8A310 		ldrb	r1, [r1, #163]	@ zero_extendqisi2
 1161 00e6 0846     		mov	r0, r1
 1162 00e8 1146     		mov	r1, r2
 1163 00ea 0246     		mov	r2, r0
ARM GAS  C:\Users\rmcgarel\AppData\Local\Temp\ccv1YA4O.s 			page 43


 1164 00ec 41EA0202 		orr	r2, r1, r2
 1165 00f0 D2B2     		uxtb	r2, r2
 1166 00f2 D2B2     		uxtb	r2, r2
 1167 00f4 1A70     		strb	r2, [r3, #0]
 1168              	.L55:
1220:.\Generated_Source\PSoC5/cyPm.c ****                                     cyPmBackup.imoActFreq;
1221:.\Generated_Source\PSoC5/cyPm.c ****     }
1222:.\Generated_Source\PSoC5/cyPm.c **** 
1223:.\Generated_Source\PSoC5/cyPm.c **** 
1224:.\Generated_Source\PSoC5/cyPm.c ****     /* Restore device for proper Hibernate mode exit*/
1225:.\Generated_Source\PSoC5/cyPm.c ****     CyPmHibRestore();
 1169              		.loc 1 1225 0
 1170 00f6 FFF7FEFF 		bl	CyPmHibRestore
1226:.\Generated_Source\PSoC5/cyPm.c **** 
1227:.\Generated_Source\PSoC5/cyPm.c **** 
1228:.\Generated_Source\PSoC5/cyPm.c ****     #if(!CY_PSOC5A)
1229:.\Generated_Source\PSoC5/cyPm.c **** 
1230:.\Generated_Source\PSoC5/cyPm.c ****         /* Restore current wake up configuration */
1231:.\Generated_Source\PSoC5/cyPm.c ****         CY_PM_WAKEUP_CFG0_REG = cyPmBackup.wakeupCfg0;
1232:.\Generated_Source\PSoC5/cyPm.c ****         CY_PM_WAKEUP_CFG1_REG = cyPmBackup.wakeupCfg1;
1233:.\Generated_Source\PSoC5/cyPm.c ****         CY_PM_WAKEUP_CFG2_REG = cyPmBackup.wakeupCfg2;
1234:.\Generated_Source\PSoC5/cyPm.c **** 
1235:.\Generated_Source\PSoC5/cyPm.c ****     #endif /* (!CY_PSOC5A) */
1236:.\Generated_Source\PSoC5/cyPm.c **** 
1237:.\Generated_Source\PSoC5/cyPm.c ****     /* Restore global interrupt enable state */
1238:.\Generated_Source\PSoC5/cyPm.c ****     CyExitCriticalSection(interruptState);
 1171              		.loc 1 1238 0
 1172 00fa FB79     		ldrb	r3, [r7, #7]	@ zero_extendqisi2
 1173 00fc 1846     		mov	r0, r3
 1174 00fe FFF7FEFF 		bl	CyExitCriticalSection
1239:.\Generated_Source\PSoC5/cyPm.c **** }
 1175              		.loc 1 1239 0
 1176 0102 07F10807 		add	r7, r7, #8
 1177 0106 BD46     		mov	sp, r7
 1178 0108 80BD     		pop	{r7, pc}
 1179              		.cfi_endproc
 1180              	.LFE4:
 1181              		.size	CyPmHibernate, .-CyPmHibernate
 1182 010a 00BF     		.section	.text.CyPmReadStatus,"ax",%progbits
 1183              		.align	2
 1184              		.global	CyPmReadStatus
 1185              		.thumb
 1186              		.thumb_func
 1187              		.type	CyPmReadStatus, %function
 1188              	CyPmReadStatus:
 1189              	.LFB5:
1240:.\Generated_Source\PSoC5/cyPm.c **** 
1241:.\Generated_Source\PSoC5/cyPm.c **** 
1242:.\Generated_Source\PSoC5/cyPm.c **** /*******************************************************************************
1243:.\Generated_Source\PSoC5/cyPm.c **** * Function Name: CyPmReadStatus
1244:.\Generated_Source\PSoC5/cyPm.c **** ********************************************************************************
1245:.\Generated_Source\PSoC5/cyPm.c **** *
1246:.\Generated_Source\PSoC5/cyPm.c **** * Summary:
1247:.\Generated_Source\PSoC5/cyPm.c **** *  Manages the Power Manager Interrupt Status Register.  This register has the
1248:.\Generated_Source\PSoC5/cyPm.c **** *  interrupt status for the one pulse per second, central timewheel and fast
1249:.\Generated_Source\PSoC5/cyPm.c **** *  timewheel timers.  This hardware register clears on read.  To allow for only
1250:.\Generated_Source\PSoC5/cyPm.c **** *  clearing the bits of interest and preserving the other bits, this function
ARM GAS  C:\Users\rmcgarel\AppData\Local\Temp\ccv1YA4O.s 			page 44


1251:.\Generated_Source\PSoC5/cyPm.c **** *  uses a shadow register that retains the state.  This function reads the
1252:.\Generated_Source\PSoC5/cyPm.c **** *  status register and ORs that value with the shadow register.  That is the
1253:.\Generated_Source\PSoC5/cyPm.c **** *  value that is returned.  Then the bits in the mask that are set are cleared
1254:.\Generated_Source\PSoC5/cyPm.c **** *  from this value and written back to the shadow register.
1255:.\Generated_Source\PSoC5/cyPm.c **** *
1256:.\Generated_Source\PSoC5/cyPm.c **** *  Note You must call this function within 1 ms (1 clock cycle of the ILO)
1257:.\Generated_Source\PSoC5/cyPm.c **** *  after a CTW event has occurred.
1258:.\Generated_Source\PSoC5/cyPm.c **** *
1259:.\Generated_Source\PSoC5/cyPm.c **** * Parameters:
1260:.\Generated_Source\PSoC5/cyPm.c **** *  mask: Bits in the shadow register to clear.
1261:.\Generated_Source\PSoC5/cyPm.c **** *
1262:.\Generated_Source\PSoC5/cyPm.c **** *       Define                      Source
1263:.\Generated_Source\PSoC5/cyPm.c **** *  CY_PM_FTW_INT                Fast Timewheel
1264:.\Generated_Source\PSoC5/cyPm.c **** *  CY_PM_CTW_INT                Central Timewheel
1265:.\Generated_Source\PSoC5/cyPm.c **** *  CY_PM_ONEPPS_INT             One Pulse Per Second
1266:.\Generated_Source\PSoC5/cyPm.c **** *
1267:.\Generated_Source\PSoC5/cyPm.c **** * Return:
1268:.\Generated_Source\PSoC5/cyPm.c **** *  Status.  Same bits values as the mask parameter.
1269:.\Generated_Source\PSoC5/cyPm.c **** *
1270:.\Generated_Source\PSoC5/cyPm.c **** *******************************************************************************/
1271:.\Generated_Source\PSoC5/cyPm.c **** uint8 CyPmReadStatus(uint8 mask) 
1272:.\Generated_Source\PSoC5/cyPm.c **** {
 1190              		.loc 1 1272 0
 1191              		.cfi_startproc
 1192              		@ args = 0, pretend = 0, frame = 16
 1193              		@ frame_needed = 1, uses_anonymous_args = 0
 1194 0000 80B5     		push	{r7, lr}
 1195              	.LCFI14:
 1196              		.cfi_def_cfa_offset 8
 1197 0002 84B0     		sub	sp, sp, #16
 1198              	.LCFI15:
 1199              		.cfi_def_cfa_offset 24
 1200 0004 00AF     		add	r7, sp, #0
 1201              		.cfi_offset 14, -4
 1202              		.cfi_offset 7, -8
 1203              	.LCFI16:
 1204              		.cfi_def_cfa_register 7
 1205 0006 0346     		mov	r3, r0
 1206 0008 FB71     		strb	r3, [r7, #7]
1273:.\Generated_Source\PSoC5/cyPm.c ****     static uint8 interruptStatus;
1274:.\Generated_Source\PSoC5/cyPm.c ****     uint8 interruptState;
1275:.\Generated_Source\PSoC5/cyPm.c ****     uint8 tmpStatus;
1276:.\Generated_Source\PSoC5/cyPm.c **** 
1277:.\Generated_Source\PSoC5/cyPm.c ****     /* Enter critical section */
1278:.\Generated_Source\PSoC5/cyPm.c ****     interruptState = CyEnterCriticalSection();
 1207              		.loc 1 1278 0
 1208 000a FFF7FEFF 		bl	CyEnterCriticalSection
 1209 000e 0346     		mov	r3, r0
 1210 0010 BB73     		strb	r3, [r7, #14]
1279:.\Generated_Source\PSoC5/cyPm.c **** 
1280:.\Generated_Source\PSoC5/cyPm.c ****     /* Save value of the register, copy it and clear desired bit */
1281:.\Generated_Source\PSoC5/cyPm.c ****     interruptStatus |= CY_PM_INT_SR_REG;
 1211              		.loc 1 1281 0
 1212 0012 44F29033 		movw	r3, #:lower16:1073759120
 1213 0016 C4F20003 		movt	r3, #:upper16:1073759120
 1214 001a 1B78     		ldrb	r3, [r3, #0]
 1215 001c DAB2     		uxtb	r2, r3
ARM GAS  C:\Users\rmcgarel\AppData\Local\Temp\ccv1YA4O.s 			page 45


 1216 001e 40F20003 		movw	r3, #:lower16:interruptStatus.2339
 1217 0022 C0F20003 		movt	r3, #:upper16:interruptStatus.2339
 1218 0026 1B78     		ldrb	r3, [r3, #0]	@ zero_extendqisi2
 1219 0028 42EA0303 		orr	r3, r2, r3
 1220 002c DAB2     		uxtb	r2, r3
 1221 002e 40F20003 		movw	r3, #:lower16:interruptStatus.2339
 1222 0032 C0F20003 		movt	r3, #:upper16:interruptStatus.2339
 1223 0036 1A70     		strb	r2, [r3, #0]
1282:.\Generated_Source\PSoC5/cyPm.c ****     tmpStatus = interruptStatus;
 1224              		.loc 1 1282 0
 1225 0038 40F20003 		movw	r3, #:lower16:interruptStatus.2339
 1226 003c C0F20003 		movt	r3, #:upper16:interruptStatus.2339
 1227 0040 1B78     		ldrb	r3, [r3, #0]
 1228 0042 FB73     		strb	r3, [r7, #15]
1283:.\Generated_Source\PSoC5/cyPm.c ****     interruptStatus &= ((uint8)(~mask));
 1229              		.loc 1 1283 0
 1230 0044 FB79     		ldrb	r3, [r7, #7]
 1231 0046 6FEA0303 		mvn	r3, r3
 1232 004a DAB2     		uxtb	r2, r3
 1233 004c 40F20003 		movw	r3, #:lower16:interruptStatus.2339
 1234 0050 C0F20003 		movt	r3, #:upper16:interruptStatus.2339
 1235 0054 1B78     		ldrb	r3, [r3, #0]	@ zero_extendqisi2
 1236 0056 02EA0303 		and	r3, r2, r3
 1237 005a DAB2     		uxtb	r2, r3
 1238 005c 40F20003 		movw	r3, #:lower16:interruptStatus.2339
 1239 0060 C0F20003 		movt	r3, #:upper16:interruptStatus.2339
 1240 0064 1A70     		strb	r2, [r3, #0]
1284:.\Generated_Source\PSoC5/cyPm.c **** 
1285:.\Generated_Source\PSoC5/cyPm.c ****     /* Exit critical section */
1286:.\Generated_Source\PSoC5/cyPm.c ****     CyExitCriticalSection(interruptState);
 1241              		.loc 1 1286 0
 1242 0066 BB7B     		ldrb	r3, [r7, #14]	@ zero_extendqisi2
 1243 0068 1846     		mov	r0, r3
 1244 006a FFF7FEFF 		bl	CyExitCriticalSection
1287:.\Generated_Source\PSoC5/cyPm.c **** 
1288:.\Generated_Source\PSoC5/cyPm.c ****     return(tmpStatus);
 1245              		.loc 1 1288 0
 1246 006e FB7B     		ldrb	r3, [r7, #15]	@ zero_extendqisi2
1289:.\Generated_Source\PSoC5/cyPm.c **** }
 1247              		.loc 1 1289 0
 1248 0070 1846     		mov	r0, r3
 1249 0072 07F11007 		add	r7, r7, #16
 1250 0076 BD46     		mov	sp, r7
 1251 0078 80BD     		pop	{r7, pc}
 1252              		.cfi_endproc
 1253              	.LFE5:
 1254              		.size	CyPmReadStatus, .-CyPmReadStatus
 1255 007a 00BF     		.section	.text.CyPmHibSaveSet,"ax",%progbits
 1256              		.align	2
 1257              		.thumb
 1258              		.thumb_func
 1259              		.type	CyPmHibSaveSet, %function
 1260              	CyPmHibSaveSet:
 1261              	.LFB6:
1290:.\Generated_Source\PSoC5/cyPm.c **** 
1291:.\Generated_Source\PSoC5/cyPm.c **** 
1292:.\Generated_Source\PSoC5/cyPm.c **** /*******************************************************************************
ARM GAS  C:\Users\rmcgarel\AppData\Local\Temp\ccv1YA4O.s 			page 46


1293:.\Generated_Source\PSoC5/cyPm.c **** * Function Name: CyPmHibSaveSet
1294:.\Generated_Source\PSoC5/cyPm.c **** ********************************************************************************
1295:.\Generated_Source\PSoC5/cyPm.c **** *
1296:.\Generated_Source\PSoC5/cyPm.c **** * Summary:
1297:.\Generated_Source\PSoC5/cyPm.c **** *  Prepare device for proper Hibernate low power mode entry:
1298:.\Generated_Source\PSoC5/cyPm.c **** *  - Disables I2C backup regulator
1299:.\Generated_Source\PSoC5/cyPm.c **** *  - Save state of I2C backup regulator (PSoC 5)
1300:.\Generated_Source\PSoC5/cyPm.c **** *  - Saves ILO power down mode state and enable it (all but PSoC 5)
1301:.\Generated_Source\PSoC5/cyPm.c **** *  - Saves state of 1 kHz and 100 kHz ILO and disable them (all but PSoC 5)
1302:.\Generated_Source\PSoC5/cyPm.c **** *  - Disables sleep regulator and shorts vccd to vpwrsleep (all but PSoC 5)
1303:.\Generated_Source\PSoC5/cyPm.c **** *  - Save LVI/HVI configuration and disable them - CyPmHviLviSaveDisable()
1304:.\Generated_Source\PSoC5/cyPm.c **** *  - CyPmHibSlpSaveSet() function is called
1305:.\Generated_Source\PSoC5/cyPm.c **** *
1306:.\Generated_Source\PSoC5/cyPm.c **** * Parameters:
1307:.\Generated_Source\PSoC5/cyPm.c **** *  None
1308:.\Generated_Source\PSoC5/cyPm.c **** *
1309:.\Generated_Source\PSoC5/cyPm.c **** * Return:
1310:.\Generated_Source\PSoC5/cyPm.c **** *  None
1311:.\Generated_Source\PSoC5/cyPm.c **** *
1312:.\Generated_Source\PSoC5/cyPm.c **** * Reentrant:
1313:.\Generated_Source\PSoC5/cyPm.c **** *  No
1314:.\Generated_Source\PSoC5/cyPm.c **** *
1315:.\Generated_Source\PSoC5/cyPm.c **** *******************************************************************************/
1316:.\Generated_Source\PSoC5/cyPm.c **** static void CyPmHibSaveSet(void) 
1317:.\Generated_Source\PSoC5/cyPm.c **** {
 1262              		.loc 1 1317 0
 1263              		.cfi_startproc
 1264              		@ args = 0, pretend = 0, frame = 0
 1265              		@ frame_needed = 1, uses_anonymous_args = 0
 1266 0000 80B5     		push	{r7, lr}
 1267              	.LCFI17:
 1268              		.cfi_def_cfa_offset 8
 1269 0002 00AF     		add	r7, sp, #0
 1270              		.cfi_offset 14, -4
 1271              		.cfi_offset 7, -8
 1272              	.LCFI18:
 1273              		.cfi_def_cfa_register 7
1318:.\Generated_Source\PSoC5/cyPm.c ****     /* I2C backup reg must be off when the sleep regulator is unavailable */
1319:.\Generated_Source\PSoC5/cyPm.c ****     if(0u != (CY_PM_PWRSYS_CR1_REG & CY_PM_PWRSYS_CR1_I2CREG_BACKUP))
 1274              		.loc 1 1319 0
 1275 0004 44F23133 		movw	r3, #:lower16:1073759025
 1276 0008 C4F20003 		movt	r3, #:upper16:1073759025
 1277 000c 1B78     		ldrb	r3, [r3, #0]
 1278 000e DBB2     		uxtb	r3, r3
 1279 0010 03F00403 		and	r3, r3, #4
 1280 0014 002B     		cmp	r3, #0
 1281 0016 14D0     		beq	.L60
1320:.\Generated_Source\PSoC5/cyPm.c ****     {
1321:.\Generated_Source\PSoC5/cyPm.c ****         /***********************************************************************
1322:.\Generated_Source\PSoC5/cyPm.c ****         * If I2C backup regulator is enabled, all the fixed-function registers
1323:.\Generated_Source\PSoC5/cyPm.c ****         * store their values while device is in low power mode, otherwise their
1324:.\Generated_Source\PSoC5/cyPm.c ****         * configuration is lost. The I2C API makes a decision to restore or not
1325:.\Generated_Source\PSoC5/cyPm.c ****         * to restore I2C registers based on this. If this regulator will be
1326:.\Generated_Source\PSoC5/cyPm.c ****         * disabled and then enabled, I2C API will suppose that I2C block
1327:.\Generated_Source\PSoC5/cyPm.c ****         * registers preserved their values, while this is not true. So, the
1328:.\Generated_Source\PSoC5/cyPm.c ****         * backup regulator is disabled. And its value is restored only for
1329:.\Generated_Source\PSoC5/cyPm.c ****         * and PSoC 5 devices. The I2C sleep APIs is responsible for restoration.
ARM GAS  C:\Users\rmcgarel\AppData\Local\Temp\ccv1YA4O.s 			page 47


1330:.\Generated_Source\PSoC5/cyPm.c ****         ***********************************************************************/
1331:.\Generated_Source\PSoC5/cyPm.c **** 
1332:.\Generated_Source\PSoC5/cyPm.c ****         #if(CY_PSOC5A)
1333:.\Generated_Source\PSoC5/cyPm.c **** 
1334:.\Generated_Source\PSoC5/cyPm.c ****             cyPmBackup.i2cRegBackup = CY_PM_ENABLED;
 1282              		.loc 1 1334 0
 1283 0018 40F20003 		movw	r3, #:lower16:cyPmBackup
 1284 001c C0F20003 		movt	r3, #:upper16:cyPmBackup
 1285 0020 4FF00102 		mov	r2, #1
 1286 0024 1A70     		strb	r2, [r3, #0]
1335:.\Generated_Source\PSoC5/cyPm.c **** 
1336:.\Generated_Source\PSoC5/cyPm.c ****         #endif /* (CY_PSOC5A) */
1337:.\Generated_Source\PSoC5/cyPm.c **** 
1338:.\Generated_Source\PSoC5/cyPm.c ****         /* Disable I2C backup register */
1339:.\Generated_Source\PSoC5/cyPm.c ****         CY_PM_PWRSYS_CR1_REG &= ((uint8)(~CY_PM_PWRSYS_CR1_I2CREG_BACKUP));
 1287              		.loc 1 1339 0
 1288 0026 44F23133 		movw	r3, #:lower16:1073759025
 1289 002a C4F20003 		movt	r3, #:upper16:1073759025
 1290 002e 44F23132 		movw	r2, #:lower16:1073759025
 1291 0032 C4F20002 		movt	r2, #:upper16:1073759025
 1292 0036 1278     		ldrb	r2, [r2, #0]
 1293 0038 D2B2     		uxtb	r2, r2
 1294 003a 02F0FB02 		and	r2, r2, #251
 1295 003e 1A70     		strb	r2, [r3, #0]
 1296 0040 06E0     		b	.L61
 1297              	.L60:
1340:.\Generated_Source\PSoC5/cyPm.c ****     }
1341:.\Generated_Source\PSoC5/cyPm.c ****     else
1342:.\Generated_Source\PSoC5/cyPm.c ****     {
1343:.\Generated_Source\PSoC5/cyPm.c ****         #if(CY_PSOC5A)
1344:.\Generated_Source\PSoC5/cyPm.c **** 
1345:.\Generated_Source\PSoC5/cyPm.c ****             /* Save disabled state of the I2C backup regulator */
1346:.\Generated_Source\PSoC5/cyPm.c ****             cyPmBackup.i2cRegBackup = CY_PM_DISABLED;
 1298              		.loc 1 1346 0
 1299 0042 40F20003 		movw	r3, #:lower16:cyPmBackup
 1300 0046 C0F20003 		movt	r3, #:upper16:cyPmBackup
 1301 004a 4FF00002 		mov	r2, #0
 1302 004e 1A70     		strb	r2, [r3, #0]
 1303              	.L61:
1347:.\Generated_Source\PSoC5/cyPm.c **** 
1348:.\Generated_Source\PSoC5/cyPm.c ****         #endif /* (CY_PSOC5A) */
1349:.\Generated_Source\PSoC5/cyPm.c ****     }
1350:.\Generated_Source\PSoC5/cyPm.c **** 
1351:.\Generated_Source\PSoC5/cyPm.c **** 
1352:.\Generated_Source\PSoC5/cyPm.c ****     #if(!CY_PSOC5A)
1353:.\Generated_Source\PSoC5/cyPm.c **** 
1354:.\Generated_Source\PSoC5/cyPm.c ****         /* Save current ILO power mode and ensure low power mode */
1355:.\Generated_Source\PSoC5/cyPm.c ****         cyPmBackup.iloPowerMode = CyILO_SetPowerMode(CY_PM_POWERDOWN_MODE);
1356:.\Generated_Source\PSoC5/cyPm.c **** 
1357:.\Generated_Source\PSoC5/cyPm.c ****         /* Save current 1kHz ILO enable state. Disabled automatically. */
1358:.\Generated_Source\PSoC5/cyPm.c ****         cyPmBackup.ilo1kEnable = (0u == (CY_PM_SLOWCLK_ILO_CR0_REG & CY_PM_ILO_CR0_EN_1K)) ?
1359:.\Generated_Source\PSoC5/cyPm.c ****                                     CY_PM_DISABLED : CY_PM_ENABLED;
1360:.\Generated_Source\PSoC5/cyPm.c **** 
1361:.\Generated_Source\PSoC5/cyPm.c ****         /* Save current 100kHz ILO enable state. Disabled automatically. */
1362:.\Generated_Source\PSoC5/cyPm.c ****         cyPmBackup.ilo100kEnable = (0u == (CY_PM_SLOWCLK_ILO_CR0_REG & CY_PM_ILO_CR0_EN_100K)) ?
1363:.\Generated_Source\PSoC5/cyPm.c ****                                     CY_PM_DISABLED : CY_PM_ENABLED;
1364:.\Generated_Source\PSoC5/cyPm.c **** 
ARM GAS  C:\Users\rmcgarel\AppData\Local\Temp\ccv1YA4O.s 			page 48


1365:.\Generated_Source\PSoC5/cyPm.c **** 
1366:.\Generated_Source\PSoC5/cyPm.c ****         /* Disable the sleep regulator and shorts vccd to vpwrsleep */
1367:.\Generated_Source\PSoC5/cyPm.c ****         if(0u == (CY_PM_PWRSYS_SLP_TR_REG & CY_PM_PWRSYS_SLP_TR_BYPASS))
1368:.\Generated_Source\PSoC5/cyPm.c ****         {
1369:.\Generated_Source\PSoC5/cyPm.c ****             /* Save current bypass state */
1370:.\Generated_Source\PSoC5/cyPm.c ****             cyPmBackup.slpTrBypass = CY_PM_DISABLED;
1371:.\Generated_Source\PSoC5/cyPm.c ****             CY_PM_PWRSYS_SLP_TR_REG |= CY_PM_PWRSYS_SLP_TR_BYPASS;
1372:.\Generated_Source\PSoC5/cyPm.c ****         }
1373:.\Generated_Source\PSoC5/cyPm.c ****         else
1374:.\Generated_Source\PSoC5/cyPm.c ****         {
1375:.\Generated_Source\PSoC5/cyPm.c ****             cyPmBackup.slpTrBypass = CY_PM_ENABLED;
1376:.\Generated_Source\PSoC5/cyPm.c ****         }
1377:.\Generated_Source\PSoC5/cyPm.c **** 
1378:.\Generated_Source\PSoC5/cyPm.c ****         /* LPCOMPs are always enabled (even when BOTH ext_vccd=1 and ext_vcca=1)*/
1379:.\Generated_Source\PSoC5/cyPm.c **** 
1380:.\Generated_Source\PSoC5/cyPm.c ****     #endif /* (!CY_PSOC5A) */
1381:.\Generated_Source\PSoC5/cyPm.c **** 
1382:.\Generated_Source\PSoC5/cyPm.c **** 
1383:.\Generated_Source\PSoC5/cyPm.c ****     /* Device is PSoC 5 and the revision is ES1 or earlier. */
1384:.\Generated_Source\PSoC5/cyPm.c ****     #if(CY_PSOC5A)
1385:.\Generated_Source\PSoC5/cyPm.c **** 
1386:.\Generated_Source\PSoC5/cyPm.c ****         /* Disable all the PICU interrupts */
1387:.\Generated_Source\PSoC5/cyPm.c ****         CyPmDisablePicuInterrupts();
 1304              		.loc 1 1387 0
 1305 0050 FFF7FEFF 		bl	CyPmDisablePicuInterrupts
1388:.\Generated_Source\PSoC5/cyPm.c **** 
1389:.\Generated_Source\PSoC5/cyPm.c ****     #endif  /* (CY_PSOC5A) */
1390:.\Generated_Source\PSoC5/cyPm.c **** 
1391:.\Generated_Source\PSoC5/cyPm.c **** 
1392:.\Generated_Source\PSoC5/cyPm.c ****     /***************************************************************************
1393:.\Generated_Source\PSoC5/cyPm.c ****     * LVI/HVI must be disabled in Hibernate
1394:.\Generated_Source\PSoC5/cyPm.c ****     ***************************************************************************/
1395:.\Generated_Source\PSoC5/cyPm.c **** 
1396:.\Generated_Source\PSoC5/cyPm.c ****     /* Save LVI/HVI configuration and disable them */
1397:.\Generated_Source\PSoC5/cyPm.c ****     CyPmHviLviSaveDisable();
 1306              		.loc 1 1397 0
 1307 0054 FFF7FEFF 		bl	CyPmHviLviSaveDisable
1398:.\Generated_Source\PSoC5/cyPm.c **** 
1399:.\Generated_Source\PSoC5/cyPm.c **** 
1400:.\Generated_Source\PSoC5/cyPm.c ****     /* Make the same preparations for Hibernate and Sleep modes */
1401:.\Generated_Source\PSoC5/cyPm.c ****     CyPmHibSlpSaveSet();
 1308              		.loc 1 1401 0
 1309 0058 FFF7FEFF 		bl	CyPmHibSlpSaveSet
1402:.\Generated_Source\PSoC5/cyPm.c **** }
 1310              		.loc 1 1402 0
 1311 005c 80BD     		pop	{r7, pc}
 1312              		.cfi_endproc
 1313              	.LFE6:
 1314              		.size	CyPmHibSaveSet, .-CyPmHibSaveSet
 1315 005e 00BF     		.section	.text.CyPmHibRestore,"ax",%progbits
 1316              		.align	2
 1317              		.thumb
 1318              		.thumb_func
 1319              		.type	CyPmHibRestore, %function
 1320              	CyPmHibRestore:
 1321              	.LFB7:
1403:.\Generated_Source\PSoC5/cyPm.c **** 
ARM GAS  C:\Users\rmcgarel\AppData\Local\Temp\ccv1YA4O.s 			page 49


1404:.\Generated_Source\PSoC5/cyPm.c **** 
1405:.\Generated_Source\PSoC5/cyPm.c **** /*******************************************************************************
1406:.\Generated_Source\PSoC5/cyPm.c **** * Function Name: CyPmHibRestore
1407:.\Generated_Source\PSoC5/cyPm.c **** ********************************************************************************
1408:.\Generated_Source\PSoC5/cyPm.c **** *
1409:.\Generated_Source\PSoC5/cyPm.c **** * Summary:
1410:.\Generated_Source\PSoC5/cyPm.c **** *  Restore device for proper Hibernate mode exit:
1411:.\Generated_Source\PSoC5/cyPm.c **** *  - Restore LVI/HVI configuration - call CyPmHviLviRestore()
1412:.\Generated_Source\PSoC5/cyPm.c **** *  - CyPmHibSlpSaveRestore() function is called
1413:.\Generated_Source\PSoC5/cyPm.c **** *  - Restores state of I2C backup regulator (PSoC 5)
1414:.\Generated_Source\PSoC5/cyPm.c **** *  - Restores ILO power down mode state and enable it (all but PSoC 5)
1415:.\Generated_Source\PSoC5/cyPm.c **** *  - Restores state of 1 kHz and 100 kHz ILO and disable them (all but PSoC 5)
1416:.\Generated_Source\PSoC5/cyPm.c **** *  - Restores sleep regulator settings (all but PSoC 5)
1417:.\Generated_Source\PSoC5/cyPm.c **** *
1418:.\Generated_Source\PSoC5/cyPm.c **** * Parameters:
1419:.\Generated_Source\PSoC5/cyPm.c **** *  None
1420:.\Generated_Source\PSoC5/cyPm.c **** *
1421:.\Generated_Source\PSoC5/cyPm.c **** * Return:
1422:.\Generated_Source\PSoC5/cyPm.c **** *  None
1423:.\Generated_Source\PSoC5/cyPm.c **** *
1424:.\Generated_Source\PSoC5/cyPm.c **** *******************************************************************************/
1425:.\Generated_Source\PSoC5/cyPm.c **** static void CyPmHibRestore(void) 
1426:.\Generated_Source\PSoC5/cyPm.c **** {
 1322              		.loc 1 1426 0
 1323              		.cfi_startproc
 1324              		@ args = 0, pretend = 0, frame = 0
 1325              		@ frame_needed = 1, uses_anonymous_args = 0
 1326 0000 80B5     		push	{r7, lr}
 1327              	.LCFI19:
 1328              		.cfi_def_cfa_offset 8
 1329 0002 00AF     		add	r7, sp, #0
 1330              		.cfi_offset 14, -4
 1331              		.cfi_offset 7, -8
 1332              	.LCFI20:
 1333              		.cfi_def_cfa_register 7
1427:.\Generated_Source\PSoC5/cyPm.c ****     /* Restore LVI/HVI configuration */
1428:.\Generated_Source\PSoC5/cyPm.c ****     CyPmHviLviRestore();
 1334              		.loc 1 1428 0
 1335 0004 FFF7FEFF 		bl	CyPmHviLviRestore
1429:.\Generated_Source\PSoC5/cyPm.c **** 
1430:.\Generated_Source\PSoC5/cyPm.c ****     /* Restore the same configuration for Hibernate and Sleep modes */
1431:.\Generated_Source\PSoC5/cyPm.c ****     CyPmHibSlpRestore();
 1336              		.loc 1 1431 0
 1337 0008 FFF7FEFF 		bl	CyPmHibSlpRestore
1432:.\Generated_Source\PSoC5/cyPm.c **** 
1433:.\Generated_Source\PSoC5/cyPm.c ****     #if(CY_PSOC5A)
1434:.\Generated_Source\PSoC5/cyPm.c **** 
1435:.\Generated_Source\PSoC5/cyPm.c ****         /* Restore I2C backup regulator configuration */
1436:.\Generated_Source\PSoC5/cyPm.c ****         if(CY_PM_ENABLED == cyPmBackup.i2cRegBackup)
 1338              		.loc 1 1436 0
 1339 000c 40F20003 		movw	r3, #:lower16:cyPmBackup
 1340 0010 C0F20003 		movt	r3, #:upper16:cyPmBackup
 1341 0014 1B78     		ldrb	r3, [r3, #0]	@ zero_extendqisi2
 1342 0016 012B     		cmp	r3, #1
 1343 0018 0DD1     		bne	.L65
1437:.\Generated_Source\PSoC5/cyPm.c ****         {
1438:.\Generated_Source\PSoC5/cyPm.c ****             /* Enable I2C backup regulator state */
ARM GAS  C:\Users\rmcgarel\AppData\Local\Temp\ccv1YA4O.s 			page 50


1439:.\Generated_Source\PSoC5/cyPm.c ****             CY_PM_PWRSYS_CR1_REG |= CY_PM_PWRSYS_CR1_I2CREG_BACKUP;
 1344              		.loc 1 1439 0
 1345 001a 44F23133 		movw	r3, #:lower16:1073759025
 1346 001e C4F20003 		movt	r3, #:upper16:1073759025
 1347 0022 44F23132 		movw	r2, #:lower16:1073759025
 1348 0026 C4F20002 		movt	r2, #:upper16:1073759025
 1349 002a 1278     		ldrb	r2, [r2, #0]
 1350 002c D2B2     		uxtb	r2, r2
 1351 002e 42F00402 		orr	r2, r2, #4
 1352 0032 D2B2     		uxtb	r2, r2
 1353 0034 1A70     		strb	r2, [r3, #0]
 1354              	.L65:
1440:.\Generated_Source\PSoC5/cyPm.c ****         }
1441:.\Generated_Source\PSoC5/cyPm.c **** 
1442:.\Generated_Source\PSoC5/cyPm.c ****     #endif /* (CY_PSOC5A) */
1443:.\Generated_Source\PSoC5/cyPm.c **** 
1444:.\Generated_Source\PSoC5/cyPm.c **** 
1445:.\Generated_Source\PSoC5/cyPm.c ****     #if(!CY_PSOC5A)
1446:.\Generated_Source\PSoC5/cyPm.c **** 
1447:.\Generated_Source\PSoC5/cyPm.c ****         /* Restore 1kHz ILO enable state */
1448:.\Generated_Source\PSoC5/cyPm.c ****         if(CY_PM_ENABLED == cyPmBackup.ilo1kEnable)
1449:.\Generated_Source\PSoC5/cyPm.c ****         {
1450:.\Generated_Source\PSoC5/cyPm.c ****             /* Enable 1kHz ILO */
1451:.\Generated_Source\PSoC5/cyPm.c ****             CyILO_Start1K();
1452:.\Generated_Source\PSoC5/cyPm.c ****         }
1453:.\Generated_Source\PSoC5/cyPm.c **** 
1454:.\Generated_Source\PSoC5/cyPm.c ****         /* Restore 100kHz ILO enable state */
1455:.\Generated_Source\PSoC5/cyPm.c ****         if(CY_PM_ENABLED == cyPmBackup.ilo100kEnable)
1456:.\Generated_Source\PSoC5/cyPm.c ****         {
1457:.\Generated_Source\PSoC5/cyPm.c ****             /* Enable 100kHz ILO */
1458:.\Generated_Source\PSoC5/cyPm.c ****             CyILO_Start100K();
1459:.\Generated_Source\PSoC5/cyPm.c ****         }
1460:.\Generated_Source\PSoC5/cyPm.c **** 
1461:.\Generated_Source\PSoC5/cyPm.c ****         /* Restore ILO power mode */
1462:.\Generated_Source\PSoC5/cyPm.c ****         (void) CyILO_SetPowerMode(cyPmBackup.iloPowerMode);
1463:.\Generated_Source\PSoC5/cyPm.c **** 
1464:.\Generated_Source\PSoC5/cyPm.c **** 
1465:.\Generated_Source\PSoC5/cyPm.c ****         if(CY_PM_DISABLED == cyPmBackup.slpTrBypass)
1466:.\Generated_Source\PSoC5/cyPm.c ****         {
1467:.\Generated_Source\PSoC5/cyPm.c ****             /* Enable the sleep regulator */
1468:.\Generated_Source\PSoC5/cyPm.c ****             CY_PM_PWRSYS_SLP_TR_REG &= ((uint8)(~CY_PM_PWRSYS_SLP_TR_BYPASS));
1469:.\Generated_Source\PSoC5/cyPm.c ****         }
1470:.\Generated_Source\PSoC5/cyPm.c **** 
1471:.\Generated_Source\PSoC5/cyPm.c ****     #endif /* (!CY_PSOC5A) */
1472:.\Generated_Source\PSoC5/cyPm.c **** }
 1355              		.loc 1 1472 0
 1356 0036 80BD     		pop	{r7, pc}
 1357              		.cfi_endproc
 1358              	.LFE7:
 1359              		.size	CyPmHibRestore, .-CyPmHibRestore
 1360              		.section	.text.CyPmCtwSetInterval,"ax",%progbits
 1361              		.align	2
 1362              		.global	CyPmCtwSetInterval
 1363              		.thumb
 1364              		.thumb_func
 1365              		.type	CyPmCtwSetInterval, %function
 1366              	CyPmCtwSetInterval:
ARM GAS  C:\Users\rmcgarel\AppData\Local\Temp\ccv1YA4O.s 			page 51


 1367              	.LFB8:
1473:.\Generated_Source\PSoC5/cyPm.c **** 
1474:.\Generated_Source\PSoC5/cyPm.c **** 
1475:.\Generated_Source\PSoC5/cyPm.c **** /*******************************************************************************
1476:.\Generated_Source\PSoC5/cyPm.c **** * Function Name: CyPmCtwSetInterval
1477:.\Generated_Source\PSoC5/cyPm.c **** ********************************************************************************
1478:.\Generated_Source\PSoC5/cyPm.c **** *
1479:.\Generated_Source\PSoC5/cyPm.c **** * Summary:
1480:.\Generated_Source\PSoC5/cyPm.c **** *  Performs CTW configuration:
1481:.\Generated_Source\PSoC5/cyPm.c **** *  - Disables CTW interrupt
1482:.\Generated_Source\PSoC5/cyPm.c **** *  - Enables 1 kHz ILO
1483:.\Generated_Source\PSoC5/cyPm.c **** *  - Sets new CTW interval
1484:.\Generated_Source\PSoC5/cyPm.c **** *
1485:.\Generated_Source\PSoC5/cyPm.c **** * Parameters:
1486:.\Generated_Source\PSoC5/cyPm.c **** *  ctwInterval: the CTW interval to be set.
1487:.\Generated_Source\PSoC5/cyPm.c **** *
1488:.\Generated_Source\PSoC5/cyPm.c **** * Return:
1489:.\Generated_Source\PSoC5/cyPm.c **** *  None
1490:.\Generated_Source\PSoC5/cyPm.c **** *
1491:.\Generated_Source\PSoC5/cyPm.c **** * Side Effects:
1492:.\Generated_Source\PSoC5/cyPm.c **** *  Enables ILO 1 KHz clock and leaves it enabled.
1493:.\Generated_Source\PSoC5/cyPm.c **** *
1494:.\Generated_Source\PSoC5/cyPm.c **** *******************************************************************************/
1495:.\Generated_Source\PSoC5/cyPm.c **** void CyPmCtwSetInterval(uint8 ctwInterval) 
1496:.\Generated_Source\PSoC5/cyPm.c **** {
 1368              		.loc 1 1496 0
 1369              		.cfi_startproc
 1370              		@ args = 0, pretend = 0, frame = 8
 1371              		@ frame_needed = 1, uses_anonymous_args = 0
 1372 0000 80B5     		push	{r7, lr}
 1373              	.LCFI21:
 1374              		.cfi_def_cfa_offset 8
 1375 0002 82B0     		sub	sp, sp, #8
 1376              	.LCFI22:
 1377              		.cfi_def_cfa_offset 16
 1378 0004 00AF     		add	r7, sp, #0
 1379              		.cfi_offset 14, -4
 1380              		.cfi_offset 7, -8
 1381              	.LCFI23:
 1382              		.cfi_def_cfa_register 7
 1383 0006 0346     		mov	r3, r0
 1384 0008 FB71     		strb	r3, [r7, #7]
1497:.\Generated_Source\PSoC5/cyPm.c ****     /* Disable CTW interrupt enable */
1498:.\Generated_Source\PSoC5/cyPm.c ****     CY_PM_TW_CFG2_REG &= ((uint8)(~CY_PM_CTW_IE));
 1385              		.loc 1 1498 0
 1386 000a 44F28233 		movw	r3, #:lower16:1073759106
 1387 000e C4F20003 		movt	r3, #:upper16:1073759106
 1388 0012 44F28232 		movw	r2, #:lower16:1073759106
 1389 0016 C4F20002 		movt	r2, #:upper16:1073759106
 1390 001a 1278     		ldrb	r2, [r2, #0]
 1391 001c D2B2     		uxtb	r2, r2
 1392 001e 02F0F702 		and	r2, r2, #247
 1393 0022 1A70     		strb	r2, [r3, #0]
1499:.\Generated_Source\PSoC5/cyPm.c **** 
1500:.\Generated_Source\PSoC5/cyPm.c ****     /* Enable 1kHz ILO (required for CTW operation) */
1501:.\Generated_Source\PSoC5/cyPm.c ****     CyILO_Start1K();
 1394              		.loc 1 1501 0
ARM GAS  C:\Users\rmcgarel\AppData\Local\Temp\ccv1YA4O.s 			page 52


 1395 0024 FFF7FEFF 		bl	CyILO_Start1K
1502:.\Generated_Source\PSoC5/cyPm.c **** 
1503:.\Generated_Source\PSoC5/cyPm.c ****     /* Interval could be set only while CTW is disabled */
1504:.\Generated_Source\PSoC5/cyPm.c ****     if(0u != (CY_PM_TW_CFG2_REG & CY_PM_CTW_EN))
 1396              		.loc 1 1504 0
 1397 0028 44F28233 		movw	r3, #:lower16:1073759106
 1398 002c C4F20003 		movt	r3, #:upper16:1073759106
 1399 0030 1B78     		ldrb	r3, [r3, #0]
 1400 0032 DBB2     		uxtb	r3, r3
 1401 0034 03F00403 		and	r3, r3, #4
 1402 0038 002B     		cmp	r3, #0
 1403 003a 2AD0     		beq	.L67
1505:.\Generated_Source\PSoC5/cyPm.c ****     {
1506:.\Generated_Source\PSoC5/cyPm.c ****         /* Set CTW interval if needed */
1507:.\Generated_Source\PSoC5/cyPm.c ****         if(CY_PM_TW_CFG1_REG != ctwInterval)
 1404              		.loc 1 1507 0
 1405 003c 44F28133 		movw	r3, #:lower16:1073759105
 1406 0040 C4F20003 		movt	r3, #:upper16:1073759105
 1407 0044 1B78     		ldrb	r3, [r3, #0]
 1408 0046 DBB2     		uxtb	r3, r3
 1409 0048 FA79     		ldrb	r2, [r7, #7]	@ zero_extendqisi2
 1410 004a 9A42     		cmp	r2, r3
 1411 004c 3FD0     		beq	.L72
1508:.\Generated_Source\PSoC5/cyPm.c ****         {
1509:.\Generated_Source\PSoC5/cyPm.c ****             /* Disable the CTW, set new CTW interval and enable it again */
1510:.\Generated_Source\PSoC5/cyPm.c ****             CY_PM_TW_CFG2_REG &= ((uint8)(~CY_PM_CTW_EN));
 1412              		.loc 1 1510 0
 1413 004e 44F28233 		movw	r3, #:lower16:1073759106
 1414 0052 C4F20003 		movt	r3, #:upper16:1073759106
 1415 0056 44F28232 		movw	r2, #:lower16:1073759106
 1416 005a C4F20002 		movt	r2, #:upper16:1073759106
 1417 005e 1278     		ldrb	r2, [r2, #0]
 1418 0060 D2B2     		uxtb	r2, r2
 1419 0062 02F0FB02 		and	r2, r2, #251
 1420 0066 1A70     		strb	r2, [r3, #0]
1511:.\Generated_Source\PSoC5/cyPm.c ****             CY_PM_TW_CFG1_REG = ctwInterval;
 1421              		.loc 1 1511 0
 1422 0068 44F28133 		movw	r3, #:lower16:1073759105
 1423 006c C4F20003 		movt	r3, #:upper16:1073759105
 1424 0070 FA79     		ldrb	r2, [r7, #7]
 1425 0072 1A70     		strb	r2, [r3, #0]
1512:.\Generated_Source\PSoC5/cyPm.c ****             CY_PM_TW_CFG2_REG |= CY_PM_CTW_EN;
 1426              		.loc 1 1512 0
 1427 0074 44F28233 		movw	r3, #:lower16:1073759106
 1428 0078 C4F20003 		movt	r3, #:upper16:1073759106
 1429 007c 44F28232 		movw	r2, #:lower16:1073759106
 1430 0080 C4F20002 		movt	r2, #:upper16:1073759106
 1431 0084 1278     		ldrb	r2, [r2, #0]
 1432 0086 D2B2     		uxtb	r2, r2
 1433 0088 42F00402 		orr	r2, r2, #4
 1434 008c D2B2     		uxtb	r2, r2
 1435 008e 1A70     		strb	r2, [r3, #0]
 1436 0090 1EE0     		b	.L71
 1437              	.L67:
1513:.\Generated_Source\PSoC5/cyPm.c ****         }   /* Required interval is already set */
1514:.\Generated_Source\PSoC5/cyPm.c ****     }
1515:.\Generated_Source\PSoC5/cyPm.c ****     else
ARM GAS  C:\Users\rmcgarel\AppData\Local\Temp\ccv1YA4O.s 			page 53


1516:.\Generated_Source\PSoC5/cyPm.c ****     {
1517:.\Generated_Source\PSoC5/cyPm.c ****         /* Set CTW interval if needed */
1518:.\Generated_Source\PSoC5/cyPm.c ****         if(CY_PM_TW_CFG1_REG != ctwInterval)
 1438              		.loc 1 1518 0
 1439 0092 44F28133 		movw	r3, #:lower16:1073759105
 1440 0096 C4F20003 		movt	r3, #:upper16:1073759105
 1441 009a 1B78     		ldrb	r3, [r3, #0]
 1442 009c DBB2     		uxtb	r3, r3
 1443 009e FA79     		ldrb	r2, [r7, #7]	@ zero_extendqisi2
 1444 00a0 9A42     		cmp	r2, r3
 1445 00a2 05D0     		beq	.L70
1519:.\Generated_Source\PSoC5/cyPm.c ****         {
1520:.\Generated_Source\PSoC5/cyPm.c ****             /* Set the new CTW interval. Could be changed if CTW is disabled */
1521:.\Generated_Source\PSoC5/cyPm.c ****             CY_PM_TW_CFG1_REG = ctwInterval;
 1446              		.loc 1 1521 0
 1447 00a4 44F28133 		movw	r3, #:lower16:1073759105
 1448 00a8 C4F20003 		movt	r3, #:upper16:1073759105
 1449 00ac FA79     		ldrb	r2, [r7, #7]
 1450 00ae 1A70     		strb	r2, [r3, #0]
 1451              	.L70:
1522:.\Generated_Source\PSoC5/cyPm.c ****         }   /* Required interval is already set */
1523:.\Generated_Source\PSoC5/cyPm.c **** 
1524:.\Generated_Source\PSoC5/cyPm.c ****         /* Enable the CTW */
1525:.\Generated_Source\PSoC5/cyPm.c ****         CY_PM_TW_CFG2_REG |= CY_PM_CTW_EN;
 1452              		.loc 1 1525 0
 1453 00b0 44F28233 		movw	r3, #:lower16:1073759106
 1454 00b4 C4F20003 		movt	r3, #:upper16:1073759106
 1455 00b8 44F28232 		movw	r2, #:lower16:1073759106
 1456 00bc C4F20002 		movt	r2, #:upper16:1073759106
 1457 00c0 1278     		ldrb	r2, [r2, #0]
 1458 00c2 D2B2     		uxtb	r2, r2
 1459 00c4 42F00402 		orr	r2, r2, #4
 1460 00c8 D2B2     		uxtb	r2, r2
 1461 00ca 1A70     		strb	r2, [r3, #0]
 1462 00cc 00E0     		b	.L71
 1463              	.L72:
 1464              		.loc 1 1512 0
 1465 00ce 00BF     		nop
 1466              	.L71:
1526:.\Generated_Source\PSoC5/cyPm.c ****     }
1527:.\Generated_Source\PSoC5/cyPm.c **** }
 1467              		.loc 1 1527 0
 1468 00d0 07F10807 		add	r7, r7, #8
 1469 00d4 BD46     		mov	sp, r7
 1470 00d6 80BD     		pop	{r7, pc}
 1471              		.cfi_endproc
 1472              	.LFE8:
 1473              		.size	CyPmCtwSetInterval, .-CyPmCtwSetInterval
 1474              		.section	.text.CyPmOppsSet,"ax",%progbits
 1475              		.align	2
 1476              		.global	CyPmOppsSet
 1477              		.thumb
 1478              		.thumb_func
 1479              		.type	CyPmOppsSet, %function
 1480              	CyPmOppsSet:
 1481              	.LFB9:
1528:.\Generated_Source\PSoC5/cyPm.c **** 
ARM GAS  C:\Users\rmcgarel\AppData\Local\Temp\ccv1YA4O.s 			page 54


1529:.\Generated_Source\PSoC5/cyPm.c **** 
1530:.\Generated_Source\PSoC5/cyPm.c **** /*******************************************************************************
1531:.\Generated_Source\PSoC5/cyPm.c **** * Function Name: CyPmOppsSet
1532:.\Generated_Source\PSoC5/cyPm.c **** ********************************************************************************
1533:.\Generated_Source\PSoC5/cyPm.c **** *
1534:.\Generated_Source\PSoC5/cyPm.c **** * Summary:
1535:.\Generated_Source\PSoC5/cyPm.c **** *  Performs 1PPS configuration:
1536:.\Generated_Source\PSoC5/cyPm.c **** *  - Starts 32 KHz XTAL
1537:.\Generated_Source\PSoC5/cyPm.c **** *  - Disables 1PPS interupts
1538:.\Generated_Source\PSoC5/cyPm.c **** *  - Enables 1PPS
1539:.\Generated_Source\PSoC5/cyPm.c **** *
1540:.\Generated_Source\PSoC5/cyPm.c **** * Parameters:
1541:.\Generated_Source\PSoC5/cyPm.c **** *  None
1542:.\Generated_Source\PSoC5/cyPm.c **** *
1543:.\Generated_Source\PSoC5/cyPm.c **** * Return:
1544:.\Generated_Source\PSoC5/cyPm.c **** *  None
1545:.\Generated_Source\PSoC5/cyPm.c **** *
1546:.\Generated_Source\PSoC5/cyPm.c **** *******************************************************************************/
1547:.\Generated_Source\PSoC5/cyPm.c **** void CyPmOppsSet(void) 
1548:.\Generated_Source\PSoC5/cyPm.c **** {
 1482              		.loc 1 1548 0
 1483              		.cfi_startproc
 1484              		@ args = 0, pretend = 0, frame = 0
 1485              		@ frame_needed = 1, uses_anonymous_args = 0
 1486 0000 80B5     		push	{r7, lr}
 1487              	.LCFI24:
 1488              		.cfi_def_cfa_offset 8
 1489 0002 00AF     		add	r7, sp, #0
 1490              		.cfi_offset 14, -4
 1491              		.cfi_offset 7, -8
 1492              	.LCFI25:
 1493              		.cfi_def_cfa_register 7
1549:.\Generated_Source\PSoC5/cyPm.c ****     /* Enable 32kHz XTAL if needed */
1550:.\Generated_Source\PSoC5/cyPm.c ****     if(0u == (CY_PM_SLOWCLK_X32_CR_REG & CY_PM_X32_CR_X32EN))
 1494              		.loc 1 1550 0
 1495 0004 44F20833 		movw	r3, #:lower16:1073758984
 1496 0008 C4F20003 		movt	r3, #:upper16:1073758984
 1497 000c 1B78     		ldrb	r3, [r3, #0]
 1498 000e DBB2     		uxtb	r3, r3
 1499 0010 03F00103 		and	r3, r3, #1
 1500 0014 002B     		cmp	r3, #0
 1501 0016 01D1     		bne	.L74
1551:.\Generated_Source\PSoC5/cyPm.c ****     {
1552:.\Generated_Source\PSoC5/cyPm.c ****         /* Enable 32kHz XTAL */
1553:.\Generated_Source\PSoC5/cyPm.c ****         CyXTAL_32KHZ_Start();
 1502              		.loc 1 1553 0
 1503 0018 FFF7FEFF 		bl	CyXTAL_32KHZ_Start
 1504              	.L74:
1554:.\Generated_Source\PSoC5/cyPm.c ****     }
1555:.\Generated_Source\PSoC5/cyPm.c **** 
1556:.\Generated_Source\PSoC5/cyPm.c ****     /* Disable 1PPS interrupt enable */
1557:.\Generated_Source\PSoC5/cyPm.c ****     CY_PM_TW_CFG2_REG &= ((uint8)(~CY_PM_1PPS_IE));
 1505              		.loc 1 1557 0
 1506 001c 44F28233 		movw	r3, #:lower16:1073759106
 1507 0020 C4F20003 		movt	r3, #:upper16:1073759106
 1508 0024 44F28232 		movw	r2, #:lower16:1073759106
 1509 0028 C4F20002 		movt	r2, #:upper16:1073759106
ARM GAS  C:\Users\rmcgarel\AppData\Local\Temp\ccv1YA4O.s 			page 55


 1510 002c 1278     		ldrb	r2, [r2, #0]
 1511 002e D2B2     		uxtb	r2, r2
 1512 0030 02F0DF02 		and	r2, r2, #223
 1513 0034 1A70     		strb	r2, [r3, #0]
1558:.\Generated_Source\PSoC5/cyPm.c **** 
1559:.\Generated_Source\PSoC5/cyPm.c ****     /* Enable 1PPS operation */
1560:.\Generated_Source\PSoC5/cyPm.c ****     CY_PM_TW_CFG2_REG |= CY_PM_1PPS_EN;
 1514              		.loc 1 1560 0
 1515 0036 44F28233 		movw	r3, #:lower16:1073759106
 1516 003a C4F20003 		movt	r3, #:upper16:1073759106
 1517 003e 44F28232 		movw	r2, #:lower16:1073759106
 1518 0042 C4F20002 		movt	r2, #:upper16:1073759106
 1519 0046 1278     		ldrb	r2, [r2, #0]
 1520 0048 D2B2     		uxtb	r2, r2
 1521 004a 42F01002 		orr	r2, r2, #16
 1522 004e D2B2     		uxtb	r2, r2
 1523 0050 1A70     		strb	r2, [r3, #0]
1561:.\Generated_Source\PSoC5/cyPm.c **** }
 1524              		.loc 1 1561 0
 1525 0052 80BD     		pop	{r7, pc}
 1526              		.cfi_endproc
 1527              	.LFE9:
 1528              		.size	CyPmOppsSet, .-CyPmOppsSet
 1529              		.section	.text.CyPmFtwSetInterval,"ax",%progbits
 1530              		.align	2
 1531              		.global	CyPmFtwSetInterval
 1532              		.thumb
 1533              		.thumb_func
 1534              		.type	CyPmFtwSetInterval, %function
 1535              	CyPmFtwSetInterval:
 1536              	.LFB10:
1562:.\Generated_Source\PSoC5/cyPm.c **** 
1563:.\Generated_Source\PSoC5/cyPm.c **** 
1564:.\Generated_Source\PSoC5/cyPm.c **** /*******************************************************************************
1565:.\Generated_Source\PSoC5/cyPm.c **** * Function Name: CyPmFtwSetInterval
1566:.\Generated_Source\PSoC5/cyPm.c **** ********************************************************************************
1567:.\Generated_Source\PSoC5/cyPm.c **** *
1568:.\Generated_Source\PSoC5/cyPm.c **** * Summary:
1569:.\Generated_Source\PSoC5/cyPm.c **** *  Performs FTW configuration:
1570:.\Generated_Source\PSoC5/cyPm.c **** *  - Disables FTW interrupt
1571:.\Generated_Source\PSoC5/cyPm.c **** *  - Enables 100 kHz ILO
1572:.\Generated_Source\PSoC5/cyPm.c **** *  - Sets new FTW interval.
1573:.\Generated_Source\PSoC5/cyPm.c **** *
1574:.\Generated_Source\PSoC5/cyPm.c **** * Parameters:
1575:.\Generated_Source\PSoC5/cyPm.c **** *  ftwInterval - FTW counter interval.
1576:.\Generated_Source\PSoC5/cyPm.c **** *
1577:.\Generated_Source\PSoC5/cyPm.c **** * Return:
1578:.\Generated_Source\PSoC5/cyPm.c **** *  None
1579:.\Generated_Source\PSoC5/cyPm.c **** *
1580:.\Generated_Source\PSoC5/cyPm.c **** * Side Effects:
1581:.\Generated_Source\PSoC5/cyPm.c **** *  Enables ILO 100 KHz clock and leaves it enabled.
1582:.\Generated_Source\PSoC5/cyPm.c **** *
1583:.\Generated_Source\PSoC5/cyPm.c **** *******************************************************************************/
1584:.\Generated_Source\PSoC5/cyPm.c **** void CyPmFtwSetInterval(uint8 ftwInterval) 
1585:.\Generated_Source\PSoC5/cyPm.c **** {
 1537              		.loc 1 1585 0
 1538              		.cfi_startproc
ARM GAS  C:\Users\rmcgarel\AppData\Local\Temp\ccv1YA4O.s 			page 56


 1539              		@ args = 0, pretend = 0, frame = 8
 1540              		@ frame_needed = 1, uses_anonymous_args = 0
 1541 0000 80B5     		push	{r7, lr}
 1542              	.LCFI26:
 1543              		.cfi_def_cfa_offset 8
 1544 0002 82B0     		sub	sp, sp, #8
 1545              	.LCFI27:
 1546              		.cfi_def_cfa_offset 16
 1547 0004 00AF     		add	r7, sp, #0
 1548              		.cfi_offset 14, -4
 1549              		.cfi_offset 7, -8
 1550              	.LCFI28:
 1551              		.cfi_def_cfa_register 7
 1552 0006 0346     		mov	r3, r0
 1553 0008 FB71     		strb	r3, [r7, #7]
1586:.\Generated_Source\PSoC5/cyPm.c ****     /* Disable FTW interrupt enable */
1587:.\Generated_Source\PSoC5/cyPm.c ****     CY_PM_TW_CFG2_REG &= ((uint8)(~CY_PM_FTW_IE));
 1554              		.loc 1 1587 0
 1555 000a 44F28233 		movw	r3, #:lower16:1073759106
 1556 000e C4F20003 		movt	r3, #:upper16:1073759106
 1557 0012 44F28232 		movw	r2, #:lower16:1073759106
 1558 0016 C4F20002 		movt	r2, #:upper16:1073759106
 1559 001a 1278     		ldrb	r2, [r2, #0]
 1560 001c D2B2     		uxtb	r2, r2
 1561 001e 02F0FD02 		and	r2, r2, #253
 1562 0022 1A70     		strb	r2, [r3, #0]
1588:.\Generated_Source\PSoC5/cyPm.c **** 
1589:.\Generated_Source\PSoC5/cyPm.c ****     /* Enable 100kHz ILO */
1590:.\Generated_Source\PSoC5/cyPm.c ****     CyILO_Start100K();
 1563              		.loc 1 1590 0
 1564 0024 FFF7FEFF 		bl	CyILO_Start100K
1591:.\Generated_Source\PSoC5/cyPm.c **** 
1592:.\Generated_Source\PSoC5/cyPm.c ****     /* Iterval could be set only while FTW is disabled */
1593:.\Generated_Source\PSoC5/cyPm.c ****     if(0u != (CY_PM_TW_CFG2_REG & CY_PM_FTW_EN))
 1565              		.loc 1 1593 0
 1566 0028 44F28233 		movw	r3, #:lower16:1073759106
 1567 002c C4F20003 		movt	r3, #:upper16:1073759106
 1568 0030 1B78     		ldrb	r3, [r3, #0]
 1569 0032 DBB2     		uxtb	r3, r3
 1570 0034 03F00103 		and	r3, r3, #1
 1571 0038 DBB2     		uxtb	r3, r3
 1572 003a 002B     		cmp	r3, #0
 1573 003c 2AD0     		beq	.L77
1594:.\Generated_Source\PSoC5/cyPm.c ****     {
1595:.\Generated_Source\PSoC5/cyPm.c ****         /* Disable FTW, set new FTW interval if needed and enable it again */
1596:.\Generated_Source\PSoC5/cyPm.c ****         if(CY_PM_TW_CFG0_REG != ftwInterval)
 1574              		.loc 1 1596 0
 1575 003e 44F28033 		movw	r3, #:lower16:1073759104
 1576 0042 C4F20003 		movt	r3, #:upper16:1073759104
 1577 0046 1B78     		ldrb	r3, [r3, #0]
 1578 0048 DBB2     		uxtb	r3, r3
 1579 004a FA79     		ldrb	r2, [r7, #7]	@ zero_extendqisi2
 1580 004c 9A42     		cmp	r2, r3
 1581 004e 3FD0     		beq	.L82
1597:.\Generated_Source\PSoC5/cyPm.c ****         {
1598:.\Generated_Source\PSoC5/cyPm.c ****             /* Disable the CTW, set new CTW interval and enable it again */
1599:.\Generated_Source\PSoC5/cyPm.c ****             CY_PM_TW_CFG2_REG &= ((uint8)(~CY_PM_FTW_EN));
ARM GAS  C:\Users\rmcgarel\AppData\Local\Temp\ccv1YA4O.s 			page 57


 1582              		.loc 1 1599 0
 1583 0050 44F28233 		movw	r3, #:lower16:1073759106
 1584 0054 C4F20003 		movt	r3, #:upper16:1073759106
 1585 0058 44F28232 		movw	r2, #:lower16:1073759106
 1586 005c C4F20002 		movt	r2, #:upper16:1073759106
 1587 0060 1278     		ldrb	r2, [r2, #0]
 1588 0062 D2B2     		uxtb	r2, r2
 1589 0064 02F0FE02 		and	r2, r2, #254
 1590 0068 1A70     		strb	r2, [r3, #0]
1600:.\Generated_Source\PSoC5/cyPm.c ****             CY_PM_TW_CFG0_REG = ftwInterval;
 1591              		.loc 1 1600 0
 1592 006a 44F28033 		movw	r3, #:lower16:1073759104
 1593 006e C4F20003 		movt	r3, #:upper16:1073759104
 1594 0072 FA79     		ldrb	r2, [r7, #7]
 1595 0074 1A70     		strb	r2, [r3, #0]
1601:.\Generated_Source\PSoC5/cyPm.c ****             CY_PM_TW_CFG2_REG |= CY_PM_FTW_EN;
 1596              		.loc 1 1601 0
 1597 0076 44F28233 		movw	r3, #:lower16:1073759106
 1598 007a C4F20003 		movt	r3, #:upper16:1073759106
 1599 007e 44F28232 		movw	r2, #:lower16:1073759106
 1600 0082 C4F20002 		movt	r2, #:upper16:1073759106
 1601 0086 1278     		ldrb	r2, [r2, #0]
 1602 0088 D2B2     		uxtb	r2, r2
 1603 008a 42F00102 		orr	r2, r2, #1
 1604 008e D2B2     		uxtb	r2, r2
 1605 0090 1A70     		strb	r2, [r3, #0]
 1606 0092 1EE0     		b	.L81
 1607              	.L77:
1602:.\Generated_Source\PSoC5/cyPm.c ****         }   /* Required interval is already set */
1603:.\Generated_Source\PSoC5/cyPm.c ****     }
1604:.\Generated_Source\PSoC5/cyPm.c ****     else
1605:.\Generated_Source\PSoC5/cyPm.c ****     {
1606:.\Generated_Source\PSoC5/cyPm.c ****         /* Set new FTW counter interval if needed. FTW is disabled. */
1607:.\Generated_Source\PSoC5/cyPm.c ****         if(CY_PM_TW_CFG0_REG != ftwInterval)
 1608              		.loc 1 1607 0
 1609 0094 44F28033 		movw	r3, #:lower16:1073759104
 1610 0098 C4F20003 		movt	r3, #:upper16:1073759104
 1611 009c 1B78     		ldrb	r3, [r3, #0]
 1612 009e DBB2     		uxtb	r3, r3
 1613 00a0 FA79     		ldrb	r2, [r7, #7]	@ zero_extendqisi2
 1614 00a2 9A42     		cmp	r2, r3
 1615 00a4 05D0     		beq	.L80
1608:.\Generated_Source\PSoC5/cyPm.c ****         {
1609:.\Generated_Source\PSoC5/cyPm.c ****             /* Set the new CTW interval. Could be changed if CTW is disabled */
1610:.\Generated_Source\PSoC5/cyPm.c ****             CY_PM_TW_CFG0_REG = ftwInterval;
 1616              		.loc 1 1610 0
 1617 00a6 44F28033 		movw	r3, #:lower16:1073759104
 1618 00aa C4F20003 		movt	r3, #:upper16:1073759104
 1619 00ae FA79     		ldrb	r2, [r7, #7]
 1620 00b0 1A70     		strb	r2, [r3, #0]
 1621              	.L80:
1611:.\Generated_Source\PSoC5/cyPm.c ****         }   /* Required interval is already set */
1612:.\Generated_Source\PSoC5/cyPm.c **** 
1613:.\Generated_Source\PSoC5/cyPm.c ****         /* Enable the FTW */
1614:.\Generated_Source\PSoC5/cyPm.c ****         CY_PM_TW_CFG2_REG |= CY_PM_FTW_EN;
 1622              		.loc 1 1614 0
 1623 00b2 44F28233 		movw	r3, #:lower16:1073759106
ARM GAS  C:\Users\rmcgarel\AppData\Local\Temp\ccv1YA4O.s 			page 58


 1624 00b6 C4F20003 		movt	r3, #:upper16:1073759106
 1625 00ba 44F28232 		movw	r2, #:lower16:1073759106
 1626 00be C4F20002 		movt	r2, #:upper16:1073759106
 1627 00c2 1278     		ldrb	r2, [r2, #0]
 1628 00c4 D2B2     		uxtb	r2, r2
 1629 00c6 42F00102 		orr	r2, r2, #1
 1630 00ca D2B2     		uxtb	r2, r2
 1631 00cc 1A70     		strb	r2, [r3, #0]
 1632 00ce 00E0     		b	.L81
 1633              	.L82:
 1634              		.loc 1 1601 0
 1635 00d0 00BF     		nop
 1636              	.L81:
1615:.\Generated_Source\PSoC5/cyPm.c ****     }
1616:.\Generated_Source\PSoC5/cyPm.c **** }
 1637              		.loc 1 1616 0
 1638 00d2 07F10807 		add	r7, r7, #8
 1639 00d6 BD46     		mov	sp, r7
 1640 00d8 80BD     		pop	{r7, pc}
 1641              		.cfi_endproc
 1642              	.LFE10:
 1643              		.size	CyPmFtwSetInterval, .-CyPmFtwSetInterval
 1644 00da 00BF     		.section	.text.CyPmSavePicuInterrupts,"ax",%progbits
 1645              		.align	2
 1646              		.thumb
 1647              		.thumb_func
 1648              		.type	CyPmSavePicuInterrupts, %function
 1649              	CyPmSavePicuInterrupts:
 1650              	.LFB11:
1617:.\Generated_Source\PSoC5/cyPm.c **** 
1618:.\Generated_Source\PSoC5/cyPm.c **** 
1619:.\Generated_Source\PSoC5/cyPm.c **** #if(CY_PSOC5A)
1620:.\Generated_Source\PSoC5/cyPm.c **** 
1621:.\Generated_Source\PSoC5/cyPm.c ****     /*******************************************************************************
1622:.\Generated_Source\PSoC5/cyPm.c ****     * Function Name: CyPmSavePicuInterrupts
1623:.\Generated_Source\PSoC5/cyPm.c ****     ********************************************************************************
1624:.\Generated_Source\PSoC5/cyPm.c ****     *
1625:.\Generated_Source\PSoC5/cyPm.c ****     * Summary:
1626:.\Generated_Source\PSoC5/cyPm.c ****     *  Saves PICU interrupt type registers to the backup structure.
1627:.\Generated_Source\PSoC5/cyPm.c ****     *
1628:.\Generated_Source\PSoC5/cyPm.c ****     * Parameters:
1629:.\Generated_Source\PSoC5/cyPm.c ****     *  None
1630:.\Generated_Source\PSoC5/cyPm.c ****     *
1631:.\Generated_Source\PSoC5/cyPm.c ****     * Return:
1632:.\Generated_Source\PSoC5/cyPm.c ****     *  None
1633:.\Generated_Source\PSoC5/cyPm.c ****     *
1634:.\Generated_Source\PSoC5/cyPm.c ****     * Reentrant:
1635:.\Generated_Source\PSoC5/cyPm.c ****     *  No
1636:.\Generated_Source\PSoC5/cyPm.c ****     *
1637:.\Generated_Source\PSoC5/cyPm.c ****     *******************************************************************************/
1638:.\Generated_Source\PSoC5/cyPm.c ****     static void CyPmSavePicuInterrupts(void) 
1639:.\Generated_Source\PSoC5/cyPm.c ****     {
 1651              		.loc 1 1639 0
 1652              		.cfi_startproc
 1653              		@ args = 0, pretend = 0, frame = 0
 1654              		@ frame_needed = 1, uses_anonymous_args = 0
 1655 0000 80B5     		push	{r7, lr}
ARM GAS  C:\Users\rmcgarel\AppData\Local\Temp\ccv1YA4O.s 			page 59


 1656              	.LCFI29:
 1657              		.cfi_def_cfa_offset 8
 1658 0002 00AF     		add	r7, sp, #0
 1659              		.cfi_offset 14, -4
 1660              		.cfi_offset 7, -8
 1661              	.LCFI30:
 1662              		.cfi_def_cfa_register 7
1640:.\Generated_Source\PSoC5/cyPm.c ****         /* Save all the PICU interrupt type */
1641:.\Generated_Source\PSoC5/cyPm.c ****         (void) memcpy((void *) &cyPmBackup.picuIntType[0u],
 1663              		.loc 1 1641 0
 1664 0004 0E48     		ldr	r0, .L85
 1665 0006 44F20051 		movw	r1, #:lower16:1073759488
 1666 000a C4F20001 		movt	r1, #:upper16:1073759488
 1667 000e 4FF03802 		mov	r2, #56
 1668 0012 FFF7FEFF 		bl	memcpy
1642:.\Generated_Source\PSoC5/cyPm.c ****                       (void *) CY_PM_PICU_0_6_INT_BASE,
1643:.\Generated_Source\PSoC5/cyPm.c ****                       CY_PM_PICU_0_6_INT_SIZE);
1644:.\Generated_Source\PSoC5/cyPm.c **** 
1645:.\Generated_Source\PSoC5/cyPm.c ****         (void) memcpy((void *) &cyPmBackup.picuIntType[CY_PM_PICU_0_6_INT_SIZE],
 1669              		.loc 1 1645 0
 1670 0016 0B4B     		ldr	r3, .L85+4
 1671 0018 1846     		mov	r0, r3
 1672 001a 44F26051 		movw	r1, #:lower16:1073759584
 1673 001e C4F20001 		movt	r1, #:upper16:1073759584
 1674 0022 4FF00802 		mov	r2, #8
 1675 0026 FFF7FEFF 		bl	memcpy
1646:.\Generated_Source\PSoC5/cyPm.c ****                       (void *) CY_PM_PICU_12_INT_BASE,
1647:.\Generated_Source\PSoC5/cyPm.c ****                       CY_PM_PICU_12_INT_SIZE);
1648:.\Generated_Source\PSoC5/cyPm.c **** 
1649:.\Generated_Source\PSoC5/cyPm.c ****         (void) memcpy((void *) &cyPmBackup.picuIntType[CY_PM_PICU_0_6_INT_SIZE + CY_PM_PICU_12_INT_
 1676              		.loc 1 1649 0
 1677 002a 074B     		ldr	r3, .L85+8
 1678 002c 1846     		mov	r0, r3
 1679 002e 44F27851 		movw	r1, #:lower16:1073759608
 1680 0032 C4F20001 		movt	r1, #:upper16:1073759608
 1681 0036 4FF00802 		mov	r2, #8
 1682 003a FFF7FEFF 		bl	memcpy
1650:.\Generated_Source\PSoC5/cyPm.c ****                       (void *) CY_PM_PICU_15_INT_BASE,
1651:.\Generated_Source\PSoC5/cyPm.c ****                       CY_PM_PICU_15_INT_SIZE);
1652:.\Generated_Source\PSoC5/cyPm.c **** 
1653:.\Generated_Source\PSoC5/cyPm.c ****     }
 1683              		.loc 1 1653 0
 1684 003e 80BD     		pop	{r7, pc}
 1685              	.L86:
 1686              		.align	2
 1687              	.L85:
 1688 0040 52000000 		.word	cyPmBackup+82
 1689 0044 8A000000 		.word	cyPmBackup+138
 1690 0048 92000000 		.word	cyPmBackup+146
 1691              		.cfi_endproc
 1692              	.LFE11:
 1693              		.size	CyPmSavePicuInterrupts, .-CyPmSavePicuInterrupts
 1694              		.section	.text.CyPmDisablePicuInterrupts,"ax",%progbits
 1695              		.align	2
 1696              		.thumb
 1697              		.thumb_func
 1698              		.type	CyPmDisablePicuInterrupts, %function
ARM GAS  C:\Users\rmcgarel\AppData\Local\Temp\ccv1YA4O.s 			page 60


 1699              	CyPmDisablePicuInterrupts:
 1700              	.LFB12:
1654:.\Generated_Source\PSoC5/cyPm.c **** 
1655:.\Generated_Source\PSoC5/cyPm.c **** 
1656:.\Generated_Source\PSoC5/cyPm.c ****     /*******************************************************************************
1657:.\Generated_Source\PSoC5/cyPm.c ****     * Function Name: CyPmDisablePicuInterrupts
1658:.\Generated_Source\PSoC5/cyPm.c ****     ********************************************************************************
1659:.\Generated_Source\PSoC5/cyPm.c ****     *
1660:.\Generated_Source\PSoC5/cyPm.c ****     * Summary:
1661:.\Generated_Source\PSoC5/cyPm.c ****     *  Disableds PICU interrupts.
1662:.\Generated_Source\PSoC5/cyPm.c ****     *
1663:.\Generated_Source\PSoC5/cyPm.c ****     * Parameters:
1664:.\Generated_Source\PSoC5/cyPm.c ****     *  None
1665:.\Generated_Source\PSoC5/cyPm.c ****     *
1666:.\Generated_Source\PSoC5/cyPm.c ****     * Return:
1667:.\Generated_Source\PSoC5/cyPm.c ****     *  None
1668:.\Generated_Source\PSoC5/cyPm.c ****     *
1669:.\Generated_Source\PSoC5/cyPm.c ****     *******************************************************************************/
1670:.\Generated_Source\PSoC5/cyPm.c ****     static void CyPmDisablePicuInterrupts(void) 
1671:.\Generated_Source\PSoC5/cyPm.c ****     {
 1701              		.loc 1 1671 0
 1702              		.cfi_startproc
 1703              		@ args = 0, pretend = 0, frame = 0
 1704              		@ frame_needed = 1, uses_anonymous_args = 0
 1705 0000 80B5     		push	{r7, lr}
 1706              	.LCFI31:
 1707              		.cfi_def_cfa_offset 8
 1708 0002 00AF     		add	r7, sp, #0
 1709              		.cfi_offset 14, -4
 1710              		.cfi_offset 7, -8
 1711              	.LCFI32:
 1712              		.cfi_def_cfa_register 7
1672:.\Generated_Source\PSoC5/cyPm.c ****         /* Disable all the PICU interrupts */
1673:.\Generated_Source\PSoC5/cyPm.c ****         (void) memset((void *) CY_PM_PICU_0_6_INT_BASE, 0, CY_PM_PICU_0_6_INT_SIZE);
 1713              		.loc 1 1673 0
 1714 0004 44F20050 		movw	r0, #:lower16:1073759488
 1715 0008 C4F20000 		movt	r0, #:upper16:1073759488
 1716 000c 4FF00001 		mov	r1, #0
 1717 0010 4FF03802 		mov	r2, #56
 1718 0014 FFF7FEFF 		bl	memset
1674:.\Generated_Source\PSoC5/cyPm.c ****         (void) memset((void *) CY_PM_PICU_12_INT_BASE,  0, CY_PM_PICU_12_INT_SIZE );
 1719              		.loc 1 1674 0
 1720 0018 44F26050 		movw	r0, #:lower16:1073759584
 1721 001c C4F20000 		movt	r0, #:upper16:1073759584
 1722 0020 4FF00001 		mov	r1, #0
 1723 0024 4FF00802 		mov	r2, #8
 1724 0028 FFF7FEFF 		bl	memset
1675:.\Generated_Source\PSoC5/cyPm.c ****         (void) memset((void *) CY_PM_PICU_15_INT_BASE,  0, CY_PM_PICU_15_INT_SIZE );
 1725              		.loc 1 1675 0
 1726 002c 44F27850 		movw	r0, #:lower16:1073759608
 1727 0030 C4F20000 		movt	r0, #:upper16:1073759608
 1728 0034 4FF00001 		mov	r1, #0
 1729 0038 4FF00802 		mov	r2, #8
 1730 003c FFF7FEFF 		bl	memset
1676:.\Generated_Source\PSoC5/cyPm.c ****     }
 1731              		.loc 1 1676 0
 1732 0040 80BD     		pop	{r7, pc}
ARM GAS  C:\Users\rmcgarel\AppData\Local\Temp\ccv1YA4O.s 			page 61


 1733              		.cfi_endproc
 1734              	.LFE12:
 1735              		.size	CyPmDisablePicuInterrupts, .-CyPmDisablePicuInterrupts
 1736 0042 00BF     		.section	.text.CyPmRestorePicuInterrupts,"ax",%progbits
 1737              		.align	2
 1738              		.thumb
 1739              		.thumb_func
 1740              		.type	CyPmRestorePicuInterrupts, %function
 1741              	CyPmRestorePicuInterrupts:
 1742              	.LFB13:
1677:.\Generated_Source\PSoC5/cyPm.c **** 
1678:.\Generated_Source\PSoC5/cyPm.c **** 
1679:.\Generated_Source\PSoC5/cyPm.c ****     /*******************************************************************************
1680:.\Generated_Source\PSoC5/cyPm.c ****     * Function Name: CyPmRestorePicuInterrupts
1681:.\Generated_Source\PSoC5/cyPm.c ****     ********************************************************************************
1682:.\Generated_Source\PSoC5/cyPm.c ****     *
1683:.\Generated_Source\PSoC5/cyPm.c ****     * Summary:
1684:.\Generated_Source\PSoC5/cyPm.c ****     *  Restores PICU interrupt type registers from the backup structure.
1685:.\Generated_Source\PSoC5/cyPm.c ****     *
1686:.\Generated_Source\PSoC5/cyPm.c ****     * Parameters:
1687:.\Generated_Source\PSoC5/cyPm.c ****     *  None
1688:.\Generated_Source\PSoC5/cyPm.c ****     *
1689:.\Generated_Source\PSoC5/cyPm.c ****     * Return:
1690:.\Generated_Source\PSoC5/cyPm.c ****     *  None
1691:.\Generated_Source\PSoC5/cyPm.c ****     *
1692:.\Generated_Source\PSoC5/cyPm.c ****     *******************************************************************************/
1693:.\Generated_Source\PSoC5/cyPm.c ****     static void CyPmRestorePicuInterrupts(void) 
1694:.\Generated_Source\PSoC5/cyPm.c ****     {
 1743              		.loc 1 1694 0
 1744              		.cfi_startproc
 1745              		@ args = 0, pretend = 0, frame = 0
 1746              		@ frame_needed = 1, uses_anonymous_args = 0
 1747 0000 80B5     		push	{r7, lr}
 1748              	.LCFI33:
 1749              		.cfi_def_cfa_offset 8
 1750 0002 00AF     		add	r7, sp, #0
 1751              		.cfi_offset 14, -4
 1752              		.cfi_offset 7, -8
 1753              	.LCFI34:
 1754              		.cfi_def_cfa_register 7
1695:.\Generated_Source\PSoC5/cyPm.c ****         /* Save all the PICU interrupt type */
1696:.\Generated_Source\PSoC5/cyPm.c ****         (void) memcpy((void *) CY_PM_PICU_0_6_INT_BASE,
 1755              		.loc 1 1696 0
 1756 0004 44F20050 		movw	r0, #:lower16:1073759488
 1757 0008 C4F20000 		movt	r0, #:upper16:1073759488
 1758 000c 0C49     		ldr	r1, .L91
 1759 000e 4FF03802 		mov	r2, #56
 1760 0012 FFF7FEFF 		bl	memcpy
1697:.\Generated_Source\PSoC5/cyPm.c ****                       (void *) &cyPmBackup.picuIntType[0u],
1698:.\Generated_Source\PSoC5/cyPm.c ****                       CY_PM_PICU_0_6_INT_SIZE);
1699:.\Generated_Source\PSoC5/cyPm.c **** 
1700:.\Generated_Source\PSoC5/cyPm.c ****         (void) memcpy((void *) CY_PM_PICU_12_INT_BASE,
 1761              		.loc 1 1700 0
 1762 0016 0B4B     		ldr	r3, .L91+4
 1763 0018 44F26050 		movw	r0, #:lower16:1073759584
 1764 001c C4F20000 		movt	r0, #:upper16:1073759584
 1765 0020 1946     		mov	r1, r3
ARM GAS  C:\Users\rmcgarel\AppData\Local\Temp\ccv1YA4O.s 			page 62


 1766 0022 4FF00802 		mov	r2, #8
 1767 0026 FFF7FEFF 		bl	memcpy
1701:.\Generated_Source\PSoC5/cyPm.c ****                       (void *) &cyPmBackup.picuIntType[CY_PM_PICU_0_6_INT_SIZE],
1702:.\Generated_Source\PSoC5/cyPm.c ****                       CY_PM_PICU_12_INT_SIZE);
1703:.\Generated_Source\PSoC5/cyPm.c **** 
1704:.\Generated_Source\PSoC5/cyPm.c ****         (void) memcpy((void *) CY_PM_PICU_15_INT_BASE,
 1768              		.loc 1 1704 0
 1769 002a 074B     		ldr	r3, .L91+8
 1770 002c 44F27850 		movw	r0, #:lower16:1073759608
 1771 0030 C4F20000 		movt	r0, #:upper16:1073759608
 1772 0034 1946     		mov	r1, r3
 1773 0036 4FF00802 		mov	r2, #8
 1774 003a FFF7FEFF 		bl	memcpy
1705:.\Generated_Source\PSoC5/cyPm.c ****                       (void *) &cyPmBackup.picuIntType[CY_PM_PICU_0_6_INT_SIZE + CY_PM_PICU_12_INT_
1706:.\Generated_Source\PSoC5/cyPm.c ****                       CY_PM_PICU_15_INT_SIZE);
1707:.\Generated_Source\PSoC5/cyPm.c **** 
1708:.\Generated_Source\PSoC5/cyPm.c ****     }
 1775              		.loc 1 1708 0
 1776 003e 80BD     		pop	{r7, pc}
 1777              	.L92:
 1778              		.align	2
 1779              	.L91:
 1780 0040 52000000 		.word	cyPmBackup+82
 1781 0044 8A000000 		.word	cyPmBackup+138
 1782 0048 92000000 		.word	cyPmBackup+146
 1783              		.cfi_endproc
 1784              	.LFE13:
 1785              		.size	CyPmRestorePicuInterrupts, .-CyPmRestorePicuInterrupts
 1786              		.section	.text.CyPmSlpSaveSet,"ax",%progbits
 1787              		.align	2
 1788              		.thumb
 1789              		.thumb_func
 1790              		.type	CyPmSlpSaveSet, %function
 1791              	CyPmSlpSaveSet:
 1792              	.LFB14:
1709:.\Generated_Source\PSoC5/cyPm.c **** 
1710:.\Generated_Source\PSoC5/cyPm.c **** #endif  /* (CY_PSOC5A) */
1711:.\Generated_Source\PSoC5/cyPm.c **** 
1712:.\Generated_Source\PSoC5/cyPm.c **** 
1713:.\Generated_Source\PSoC5/cyPm.c **** /*******************************************************************************
1714:.\Generated_Source\PSoC5/cyPm.c **** * Function Name: CyPmSlpSaveSet
1715:.\Generated_Source\PSoC5/cyPm.c **** ********************************************************************************
1716:.\Generated_Source\PSoC5/cyPm.c **** *
1717:.\Generated_Source\PSoC5/cyPm.c **** * Summary:
1718:.\Generated_Source\PSoC5/cyPm.c **** *  Prepare device for proper Sleep low power mode entry:
1719:.\Generated_Source\PSoC5/cyPm.c **** *  - Prepare CTW for Sleep mode entry (PSoC 5)
1720:.\Generated_Source\PSoC5/cyPm.c **** *    * Save timewheels configuration
1721:.\Generated_Source\PSoC5/cyPm.c **** *    * Disable FTW and 1PPS (enable and interrupt)
1722:.\Generated_Source\PSoC5/cyPm.c **** *    * Reset CTW
1723:.\Generated_Source\PSoC5/cyPm.c **** *    * Save and disable PICU interrupts (PSoC 5)
1724:.\Generated_Source\PSoC5/cyPm.c **** *    * Save and disable PRES-A and PRES-D (PSoC 5)
1725:.\Generated_Source\PSoC5/cyPm.c **** *  - Save and disable LVI/HVI configuration (PSoC 5)
1726:.\Generated_Source\PSoC5/cyPm.c **** *  - Save and set to max buzz interval (PSoC 5)
1727:.\Generated_Source\PSoC5/cyPm.c **** *  - If LVI/HVI is enabled than hardware buzz in required (PSoC 3):
1728:.\Generated_Source\PSoC5/cyPm.c **** *    * Prepare wake trim registers
1729:.\Generated_Source\PSoC5/cyPm.c **** *    * Disable LDO-A in proper way
1730:.\Generated_Source\PSoC5/cyPm.c **** *  - If LVI/HVI is disabled than hardware buzz in not required (PSoC 3):
ARM GAS  C:\Users\rmcgarel\AppData\Local\Temp\ccv1YA4O.s 			page 63


1731:.\Generated_Source\PSoC5/cyPm.c **** *    * Disabled hardware buzz
1732:.\Generated_Source\PSoC5/cyPm.c **** *  - CyPmHibSlpSaveSet() function is called
1733:.\Generated_Source\PSoC5/cyPm.c **** *
1734:.\Generated_Source\PSoC5/cyPm.c **** * Parameters:
1735:.\Generated_Source\PSoC5/cyPm.c **** *  None
1736:.\Generated_Source\PSoC5/cyPm.c **** *
1737:.\Generated_Source\PSoC5/cyPm.c **** * Return:
1738:.\Generated_Source\PSoC5/cyPm.c **** *  None
1739:.\Generated_Source\PSoC5/cyPm.c **** *
1740:.\Generated_Source\PSoC5/cyPm.c **** * Reentrant:
1741:.\Generated_Source\PSoC5/cyPm.c **** *  No
1742:.\Generated_Source\PSoC5/cyPm.c **** *
1743:.\Generated_Source\PSoC5/cyPm.c **** *******************************************************************************/
1744:.\Generated_Source\PSoC5/cyPm.c **** static void CyPmSlpSaveSet(void) 
1745:.\Generated_Source\PSoC5/cyPm.c **** {
 1793              		.loc 1 1745 0
 1794              		.cfi_startproc
 1795              		@ args = 0, pretend = 0, frame = 0
 1796              		@ frame_needed = 1, uses_anonymous_args = 0
 1797 0000 80B5     		push	{r7, lr}
 1798              	.LCFI35:
 1799              		.cfi_def_cfa_offset 8
 1800 0002 00AF     		add	r7, sp, #0
 1801              		.cfi_offset 14, -4
 1802              		.cfi_offset 7, -8
 1803              	.LCFI36:
 1804              		.cfi_def_cfa_register 7
1746:.\Generated_Source\PSoC5/cyPm.c ****     #if(CY_PSOC5A)
1747:.\Generated_Source\PSoC5/cyPm.c **** 
1748:.\Generated_Source\PSoC5/cyPm.c ****         /* Preserve the Timewheel Configuration Register 2 */
1749:.\Generated_Source\PSoC5/cyPm.c ****         cyPmBackup.pmTwCfg2 = CY_PM_TW_CFG2_REG;
 1805              		.loc 1 1749 0
 1806 0004 44F28233 		movw	r3, #:lower16:1073759106
 1807 0008 C4F20003 		movt	r3, #:upper16:1073759106
 1808 000c 1B78     		ldrb	r3, [r3, #0]
 1809 000e DAB2     		uxtb	r2, r3
 1810 0010 40F20003 		movw	r3, #:lower16:cyPmBackup
 1811 0014 C0F20003 		movt	r3, #:upper16:cyPmBackup
 1812 0018 83F85120 		strb	r2, [r3, #81]
1750:.\Generated_Source\PSoC5/cyPm.c **** 
1751:.\Generated_Source\PSoC5/cyPm.c ****         /*  Clear the enable and interrupt enables for the FTW and ONEPPS */
1752:.\Generated_Source\PSoC5/cyPm.c ****         CY_PM_TW_CFG2_REG &= ((uint8)(~(CY_PM_FTW_IE | CY_PM_FTW_EN | CY_PM_1PPS_EN | CY_PM_1PPS_IE
 1813              		.loc 1 1752 0
 1814 001c 44F28233 		movw	r3, #:lower16:1073759106
 1815 0020 C4F20003 		movt	r3, #:upper16:1073759106
 1816 0024 44F28232 		movw	r2, #:lower16:1073759106
 1817 0028 C4F20002 		movt	r2, #:upper16:1073759106
 1818 002c 1278     		ldrb	r2, [r2, #0]
 1819 002e D2B2     		uxtb	r2, r2
 1820 0030 02F0CC02 		and	r2, r2, #204
 1821 0034 1A70     		strb	r2, [r3, #0]
1753:.\Generated_Source\PSoC5/cyPm.c **** 
1754:.\Generated_Source\PSoC5/cyPm.c ****         /* Reset free-running CTW counter to 0 and held it there */
1755:.\Generated_Source\PSoC5/cyPm.c ****         CY_PM_WDT_CFG_REG |= CY_PM_WDT_CFG_CTW_RESET;
 1822              		.loc 1 1755 0
 1823 0036 44F28333 		movw	r3, #:lower16:1073759107
 1824 003a C4F20003 		movt	r3, #:upper16:1073759107
ARM GAS  C:\Users\rmcgarel\AppData\Local\Temp\ccv1YA4O.s 			page 64


 1825 003e 44F28332 		movw	r2, #:lower16:1073759107
 1826 0042 C4F20002 		movt	r2, #:upper16:1073759107
 1827 0046 1278     		ldrb	r2, [r2, #0]
 1828 0048 D2B2     		uxtb	r2, r2
 1829 004a 6FEA4262 		mvn	r2, r2, lsl #25
 1830 004e 6FEA5262 		mvn	r2, r2, lsr #25
 1831 0052 D2B2     		uxtb	r2, r2
 1832 0054 1A70     		strb	r2, [r3, #0]
1756:.\Generated_Source\PSoC5/cyPm.c **** 
1757:.\Generated_Source\PSoC5/cyPm.c ****         /* Exit CTW counter reset state */
1758:.\Generated_Source\PSoC5/cyPm.c ****         CY_PM_WDT_CFG_REG &= ((uint8)(~CY_PM_WDT_CFG_CTW_RESET));
 1833              		.loc 1 1758 0
 1834 0056 44F28333 		movw	r3, #:lower16:1073759107
 1835 005a C4F20003 		movt	r3, #:upper16:1073759107
 1836 005e 44F28332 		movw	r2, #:lower16:1073759107
 1837 0062 C4F20002 		movt	r2, #:upper16:1073759107
 1838 0066 1278     		ldrb	r2, [r2, #0]
 1839 0068 D2B2     		uxtb	r2, r2
 1840 006a 02F07F02 		and	r2, r2, #127
 1841 006e 1A70     		strb	r2, [r3, #0]
1759:.\Generated_Source\PSoC5/cyPm.c **** 
1760:.\Generated_Source\PSoC5/cyPm.c ****         /* Save and disable PICU interrupts  */
1761:.\Generated_Source\PSoC5/cyPm.c ****         CyPmSavePicuInterrupts();
 1842              		.loc 1 1761 0
 1843 0070 FFF7FEFF 		bl	CyPmSavePicuInterrupts
1762:.\Generated_Source\PSoC5/cyPm.c ****         CyPmDisablePicuInterrupts();
 1844              		.loc 1 1762 0
 1845 0074 FFF7FEFF 		bl	CyPmDisablePicuInterrupts
1763:.\Generated_Source\PSoC5/cyPm.c **** 
1764:.\Generated_Source\PSoC5/cyPm.c ****         /* Save and disable PRES-A and PRES-D */
1765:.\Generated_Source\PSoC5/cyPm.c ****         cyPmBackup.pres1 = CY_PM_RESET_CR1_REG & CY_PM_RESET_CR1_DIS_PRES1;
 1846              		.loc 1 1765 0
 1847 0078 44F2F563 		movw	r3, #:lower16:1073759989
 1848 007c C4F20003 		movt	r3, #:upper16:1073759989
 1849 0080 1B78     		ldrb	r3, [r3, #0]
 1850 0082 DBB2     		uxtb	r3, r3
 1851 0084 1A46     		mov	r2, r3
 1852 0086 02F01002 		and	r2, r2, #16
 1853 008a 40F20003 		movw	r3, #:lower16:cyPmBackup
 1854 008e C0F20003 		movt	r3, #:upper16:cyPmBackup
 1855 0092 83F89A20 		strb	r2, [r3, #154]
1766:.\Generated_Source\PSoC5/cyPm.c ****         cyPmBackup.pres2 = CY_PM_RESET_CR3_REG & CY_PM_RESET_CR3_DIS_PRES2;
 1856              		.loc 1 1766 0
 1857 0096 44F2F763 		movw	r3, #:lower16:1073759991
 1858 009a C4F20003 		movt	r3, #:upper16:1073759991
 1859 009e 1B78     		ldrb	r3, [r3, #0]
 1860 00a0 DBB2     		uxtb	r3, r3
 1861 00a2 1A46     		mov	r2, r3
 1862 00a4 02F00802 		and	r2, r2, #8
 1863 00a8 40F20003 		movw	r3, #:lower16:cyPmBackup
 1864 00ac C0F20003 		movt	r3, #:upper16:cyPmBackup
 1865 00b0 83F89B20 		strb	r2, [r3, #155]
1767:.\Generated_Source\PSoC5/cyPm.c ****         CY_PM_RESET_CR1_REG &= ((uint8)(~CY_PM_RESET_CR1_DIS_PRES1));
 1866              		.loc 1 1767 0
 1867 00b4 44F2F563 		movw	r3, #:lower16:1073759989
 1868 00b8 C4F20003 		movt	r3, #:upper16:1073759989
 1869 00bc 44F2F562 		movw	r2, #:lower16:1073759989
ARM GAS  C:\Users\rmcgarel\AppData\Local\Temp\ccv1YA4O.s 			page 65


 1870 00c0 C4F20002 		movt	r2, #:upper16:1073759989
 1871 00c4 1278     		ldrb	r2, [r2, #0]
 1872 00c6 D2B2     		uxtb	r2, r2
 1873 00c8 02F0EF02 		and	r2, r2, #239
 1874 00cc 1A70     		strb	r2, [r3, #0]
1768:.\Generated_Source\PSoC5/cyPm.c ****         CY_PM_RESET_CR3_REG &= ((uint8)(~CY_PM_RESET_CR3_DIS_PRES2));
 1875              		.loc 1 1768 0
 1876 00ce 44F2F763 		movw	r3, #:lower16:1073759991
 1877 00d2 C4F20003 		movt	r3, #:upper16:1073759991
 1878 00d6 44F2F762 		movw	r2, #:lower16:1073759991
 1879 00da C4F20002 		movt	r2, #:upper16:1073759991
 1880 00de 1278     		ldrb	r2, [r2, #0]
 1881 00e0 D2B2     		uxtb	r2, r2
 1882 00e2 02F0F702 		and	r2, r2, #247
 1883 00e6 1A70     		strb	r2, [r3, #0]
1769:.\Generated_Source\PSoC5/cyPm.c **** 
1770:.\Generated_Source\PSoC5/cyPm.c ****     #endif /* (CY_PSOC5A) */
1771:.\Generated_Source\PSoC5/cyPm.c **** 
1772:.\Generated_Source\PSoC5/cyPm.c **** 
1773:.\Generated_Source\PSoC5/cyPm.c ****     #if(CY_PSOC5A)
1774:.\Generated_Source\PSoC5/cyPm.c **** 
1775:.\Generated_Source\PSoC5/cyPm.c ****         /***************************************************************************
1776:.\Generated_Source\PSoC5/cyPm.c ****         * LVI/HVI must be disabled as it doesn't work during buzzing.
1777:.\Generated_Source\PSoC5/cyPm.c ****         *
1778:.\Generated_Source\PSoC5/cyPm.c ****         * Using hardware buzz in conjunction with other device wakeup sources
1779:.\Generated_Source\PSoC5/cyPm.c ****         * can cause the device to lockup, halting further code execution. The
1780:.\Generated_Source\PSoC5/cyPm.c ****         * hardware buzz provides power supply supervising capability in sleep.
1781:.\Generated_Source\PSoC5/cyPm.c ****         * It is enabled by default and there is no way to disable it. So the buzz
1782:.\Generated_Source\PSoC5/cyPm.c ****         * interval is set to maximum (512 ms). The CTW must be configured to wake up
1783:.\Generated_Source\PSoC5/cyPm.c ****         * at a rate less than hardware buzz interval.
1784:.\Generated_Source\PSoC5/cyPm.c ****         ***************************************************************************/
1785:.\Generated_Source\PSoC5/cyPm.c **** 
1786:.\Generated_Source\PSoC5/cyPm.c ****         /* Save and disable LVI/HVI */
1787:.\Generated_Source\PSoC5/cyPm.c ****         CyPmHviLviSaveDisable();
 1884              		.loc 1 1787 0
 1885 00e8 FFF7FEFF 		bl	CyPmHviLviSaveDisable
1788:.\Generated_Source\PSoC5/cyPm.c **** 
1789:.\Generated_Source\PSoC5/cyPm.c ****         /* Save buzz trim value */
1790:.\Generated_Source\PSoC5/cyPm.c ****         cyPmBackup.buzzSleepTrim = CY_PM_PWRSYS_BUZZ_TR_REG & ((uint8)(~CY_PM_PWRSYS_BUZZ_TR_MASK))
 1886              		.loc 1 1790 0
 1887 00ec 44F28463 		movw	r3, #:lower16:1073759876
 1888 00f0 C4F20003 		movt	r3, #:upper16:1073759876
 1889 00f4 1B78     		ldrb	r3, [r3, #0]
 1890 00f6 DBB2     		uxtb	r3, r3
 1891 00f8 1A46     		mov	r2, r3
 1892 00fa 02F00F02 		and	r2, r2, #15
 1893 00fe 40F20003 		movw	r3, #:lower16:cyPmBackup
 1894 0102 C0F20003 		movt	r3, #:upper16:cyPmBackup
 1895 0106 5A70     		strb	r2, [r3, #1]
1791:.\Generated_Source\PSoC5/cyPm.c **** 
1792:.\Generated_Source\PSoC5/cyPm.c ****         /* Set buzz interval to maximum */
1793:.\Generated_Source\PSoC5/cyPm.c ****         CY_PM_PWRSYS_BUZZ_TR_REG = CY_PM_PWRSYS_BUZZ_TR_512_TICKS |
 1896              		.loc 1 1793 0
 1897 0108 44F28463 		movw	r3, #:lower16:1073759876
 1898 010c C4F20003 		movt	r3, #:upper16:1073759876
1794:.\Generated_Source\PSoC5/cyPm.c ****                                   (CY_PM_PWRSYS_BUZZ_TR_REG & CY_PM_PWRSYS_BUZZ_TR_MASK);
 1899              		.loc 1 1794 0
ARM GAS  C:\Users\rmcgarel\AppData\Local\Temp\ccv1YA4O.s 			page 66


 1900 0110 44F28462 		movw	r2, #:lower16:1073759876
 1901 0114 C4F20002 		movt	r2, #:upper16:1073759876
 1902 0118 1278     		ldrb	r2, [r2, #0]
 1903 011a D2B2     		uxtb	r2, r2
 1904              		.loc 1 1793 0
 1905 011c 02F0F002 		and	r2, r2, #240
 1906 0120 42F00802 		orr	r2, r2, #8
 1907 0124 D2B2     		uxtb	r2, r2
 1908 0126 1A70     		strb	r2, [r3, #0]
1795:.\Generated_Source\PSoC5/cyPm.c **** 
1796:.\Generated_Source\PSoC5/cyPm.c ****     #endif  /* (CY_PSOC5A) */
1797:.\Generated_Source\PSoC5/cyPm.c **** 
1798:.\Generated_Source\PSoC5/cyPm.c **** 
1799:.\Generated_Source\PSoC5/cyPm.c ****     #if(CY_PSOC3)
1800:.\Generated_Source\PSoC5/cyPm.c **** 
1801:.\Generated_Source\PSoC5/cyPm.c ****         /***************************************************************************
1802:.\Generated_Source\PSoC5/cyPm.c ****         * If LVI/HVI is enabled than hardware buzz in required:
1803:.\Generated_Source\PSoC5/cyPm.c ****         *  - Prepare wake trim registers
1804:.\Generated_Source\PSoC5/cyPm.c ****         *  - Disable LDO-A in proper way
1805:.\Generated_Source\PSoC5/cyPm.c ****         *
1806:.\Generated_Source\PSoC5/cyPm.c ****         * If LVI/HVI is disabled than hardware buzz in not required:
1807:.\Generated_Source\PSoC5/cyPm.c ****         *  - Disabled hardware buzz
1808:.\Generated_Source\PSoC5/cyPm.c ****         ***************************************************************************/
1809:.\Generated_Source\PSoC5/cyPm.c **** 
1810:.\Generated_Source\PSoC5/cyPm.c ****         cyPmBackup.wakeTr2 = CY_PM_PWRSYS_WAKE_TR2_REG;
1811:.\Generated_Source\PSoC5/cyPm.c **** 
1812:.\Generated_Source\PSoC5/cyPm.c ****         /* Reconfigure power mode wakeup trim registers */
1813:.\Generated_Source\PSoC5/cyPm.c ****         if(0u != (CY_PM_RESET_CR1_REG & (CY_PM_RESET_CR1_HVIA_EN |
1814:.\Generated_Source\PSoC5/cyPm.c ****                   CY_PM_RESET_CR1_LVIA_EN | CY_PM_RESET_CR1_LVID_EN)))
1815:.\Generated_Source\PSoC5/cyPm.c ****         {
1816:.\Generated_Source\PSoC5/cyPm.c ****             /* HVI/LVI is enabled - hardware buzz is required */
1817:.\Generated_Source\PSoC5/cyPm.c ****             if(CYDEV_CHIP_REV_ACTUAL < 5u)
1818:.\Generated_Source\PSoC5/cyPm.c ****             {
1819:.\Generated_Source\PSoC5/cyPm.c ****                 /* Update entire register */
1820:.\Generated_Source\PSoC5/cyPm.c ****                 CY_PM_PWRSYS_WAKE_TR2_REG = 0x3Bu;
1821:.\Generated_Source\PSoC5/cyPm.c **** 
1822:.\Generated_Source\PSoC5/cyPm.c ****                 /* Prepares for disabling LDO-A by moving bandgap reference to VCCD */
1823:.\Generated_Source\PSoC5/cyPm.c ****                 CY_PM_PWRSYS_CR1_REG = 0x01u;
1824:.\Generated_Source\PSoC5/cyPm.c **** 
1825:.\Generated_Source\PSoC5/cyPm.c ****                 /* Disables LDO-A */
1826:.\Generated_Source\PSoC5/cyPm.c ****                 CY_PM_PWRSYS_CR1_REG |= 0x02u;
1827:.\Generated_Source\PSoC5/cyPm.c ****             }
1828:.\Generated_Source\PSoC5/cyPm.c ****             else
1829:.\Generated_Source\PSoC5/cyPm.c ****             {
1830:.\Generated_Source\PSoC5/cyPm.c ****                 /* For later revisions, just enable buzz */
1831:.\Generated_Source\PSoC5/cyPm.c ****                 CY_PM_PWRSYS_WAKE_TR2_REG |= CY_PM_PWRSYS_WAKE_TR2_EN_BUZZ;
1832:.\Generated_Source\PSoC5/cyPm.c ****             }
1833:.\Generated_Source\PSoC5/cyPm.c ****         }
1834:.\Generated_Source\PSoC5/cyPm.c ****         else
1835:.\Generated_Source\PSoC5/cyPm.c ****         {
1836:.\Generated_Source\PSoC5/cyPm.c ****             /* HVI/LVI is disabled - hardware buzz is not required */
1837:.\Generated_Source\PSoC5/cyPm.c ****             if(CYDEV_CHIP_REV_ACTUAL < 5u)
1838:.\Generated_Source\PSoC5/cyPm.c ****             {
1839:.\Generated_Source\PSoC5/cyPm.c ****                 /* Update entire register */
1840:.\Generated_Source\PSoC5/cyPm.c ****                 CY_PM_PWRSYS_WAKE_TR2_REG = 0x3Au;
1841:.\Generated_Source\PSoC5/cyPm.c ****             }
1842:.\Generated_Source\PSoC5/cyPm.c ****         }
ARM GAS  C:\Users\rmcgarel\AppData\Local\Temp\ccv1YA4O.s 			page 67


1843:.\Generated_Source\PSoC5/cyPm.c **** 
1844:.\Generated_Source\PSoC5/cyPm.c ****     #endif  /* (CY_PSOC3) */
1845:.\Generated_Source\PSoC5/cyPm.c **** 
1846:.\Generated_Source\PSoC5/cyPm.c ****     /* Apply configuration that are same for Sleep and Hibernate */
1847:.\Generated_Source\PSoC5/cyPm.c ****     CyPmHibSlpSaveSet();
 1909              		.loc 1 1847 0
 1910 0128 FFF7FEFF 		bl	CyPmHibSlpSaveSet
1848:.\Generated_Source\PSoC5/cyPm.c **** }
 1911              		.loc 1 1848 0
 1912 012c 80BD     		pop	{r7, pc}
 1913              		.cfi_endproc
 1914              	.LFE14:
 1915              		.size	CyPmSlpSaveSet, .-CyPmSlpSaveSet
 1916 012e 00BF     		.section	.text.CyPmSlpRestore,"ax",%progbits
 1917              		.align	2
 1918              		.thumb
 1919              		.thumb_func
 1920              		.type	CyPmSlpRestore, %function
 1921              	CyPmSlpRestore:
 1922              	.LFB15:
1849:.\Generated_Source\PSoC5/cyPm.c **** 
1850:.\Generated_Source\PSoC5/cyPm.c **** 
1851:.\Generated_Source\PSoC5/cyPm.c **** /*******************************************************************************
1852:.\Generated_Source\PSoC5/cyPm.c **** * Function Name: CyPmSlpRestore
1853:.\Generated_Source\PSoC5/cyPm.c **** ********************************************************************************
1854:.\Generated_Source\PSoC5/cyPm.c **** *
1855:.\Generated_Source\PSoC5/cyPm.c **** * Summary:
1856:.\Generated_Source\PSoC5/cyPm.c **** *  Restore device for proper Sleep mode exit:
1857:.\Generated_Source\PSoC5/cyPm.c **** *  - Restore timewheel configuration (PSoC 5)
1858:.\Generated_Source\PSoC5/cyPm.c **** *  - Restore PRES-A and PRES-D (PSoC 5)
1859:.\Generated_Source\PSoC5/cyPm.c **** *  - Restore PICU interrupts (PSoC 5)
1860:.\Generated_Source\PSoC5/cyPm.c **** *  - Restore LVI/HVI configuration (PSoC 3)
1861:.\Generated_Source\PSoC5/cyPm.c **** *  - Restore buzz sleep trim value (PSoC 5)
1862:.\Generated_Source\PSoC5/cyPm.c **** *  - Call to CyPmHibSlpSaveRestore()
1863:.\Generated_Source\PSoC5/cyPm.c **** *
1864:.\Generated_Source\PSoC5/cyPm.c **** * Parameters:
1865:.\Generated_Source\PSoC5/cyPm.c **** *  None
1866:.\Generated_Source\PSoC5/cyPm.c **** *
1867:.\Generated_Source\PSoC5/cyPm.c **** * Return:
1868:.\Generated_Source\PSoC5/cyPm.c **** *  None
1869:.\Generated_Source\PSoC5/cyPm.c **** *
1870:.\Generated_Source\PSoC5/cyPm.c **** *******************************************************************************/
1871:.\Generated_Source\PSoC5/cyPm.c **** static void CyPmSlpRestore(void) 
1872:.\Generated_Source\PSoC5/cyPm.c **** {
 1923              		.loc 1 1872 0
 1924              		.cfi_startproc
 1925              		@ args = 0, pretend = 0, frame = 0
 1926              		@ frame_needed = 1, uses_anonymous_args = 0
 1927 0000 80B5     		push	{r7, lr}
 1928              	.LCFI37:
 1929              		.cfi_def_cfa_offset 8
 1930 0002 00AF     		add	r7, sp, #0
 1931              		.cfi_offset 14, -4
 1932              		.cfi_offset 7, -8
 1933              	.LCFI38:
 1934              		.cfi_def_cfa_register 7
1873:.\Generated_Source\PSoC5/cyPm.c ****     #if(CY_PSOC5A)
ARM GAS  C:\Users\rmcgarel\AppData\Local\Temp\ccv1YA4O.s 			page 68


1874:.\Generated_Source\PSoC5/cyPm.c **** 
1875:.\Generated_Source\PSoC5/cyPm.c ****         /* Restore the Timewheel Configuration Register 2 */
1876:.\Generated_Source\PSoC5/cyPm.c ****         CY_PM_TW_CFG2_REG = cyPmBackup.pmTwCfg2;
 1935              		.loc 1 1876 0
 1936 0004 44F28233 		movw	r3, #:lower16:1073759106
 1937 0008 C4F20003 		movt	r3, #:upper16:1073759106
 1938 000c 40F20002 		movw	r2, #:lower16:cyPmBackup
 1939 0010 C0F20002 		movt	r2, #:upper16:cyPmBackup
 1940 0014 92F85120 		ldrb	r2, [r2, #81]	@ zero_extendqisi2
 1941 0018 1A70     		strb	r2, [r3, #0]
1877:.\Generated_Source\PSoC5/cyPm.c **** 
1878:.\Generated_Source\PSoC5/cyPm.c ****         /* Restore PICU interrupts */
1879:.\Generated_Source\PSoC5/cyPm.c ****         CyPmRestorePicuInterrupts();
 1942              		.loc 1 1879 0
 1943 001a FFF7FEFF 		bl	CyPmRestorePicuInterrupts
1880:.\Generated_Source\PSoC5/cyPm.c **** 
1881:.\Generated_Source\PSoC5/cyPm.c ****         /* Restore PRES-A and PRES-D (assumed they were disabled) */
1882:.\Generated_Source\PSoC5/cyPm.c ****         CY_PM_RESET_CR1_REG |= cyPmBackup.pres1;
 1944              		.loc 1 1882 0
 1945 001e 44F2F563 		movw	r3, #:lower16:1073759989
 1946 0022 C4F20003 		movt	r3, #:upper16:1073759989
 1947 0026 44F2F562 		movw	r2, #:lower16:1073759989
 1948 002a C4F20002 		movt	r2, #:upper16:1073759989
 1949 002e 1278     		ldrb	r2, [r2, #0]
 1950 0030 D1B2     		uxtb	r1, r2
 1951 0032 40F20002 		movw	r2, #:lower16:cyPmBackup
 1952 0036 C0F20002 		movt	r2, #:upper16:cyPmBackup
 1953 003a 92F89A20 		ldrb	r2, [r2, #154]	@ zero_extendqisi2
 1954 003e 41EA0202 		orr	r2, r1, r2
 1955 0042 D2B2     		uxtb	r2, r2
 1956 0044 1A70     		strb	r2, [r3, #0]
1883:.\Generated_Source\PSoC5/cyPm.c ****         CY_PM_RESET_CR3_REG |= cyPmBackup.pres2;
 1957              		.loc 1 1883 0
 1958 0046 44F2F763 		movw	r3, #:lower16:1073759991
 1959 004a C4F20003 		movt	r3, #:upper16:1073759991
 1960 004e 44F2F762 		movw	r2, #:lower16:1073759991
 1961 0052 C4F20002 		movt	r2, #:upper16:1073759991
 1962 0056 1278     		ldrb	r2, [r2, #0]
 1963 0058 D1B2     		uxtb	r1, r2
 1964 005a 40F20002 		movw	r2, #:lower16:cyPmBackup
 1965 005e C0F20002 		movt	r2, #:upper16:cyPmBackup
 1966 0062 92F89B20 		ldrb	r2, [r2, #155]	@ zero_extendqisi2
 1967 0066 41EA0202 		orr	r2, r1, r2
 1968 006a D2B2     		uxtb	r2, r2
 1969 006c 1A70     		strb	r2, [r3, #0]
1884:.\Generated_Source\PSoC5/cyPm.c **** 
1885:.\Generated_Source\PSoC5/cyPm.c ****     #endif /* (CY_PSOC5A) */
1886:.\Generated_Source\PSoC5/cyPm.c **** 
1887:.\Generated_Source\PSoC5/cyPm.c **** 
1888:.\Generated_Source\PSoC5/cyPm.c ****     #if(CY_PSOC5A)
1889:.\Generated_Source\PSoC5/cyPm.c **** 
1890:.\Generated_Source\PSoC5/cyPm.c ****         /* Restore LVI/HVI configuration */
1891:.\Generated_Source\PSoC5/cyPm.c ****         CyPmHviLviRestore();
 1970              		.loc 1 1891 0
 1971 006e FFF7FEFF 		bl	CyPmHviLviRestore
1892:.\Generated_Source\PSoC5/cyPm.c **** 
1893:.\Generated_Source\PSoC5/cyPm.c ****         /* Restore buzz sleep trim value */
ARM GAS  C:\Users\rmcgarel\AppData\Local\Temp\ccv1YA4O.s 			page 69


1894:.\Generated_Source\PSoC5/cyPm.c ****         CY_PM_PWRSYS_BUZZ_TR_REG = cyPmBackup.buzzSleepTrim |
 1972              		.loc 1 1894 0
 1973 0072 44F28463 		movw	r3, #:lower16:1073759876
 1974 0076 C4F20003 		movt	r3, #:upper16:1073759876
 1975 007a 40F20002 		movw	r2, #:lower16:cyPmBackup
 1976 007e C0F20002 		movt	r2, #:upper16:cyPmBackup
 1977 0082 5178     		ldrb	r1, [r2, #1]	@ zero_extendqisi2
1895:.\Generated_Source\PSoC5/cyPm.c ****                                   (CY_PM_PWRSYS_BUZZ_TR_REG & CY_PM_PWRSYS_BUZZ_TR_MASK);
 1978              		.loc 1 1895 0
 1979 0084 44F28462 		movw	r2, #:lower16:1073759876
 1980 0088 C4F20002 		movt	r2, #:upper16:1073759876
 1981 008c 1278     		ldrb	r2, [r2, #0]
 1982 008e D2B2     		uxtb	r2, r2
 1983              		.loc 1 1894 0
 1984 0090 02F0F002 		and	r2, r2, #240
 1985 0094 41EA0202 		orr	r2, r1, r2
 1986 0098 D2B2     		uxtb	r2, r2
 1987 009a 1A70     		strb	r2, [r3, #0]
1896:.\Generated_Source\PSoC5/cyPm.c **** 
1897:.\Generated_Source\PSoC5/cyPm.c ****     #endif  /* (CY_PSOC5A) */
1898:.\Generated_Source\PSoC5/cyPm.c **** 
1899:.\Generated_Source\PSoC5/cyPm.c **** 
1900:.\Generated_Source\PSoC5/cyPm.c ****     #if(CY_PSOC3)
1901:.\Generated_Source\PSoC5/cyPm.c **** 
1902:.\Generated_Source\PSoC5/cyPm.c ****         CY_PM_PWRSYS_WAKE_TR2_REG = cyPmBackup.wakeTr2;
1903:.\Generated_Source\PSoC5/cyPm.c **** 
1904:.\Generated_Source\PSoC5/cyPm.c ****         /* HVI/LVI is enabled - hardware buzz is required */
1905:.\Generated_Source\PSoC5/cyPm.c ****         if(CYDEV_CHIP_REV_ACTUAL < 5u)
1906:.\Generated_Source\PSoC5/cyPm.c ****         {
1907:.\Generated_Source\PSoC5/cyPm.c ****             /* Reconfigure power mode wakeup trim registers */
1908:.\Generated_Source\PSoC5/cyPm.c ****             if(0u != (CY_PM_RESET_CR1_REG & (CY_PM_RESET_CR1_HVIA_EN |
1909:.\Generated_Source\PSoC5/cyPm.c ****                       CY_PM_RESET_CR1_LVIA_EN | CY_PM_RESET_CR1_LVID_EN)))
1910:.\Generated_Source\PSoC5/cyPm.c ****             {
1911:.\Generated_Source\PSoC5/cyPm.c ****                 /* Enables LDO-A */
1912:.\Generated_Source\PSoC5/cyPm.c ****                 CY_PM_PWRSYS_CR1_REG &= ((uint8)(~0x02u));
1913:.\Generated_Source\PSoC5/cyPm.c **** 
1914:.\Generated_Source\PSoC5/cyPm.c ****                 /* Moves bandgap reference back to VCCA */
1915:.\Generated_Source\PSoC5/cyPm.c ****                 CY_PM_PWRSYS_CR1_REG &= ((uint8)(~0x01u));
1916:.\Generated_Source\PSoC5/cyPm.c ****             }
1917:.\Generated_Source\PSoC5/cyPm.c ****         }
1918:.\Generated_Source\PSoC5/cyPm.c **** 
1919:.\Generated_Source\PSoC5/cyPm.c ****     #endif  /* (CY_PSOC3) */
1920:.\Generated_Source\PSoC5/cyPm.c **** 
1921:.\Generated_Source\PSoC5/cyPm.c **** 
1922:.\Generated_Source\PSoC5/cyPm.c ****     /* Restore configuration that are same for Sleep and Hibernate */
1923:.\Generated_Source\PSoC5/cyPm.c ****     CyPmHibSlpRestore();
 1988              		.loc 1 1923 0
 1989 009c FFF7FEFF 		bl	CyPmHibSlpRestore
1924:.\Generated_Source\PSoC5/cyPm.c **** }
 1990              		.loc 1 1924 0
 1991 00a0 80BD     		pop	{r7, pc}
 1992              		.cfi_endproc
 1993              	.LFE15:
 1994              		.size	CyPmSlpRestore, .-CyPmSlpRestore
 1995 00a2 00BF     		.section	.text.CyPmHibSlpSaveSet,"ax",%progbits
 1996              		.align	2
 1997              		.thumb
ARM GAS  C:\Users\rmcgarel\AppData\Local\Temp\ccv1YA4O.s 			page 70


 1998              		.thumb_func
 1999              		.type	CyPmHibSlpSaveSet, %function
 2000              	CyPmHibSlpSaveSet:
 2001              	.LFB16:
1925:.\Generated_Source\PSoC5/cyPm.c **** 
1926:.\Generated_Source\PSoC5/cyPm.c **** 
1927:.\Generated_Source\PSoC5/cyPm.c **** /*******************************************************************************
1928:.\Generated_Source\PSoC5/cyPm.c **** * Function Name: CyPmHibSlpSaveSet
1929:.\Generated_Source\PSoC5/cyPm.c **** ********************************************************************************
1930:.\Generated_Source\PSoC5/cyPm.c **** *
1931:.\Generated_Source\PSoC5/cyPm.c **** * Summary:
1932:.\Generated_Source\PSoC5/cyPm.c **** *  This API is used for preparing device for Sleep and Hibernate low power
1933:.\Generated_Source\PSoC5/cyPm.c **** *  modes entry:
1934:.\Generated_Source\PSoC5/cyPm.c **** *  - Saves COMP, VIDAC, DSM and SAR routing connections (PSoC 5)
1935:.\Generated_Source\PSoC5/cyPm.c **** *  - Saves SC/CT routing connections (PSoC 3/5/5LP)
1936:.\Generated_Source\PSoC5/cyPm.c **** *  - Disables Serial Wire Viewer (SWV) (PSoC 3)
1937:.\Generated_Source\PSoC5/cyPm.c **** *  - Save boost reference selection and set it to internal
1938:.\Generated_Source\PSoC5/cyPm.c **** *
1939:.\Generated_Source\PSoC5/cyPm.c **** * Parameters:
1940:.\Generated_Source\PSoC5/cyPm.c **** *  None
1941:.\Generated_Source\PSoC5/cyPm.c **** *
1942:.\Generated_Source\PSoC5/cyPm.c **** * Return:
1943:.\Generated_Source\PSoC5/cyPm.c **** *  None
1944:.\Generated_Source\PSoC5/cyPm.c **** *
1945:.\Generated_Source\PSoC5/cyPm.c **** * Reentrant:
1946:.\Generated_Source\PSoC5/cyPm.c **** *  No
1947:.\Generated_Source\PSoC5/cyPm.c **** *
1948:.\Generated_Source\PSoC5/cyPm.c **** *******************************************************************************/
1949:.\Generated_Source\PSoC5/cyPm.c **** static void CyPmHibSlpSaveSet(void) 
1950:.\Generated_Source\PSoC5/cyPm.c **** {
 2002              		.loc 1 1950 0
 2003              		.cfi_startproc
 2004              		@ args = 0, pretend = 0, frame = 0
 2005              		@ frame_needed = 1, uses_anonymous_args = 0
 2006              		@ link register save eliminated.
 2007 0000 80B4     		push	{r7}
 2008              	.LCFI39:
 2009              		.cfi_def_cfa_offset 4
 2010 0002 00AF     		add	r7, sp, #0
 2011              		.cfi_offset 7, -4
 2012              	.LCFI40:
 2013              		.cfi_def_cfa_register 7
1951:.\Generated_Source\PSoC5/cyPm.c ****     #if(CY_PSOC5A)
1952:.\Generated_Source\PSoC5/cyPm.c **** 
1953:.\Generated_Source\PSoC5/cyPm.c ****         /* Save CMP routing registers */
1954:.\Generated_Source\PSoC5/cyPm.c ****         cyPmBackup.cmpData[0u]  = CY_GET_REG8(CYREG_CMP0_SW0);
 2014              		.loc 1 1954 0
 2015 0004 45F6C023 		movw	r3, #:lower16:1073765056
 2016 0008 C4F20003 		movt	r3, #:upper16:1073765056
 2017 000c 1B78     		ldrb	r3, [r3, #0]
 2018 000e DAB2     		uxtb	r2, r3
 2019 0010 40F20003 		movw	r3, #:lower16:cyPmBackup
 2020 0014 C0F20003 		movt	r3, #:upper16:cyPmBackup
 2021 0018 9A77     		strb	r2, [r3, #30]
1955:.\Generated_Source\PSoC5/cyPm.c ****         cyPmBackup.cmpData[1u]  = CY_GET_REG8(CYREG_CMP0_SW2);
 2022              		.loc 1 1955 0
 2023 001a 45F6C223 		movw	r3, #:lower16:1073765058
ARM GAS  C:\Users\rmcgarel\AppData\Local\Temp\ccv1YA4O.s 			page 71


 2024 001e C4F20003 		movt	r3, #:upper16:1073765058
 2025 0022 1B78     		ldrb	r3, [r3, #0]
 2026 0024 DAB2     		uxtb	r2, r3
 2027 0026 40F20003 		movw	r3, #:lower16:cyPmBackup
 2028 002a C0F20003 		movt	r3, #:upper16:cyPmBackup
 2029 002e DA77     		strb	r2, [r3, #31]
1956:.\Generated_Source\PSoC5/cyPm.c ****         cyPmBackup.cmpData[2u]  = CY_GET_REG8(CYREG_CMP0_SW3);
 2030              		.loc 1 1956 0
 2031 0030 45F6C323 		movw	r3, #:lower16:1073765059
 2032 0034 C4F20003 		movt	r3, #:upper16:1073765059
 2033 0038 1B78     		ldrb	r3, [r3, #0]
 2034 003a DAB2     		uxtb	r2, r3
 2035 003c 40F20003 		movw	r3, #:lower16:cyPmBackup
 2036 0040 C0F20003 		movt	r3, #:upper16:cyPmBackup
 2037 0044 83F82020 		strb	r2, [r3, #32]
1957:.\Generated_Source\PSoC5/cyPm.c ****         cyPmBackup.cmpData[3u]  = CY_GET_REG8(CYREG_CMP0_SW4);
 2038              		.loc 1 1957 0
 2039 0048 45F6C423 		movw	r3, #:lower16:1073765060
 2040 004c C4F20003 		movt	r3, #:upper16:1073765060
 2041 0050 1B78     		ldrb	r3, [r3, #0]
 2042 0052 DAB2     		uxtb	r2, r3
 2043 0054 40F20003 		movw	r3, #:lower16:cyPmBackup
 2044 0058 C0F20003 		movt	r3, #:upper16:cyPmBackup
 2045 005c 83F82120 		strb	r2, [r3, #33]
1958:.\Generated_Source\PSoC5/cyPm.c ****         cyPmBackup.cmpData[4u]  = CY_GET_REG8(CYREG_CMP0_SW6);
 2046              		.loc 1 1958 0
 2047 0060 45F6C623 		movw	r3, #:lower16:1073765062
 2048 0064 C4F20003 		movt	r3, #:upper16:1073765062
 2049 0068 1B78     		ldrb	r3, [r3, #0]
 2050 006a DAB2     		uxtb	r2, r3
 2051 006c 40F20003 		movw	r3, #:lower16:cyPmBackup
 2052 0070 C0F20003 		movt	r3, #:upper16:cyPmBackup
 2053 0074 83F82220 		strb	r2, [r3, #34]
1959:.\Generated_Source\PSoC5/cyPm.c **** 
1960:.\Generated_Source\PSoC5/cyPm.c ****         cyPmBackup.cmpData[5u]  = CY_GET_REG8(CYREG_CMP1_SW0);
 2054              		.loc 1 1960 0
 2055 0078 45F6C823 		movw	r3, #:lower16:1073765064
 2056 007c C4F20003 		movt	r3, #:upper16:1073765064
 2057 0080 1B78     		ldrb	r3, [r3, #0]
 2058 0082 DAB2     		uxtb	r2, r3
 2059 0084 40F20003 		movw	r3, #:lower16:cyPmBackup
 2060 0088 C0F20003 		movt	r3, #:upper16:cyPmBackup
 2061 008c 83F82320 		strb	r2, [r3, #35]
1961:.\Generated_Source\PSoC5/cyPm.c ****         cyPmBackup.cmpData[6u]  = CY_GET_REG8(CYREG_CMP1_SW2);
 2062              		.loc 1 1961 0
 2063 0090 45F6CA23 		movw	r3, #:lower16:1073765066
 2064 0094 C4F20003 		movt	r3, #:upper16:1073765066
 2065 0098 1B78     		ldrb	r3, [r3, #0]
 2066 009a DAB2     		uxtb	r2, r3
 2067 009c 40F20003 		movw	r3, #:lower16:cyPmBackup
 2068 00a0 C0F20003 		movt	r3, #:upper16:cyPmBackup
 2069 00a4 83F82420 		strb	r2, [r3, #36]
1962:.\Generated_Source\PSoC5/cyPm.c ****         cyPmBackup.cmpData[7u]  = CY_GET_REG8(CYREG_CMP1_SW3);
 2070              		.loc 1 1962 0
 2071 00a8 45F6CB23 		movw	r3, #:lower16:1073765067
 2072 00ac C4F20003 		movt	r3, #:upper16:1073765067
 2073 00b0 1B78     		ldrb	r3, [r3, #0]
ARM GAS  C:\Users\rmcgarel\AppData\Local\Temp\ccv1YA4O.s 			page 72


 2074 00b2 DAB2     		uxtb	r2, r3
 2075 00b4 40F20003 		movw	r3, #:lower16:cyPmBackup
 2076 00b8 C0F20003 		movt	r3, #:upper16:cyPmBackup
 2077 00bc 83F82520 		strb	r2, [r3, #37]
1963:.\Generated_Source\PSoC5/cyPm.c ****         cyPmBackup.cmpData[8u]  = CY_GET_REG8(CYREG_CMP1_SW4);
 2078              		.loc 1 1963 0
 2079 00c0 45F6CC23 		movw	r3, #:lower16:1073765068
 2080 00c4 C4F20003 		movt	r3, #:upper16:1073765068
 2081 00c8 1B78     		ldrb	r3, [r3, #0]
 2082 00ca DAB2     		uxtb	r2, r3
 2083 00cc 40F20003 		movw	r3, #:lower16:cyPmBackup
 2084 00d0 C0F20003 		movt	r3, #:upper16:cyPmBackup
 2085 00d4 83F82620 		strb	r2, [r3, #38]
1964:.\Generated_Source\PSoC5/cyPm.c ****         cyPmBackup.cmpData[9u]  = CY_GET_REG8(CYREG_CMP1_SW6);
 2086              		.loc 1 1964 0
 2087 00d8 45F6CE23 		movw	r3, #:lower16:1073765070
 2088 00dc C4F20003 		movt	r3, #:upper16:1073765070
 2089 00e0 1B78     		ldrb	r3, [r3, #0]
 2090 00e2 DAB2     		uxtb	r2, r3
 2091 00e4 40F20003 		movw	r3, #:lower16:cyPmBackup
 2092 00e8 C0F20003 		movt	r3, #:upper16:cyPmBackup
 2093 00ec 83F82720 		strb	r2, [r3, #39]
1965:.\Generated_Source\PSoC5/cyPm.c **** 
1966:.\Generated_Source\PSoC5/cyPm.c ****         cyPmBackup.cmpData[10u] = CY_GET_REG8(CYREG_CMP2_SW0);
 2094              		.loc 1 1966 0
 2095 00f0 45F6D023 		movw	r3, #:lower16:1073765072
 2096 00f4 C4F20003 		movt	r3, #:upper16:1073765072
 2097 00f8 1B78     		ldrb	r3, [r3, #0]
 2098 00fa DAB2     		uxtb	r2, r3
 2099 00fc 40F20003 		movw	r3, #:lower16:cyPmBackup
 2100 0100 C0F20003 		movt	r3, #:upper16:cyPmBackup
 2101 0104 83F82820 		strb	r2, [r3, #40]
1967:.\Generated_Source\PSoC5/cyPm.c ****         cyPmBackup.cmpData[11u] = CY_GET_REG8(CYREG_CMP2_SW2);
 2102              		.loc 1 1967 0
 2103 0108 45F6D223 		movw	r3, #:lower16:1073765074
 2104 010c C4F20003 		movt	r3, #:upper16:1073765074
 2105 0110 1B78     		ldrb	r3, [r3, #0]
 2106 0112 DAB2     		uxtb	r2, r3
 2107 0114 40F20003 		movw	r3, #:lower16:cyPmBackup
 2108 0118 C0F20003 		movt	r3, #:upper16:cyPmBackup
 2109 011c 83F82920 		strb	r2, [r3, #41]
1968:.\Generated_Source\PSoC5/cyPm.c ****         cyPmBackup.cmpData[12u] = CY_GET_REG8(CYREG_CMP2_SW3);
 2110              		.loc 1 1968 0
 2111 0120 45F6D323 		movw	r3, #:lower16:1073765075
 2112 0124 C4F20003 		movt	r3, #:upper16:1073765075
 2113 0128 1B78     		ldrb	r3, [r3, #0]
 2114 012a DAB2     		uxtb	r2, r3
 2115 012c 40F20003 		movw	r3, #:lower16:cyPmBackup
 2116 0130 C0F20003 		movt	r3, #:upper16:cyPmBackup
 2117 0134 83F82A20 		strb	r2, [r3, #42]
1969:.\Generated_Source\PSoC5/cyPm.c ****         cyPmBackup.cmpData[13u] = CY_GET_REG8(CYREG_CMP2_SW4);
 2118              		.loc 1 1969 0
 2119 0138 45F6D423 		movw	r3, #:lower16:1073765076
 2120 013c C4F20003 		movt	r3, #:upper16:1073765076
 2121 0140 1B78     		ldrb	r3, [r3, #0]
 2122 0142 DAB2     		uxtb	r2, r3
 2123 0144 40F20003 		movw	r3, #:lower16:cyPmBackup
ARM GAS  C:\Users\rmcgarel\AppData\Local\Temp\ccv1YA4O.s 			page 73


 2124 0148 C0F20003 		movt	r3, #:upper16:cyPmBackup
 2125 014c 83F82B20 		strb	r2, [r3, #43]
1970:.\Generated_Source\PSoC5/cyPm.c ****         cyPmBackup.cmpData[14u] = CY_GET_REG8(CYREG_CMP2_SW6);
 2126              		.loc 1 1970 0
 2127 0150 45F6D623 		movw	r3, #:lower16:1073765078
 2128 0154 C4F20003 		movt	r3, #:upper16:1073765078
 2129 0158 1B78     		ldrb	r3, [r3, #0]
 2130 015a DAB2     		uxtb	r2, r3
 2131 015c 40F20003 		movw	r3, #:lower16:cyPmBackup
 2132 0160 C0F20003 		movt	r3, #:upper16:cyPmBackup
 2133 0164 83F82C20 		strb	r2, [r3, #44]
1971:.\Generated_Source\PSoC5/cyPm.c **** 
1972:.\Generated_Source\PSoC5/cyPm.c ****         cyPmBackup.cmpData[15u] = CY_GET_REG8(CYREG_CMP3_SW0);
 2134              		.loc 1 1972 0
 2135 0168 45F6D823 		movw	r3, #:lower16:1073765080
 2136 016c C4F20003 		movt	r3, #:upper16:1073765080
 2137 0170 1B78     		ldrb	r3, [r3, #0]
 2138 0172 DAB2     		uxtb	r2, r3
 2139 0174 40F20003 		movw	r3, #:lower16:cyPmBackup
 2140 0178 C0F20003 		movt	r3, #:upper16:cyPmBackup
 2141 017c 83F82D20 		strb	r2, [r3, #45]
1973:.\Generated_Source\PSoC5/cyPm.c ****         cyPmBackup.cmpData[16u] = CY_GET_REG8(CYREG_CMP3_SW2);
 2142              		.loc 1 1973 0
 2143 0180 45F6DA23 		movw	r3, #:lower16:1073765082
 2144 0184 C4F20003 		movt	r3, #:upper16:1073765082
 2145 0188 1B78     		ldrb	r3, [r3, #0]
 2146 018a DAB2     		uxtb	r2, r3
 2147 018c 40F20003 		movw	r3, #:lower16:cyPmBackup
 2148 0190 C0F20003 		movt	r3, #:upper16:cyPmBackup
 2149 0194 83F82E20 		strb	r2, [r3, #46]
1974:.\Generated_Source\PSoC5/cyPm.c ****         cyPmBackup.cmpData[17u] = CY_GET_REG8(CYREG_CMP3_SW3);
 2150              		.loc 1 1974 0
 2151 0198 45F6DB23 		movw	r3, #:lower16:1073765083
 2152 019c C4F20003 		movt	r3, #:upper16:1073765083
 2153 01a0 1B78     		ldrb	r3, [r3, #0]
 2154 01a2 DAB2     		uxtb	r2, r3
 2155 01a4 40F20003 		movw	r3, #:lower16:cyPmBackup
 2156 01a8 C0F20003 		movt	r3, #:upper16:cyPmBackup
 2157 01ac 83F82F20 		strb	r2, [r3, #47]
1975:.\Generated_Source\PSoC5/cyPm.c ****         cyPmBackup.cmpData[18u] = CY_GET_REG8(CYREG_CMP3_SW4);
 2158              		.loc 1 1975 0
 2159 01b0 45F6DC23 		movw	r3, #:lower16:1073765084
 2160 01b4 C4F20003 		movt	r3, #:upper16:1073765084
 2161 01b8 1B78     		ldrb	r3, [r3, #0]
 2162 01ba DAB2     		uxtb	r2, r3
 2163 01bc 40F20003 		movw	r3, #:lower16:cyPmBackup
 2164 01c0 C0F20003 		movt	r3, #:upper16:cyPmBackup
 2165 01c4 83F83020 		strb	r2, [r3, #48]
1976:.\Generated_Source\PSoC5/cyPm.c ****         cyPmBackup.cmpData[19u] = CY_GET_REG8(CYREG_CMP3_SW6);
 2166              		.loc 1 1976 0
 2167 01c8 45F6DE23 		movw	r3, #:lower16:1073765086
 2168 01cc C4F20003 		movt	r3, #:upper16:1073765086
 2169 01d0 1B78     		ldrb	r3, [r3, #0]
 2170 01d2 DAB2     		uxtb	r2, r3
 2171 01d4 40F20003 		movw	r3, #:lower16:cyPmBackup
 2172 01d8 C0F20003 		movt	r3, #:upper16:cyPmBackup
 2173 01dc 83F83120 		strb	r2, [r3, #49]
ARM GAS  C:\Users\rmcgarel\AppData\Local\Temp\ccv1YA4O.s 			page 74


1977:.\Generated_Source\PSoC5/cyPm.c **** 
1978:.\Generated_Source\PSoC5/cyPm.c **** 
1979:.\Generated_Source\PSoC5/cyPm.c ****         /* Clear CMP routing registers */
1980:.\Generated_Source\PSoC5/cyPm.c ****         CY_SET_REG8(CYREG_CMP0_SW0 , 0u);
 2174              		.loc 1 1980 0
 2175 01e0 45F6C023 		movw	r3, #:lower16:1073765056
 2176 01e4 C4F20003 		movt	r3, #:upper16:1073765056
 2177 01e8 4FF00002 		mov	r2, #0
 2178 01ec 1A70     		strb	r2, [r3, #0]
1981:.\Generated_Source\PSoC5/cyPm.c ****         CY_SET_REG8(CYREG_CMP0_SW2 , 0u);
 2179              		.loc 1 1981 0
 2180 01ee 45F6C223 		movw	r3, #:lower16:1073765058
 2181 01f2 C4F20003 		movt	r3, #:upper16:1073765058
 2182 01f6 4FF00002 		mov	r2, #0
 2183 01fa 1A70     		strb	r2, [r3, #0]
1982:.\Generated_Source\PSoC5/cyPm.c ****         CY_SET_REG8(CYREG_CMP0_SW3 , 0u);
 2184              		.loc 1 1982 0
 2185 01fc 45F6C323 		movw	r3, #:lower16:1073765059
