ARM GAS  C:\Users\rmcgarel\AppData\Local\Temp\ccv1YA4O.s 			page 1


   1              		.syntax unified
   2              		.cpu cortex-m3
   3              		.fpu softvfp
   4              		.eabi_attribute 20, 1
   5              		.eabi_attribute 21, 1
   6              		.eabi_attribute 23, 3
   7              		.eabi_attribute 24, 1
   8              		.eabi_attribute 25, 1
   9              		.eabi_attribute 26, 1
  10              		.eabi_attribute 30, 6
  11              		.eabi_attribute 18, 4
  12              		.thumb
  13              		.file	"cyPm.c"
  14              		.section	.debug_abbrev,"",%progbits
  15              	.Ldebug_abbrev0:
  16              		.section	.debug_info,"",%progbits
  17              	.Ldebug_info0:
  18              		.section	.debug_line,"",%progbits
  19              	.Ldebug_line0:
  20 0000 F0030000 		.text
  20      02006700 
  20      00000201 
  20      FB0E0D00 
  20      01010101 
  21              	.Ltext0:
  22              		.cfi_sections	.debug_frame
  23              		.bss
  24              		.align	2
  25              	cyPmBackup:
  26 0000 00000000 		.space	166
  26      00000000 
  26      00000000 
  26      00000000 
  26      00000000 
  27 00a6 0000     		.align	2
  28              	cyPmClockBackup:
  29 00a8 00000000 		.space	18
  29      00000000 
  29      00000000 
  29      00000000 
  29      0000
  30              		.section	.rodata
  31              		.align	2
  32              		.type	cyPmImoFreqReg2Mhz, %object
  33              		.size	cyPmImoFreqReg2Mhz, 7
  34              	cyPmImoFreqReg2Mhz:
  35 0000 0C       		.byte	12
  36 0001 06       		.byte	6
  37 0002 18       		.byte	24
  38 0003 03       		.byte	3
  39 0004 30       		.byte	48
  40 0005 3E       		.byte	62
  41 0006 4A       		.byte	74
  42              		.section	.text.CyPmSaveClocks,"ax",%progbits
  43              		.align	2
  44              		.global	CyPmSaveClocks
  45              		.thumb
ARM GAS  C:\Users\rmcgarel\AppData\Local\Temp\ccv1YA4O.s 			page 2


  46              		.thumb_func
  47              		.type	CyPmSaveClocks, %function
  48              	CyPmSaveClocks:
  49              	.LFB0:
  50              		.file 1 ".\\Generated_Source\\PSoC5\\cyPm.c"
   1:.\Generated_Source\PSoC5/cyPm.c **** /*******************************************************************************
   2:.\Generated_Source\PSoC5/cyPm.c **** * File Name: cyPm.c
   3:.\Generated_Source\PSoC5/cyPm.c **** * Version 3.30
   4:.\Generated_Source\PSoC5/cyPm.c **** *
   5:.\Generated_Source\PSoC5/cyPm.c **** * Description:
   6:.\Generated_Source\PSoC5/cyPm.c **** *  Provides an API for the power management.
   7:.\Generated_Source\PSoC5/cyPm.c **** *
   8:.\Generated_Source\PSoC5/cyPm.c **** * Note:
   9:.\Generated_Source\PSoC5/cyPm.c **** *  Documentation of the API's in this file is located in the
  10:.\Generated_Source\PSoC5/cyPm.c **** *  System Reference Guide provided with PSoC Creator.
  11:.\Generated_Source\PSoC5/cyPm.c **** *
  12:.\Generated_Source\PSoC5/cyPm.c **** ********************************************************************************
  13:.\Generated_Source\PSoC5/cyPm.c **** * Copyright 2008-2012, Cypress Semiconductor Corporation.  All rights reserved.
  14:.\Generated_Source\PSoC5/cyPm.c **** * You may use this file only in accordance with the license, terms, conditions,
  15:.\Generated_Source\PSoC5/cyPm.c **** * disclaimers, and limitations in the end user license agreement accompanying
  16:.\Generated_Source\PSoC5/cyPm.c **** * the software package with which this file was provided.
  17:.\Generated_Source\PSoC5/cyPm.c **** *******************************************************************************/
  18:.\Generated_Source\PSoC5/cyPm.c **** 
  19:.\Generated_Source\PSoC5/cyPm.c **** #include "cyPm.h"
  20:.\Generated_Source\PSoC5/cyPm.c **** 
  21:.\Generated_Source\PSoC5/cyPm.c **** 
  22:.\Generated_Source\PSoC5/cyPm.c **** /*******************************************************************
  23:.\Generated_Source\PSoC5/cyPm.c **** * Place your includes, defines and code here. Do not use merge
  24:.\Generated_Source\PSoC5/cyPm.c **** * region below unless any component datasheet suggest to do so.
  25:.\Generated_Source\PSoC5/cyPm.c **** *******************************************************************/
  26:.\Generated_Source\PSoC5/cyPm.c **** /* `#START CY_PM_HEADER_INCLUDE` */
  27:.\Generated_Source\PSoC5/cyPm.c **** 
  28:.\Generated_Source\PSoC5/cyPm.c **** /* `#END` */
  29:.\Generated_Source\PSoC5/cyPm.c **** 
  30:.\Generated_Source\PSoC5/cyPm.c **** 
  31:.\Generated_Source\PSoC5/cyPm.c **** static CY_PM_BACKUP_STRUCT          cyPmBackup;
  32:.\Generated_Source\PSoC5/cyPm.c **** static CY_PM_CLOCK_BACKUP_STRUCT    cyPmClockBackup;
  33:.\Generated_Source\PSoC5/cyPm.c **** 
  34:.\Generated_Source\PSoC5/cyPm.c **** /* Convertion table between register's values and frequency in MHz  */
  35:.\Generated_Source\PSoC5/cyPm.c **** static const uint8 CYCODE cyPmImoFreqReg2Mhz[7u] = {12u, 6u, 24u, 3u, 48u, 62u, 74u};
  36:.\Generated_Source\PSoC5/cyPm.c **** 
  37:.\Generated_Source\PSoC5/cyPm.c **** /* Function Prototypes */
  38:.\Generated_Source\PSoC5/cyPm.c **** static void CyPmHibSaveSet(void);
  39:.\Generated_Source\PSoC5/cyPm.c **** static void CyPmHibRestore(void) ;
  40:.\Generated_Source\PSoC5/cyPm.c **** 
  41:.\Generated_Source\PSoC5/cyPm.c **** static void CyPmSlpSaveSet(void) ;
  42:.\Generated_Source\PSoC5/cyPm.c **** static void CyPmSlpRestore(void) ;
  43:.\Generated_Source\PSoC5/cyPm.c **** 
  44:.\Generated_Source\PSoC5/cyPm.c **** static void CyPmHibSlpSaveSet(void) ;
  45:.\Generated_Source\PSoC5/cyPm.c **** static void CyPmHibSlpRestore(void) ;
  46:.\Generated_Source\PSoC5/cyPm.c **** 
  47:.\Generated_Source\PSoC5/cyPm.c **** static void CyPmHviLviSaveDisable(void) ;
  48:.\Generated_Source\PSoC5/cyPm.c **** static void CyPmHviLviRestore(void) ;
  49:.\Generated_Source\PSoC5/cyPm.c **** 
  50:.\Generated_Source\PSoC5/cyPm.c **** #if(CY_PSOC5A)
  51:.\Generated_Source\PSoC5/cyPm.c **** 
  52:.\Generated_Source\PSoC5/cyPm.c ****     /***************************************************************************
ARM GAS  C:\Users\rmcgarel\AppData\Local\Temp\ccv1YA4O.s 			page 3


  53:.\Generated_Source\PSoC5/cyPm.c ****     * The PICU interupt event is not allowed to act as wakeup source for PSoC 5.
  54:.\Generated_Source\PSoC5/cyPm.c ****     * To prevent accidental wakeup all the PICU interrupts are disabled before
  55:.\Generated_Source\PSoC5/cyPm.c ****     * Sleep and Hibernate low power modes entry. In case of Sleep mode registers
  56:.\Generated_Source\PSoC5/cyPm.c ****     * values must be restored on wakeup, but in case of Hibernate low power mode
  57:.\Generated_Source\PSoC5/cyPm.c ****     * there is no sense in saving/restoring registers values as the only wakeup
  58:.\Generated_Source\PSoC5/cyPm.c ****     * source for this mode is external reset (XRES). For more information refer
  59:.\Generated_Source\PSoC5/cyPm.c ****     * to the PSoC 5 device TRM.
  60:.\Generated_Source\PSoC5/cyPm.c ****     ***************************************************************************/
  61:.\Generated_Source\PSoC5/cyPm.c **** 
  62:.\Generated_Source\PSoC5/cyPm.c ****     static void CyPmSavePicuInterrupts(void);
  63:.\Generated_Source\PSoC5/cyPm.c ****     static void CyPmDisablePicuInterrupts(void) ;
  64:.\Generated_Source\PSoC5/cyPm.c ****     static void CyPmRestorePicuInterrupts(void) ;
  65:.\Generated_Source\PSoC5/cyPm.c **** 
  66:.\Generated_Source\PSoC5/cyPm.c **** #endif  /* (CY_PSOC5A) */
  67:.\Generated_Source\PSoC5/cyPm.c **** 
  68:.\Generated_Source\PSoC5/cyPm.c **** 
  69:.\Generated_Source\PSoC5/cyPm.c **** /*******************************************************************************
  70:.\Generated_Source\PSoC5/cyPm.c **** * Function Name: CyPmSaveClocks
  71:.\Generated_Source\PSoC5/cyPm.c **** ********************************************************************************
  72:.\Generated_Source\PSoC5/cyPm.c **** *
  73:.\Generated_Source\PSoC5/cyPm.c **** * Summary:
  74:.\Generated_Source\PSoC5/cyPm.c **** *  This function is called in preparation for entering sleep or hibernate low
  75:.\Generated_Source\PSoC5/cyPm.c **** *  power modes. Saves all state of the clocking system that does not persist
  76:.\Generated_Source\PSoC5/cyPm.c **** *  during sleep/hibernate or that needs to be altered in preparation for
  77:.\Generated_Source\PSoC5/cyPm.c **** *  sleep/hibernate. Shutdowns all the digital and analog clock dividers for the
  78:.\Generated_Source\PSoC5/cyPm.c **** *  active power mode configuration.
  79:.\Generated_Source\PSoC5/cyPm.c **** *
  80:.\Generated_Source\PSoC5/cyPm.c **** *  Switches the master clock over to the IMO and shuts down the PLL and MHz
  81:.\Generated_Source\PSoC5/cyPm.c **** *  Crystal. The IMO frequency is set to either 12 MHz or 48 MHz to match the
  82:.\Generated_Source\PSoC5/cyPm.c **** *  Design-Wide Resources System Editor "Enable Fast IMO During Startup" setting.
  83:.\Generated_Source\PSoC5/cyPm.c **** *  The ILO and 32 KHz oscillators are not impacted. The current Flash wait state
  84:.\Generated_Source\PSoC5/cyPm.c **** *  setting is saved and the Flash wait state setting is set for the current IMO
  85:.\Generated_Source\PSoC5/cyPm.c **** *  speed.
  86:.\Generated_Source\PSoC5/cyPm.c **** *
  87:.\Generated_Source\PSoC5/cyPm.c **** *  Note If the Master Clock source is routed through the DSI inputs, then it
  88:.\Generated_Source\PSoC5/cyPm.c **** *  must be set manually to another source before using the
  89:.\Generated_Source\PSoC5/cyPm.c **** *  CyPmSaveClocks()/CyPmRestoreClocks() functions.
  90:.\Generated_Source\PSoC5/cyPm.c **** *
  91:.\Generated_Source\PSoC5/cyPm.c **** * Parameters:
  92:.\Generated_Source\PSoC5/cyPm.c **** *  None
  93:.\Generated_Source\PSoC5/cyPm.c **** *
  94:.\Generated_Source\PSoC5/cyPm.c **** * Return:
  95:.\Generated_Source\PSoC5/cyPm.c **** *  None
  96:.\Generated_Source\PSoC5/cyPm.c **** *
  97:.\Generated_Source\PSoC5/cyPm.c **** * Side Effects:
  98:.\Generated_Source\PSoC5/cyPm.c **** *  All peripheral clocks are going to be off after this API method call.
  99:.\Generated_Source\PSoC5/cyPm.c **** *
 100:.\Generated_Source\PSoC5/cyPm.c **** *******************************************************************************/
 101:.\Generated_Source\PSoC5/cyPm.c **** void CyPmSaveClocks(void) 
 102:.\Generated_Source\PSoC5/cyPm.c **** {
  51              		.loc 1 102 0
  52              		.cfi_startproc
  53              		@ args = 0, pretend = 0, frame = 0
  54              		@ frame_needed = 1, uses_anonymous_args = 0
  55 0000 80B5     		push	{r7, lr}
  56              	.LCFI0:
  57              		.cfi_def_cfa_offset 8
ARM GAS  C:\Users\rmcgarel\AppData\Local\Temp\ccv1YA4O.s 			page 4


  58 0002 00AF     		add	r7, sp, #0
  59              		.cfi_offset 14, -4
  60              		.cfi_offset 7, -8
  61              	.LCFI1:
  62              		.cfi_def_cfa_register 7
 103:.\Generated_Source\PSoC5/cyPm.c ****     /* Digital and analog clocks - save enable state and disable them all */
 104:.\Generated_Source\PSoC5/cyPm.c ****     cyPmClockBackup.enClkA = CY_PM_ACT_CFG1_REG & CY_PM_ACT_EN_CLK_A_MASK;
  63              		.loc 1 104 0
  64 0004 44F2A133 		movw	r3, #:lower16:1073759137
  65 0008 C4F20003 		movt	r3, #:upper16:1073759137
  66 000c 1B78     		ldrb	r3, [r3, #0]
  67 000e DBB2     		uxtb	r3, r3
  68 0010 1A46     		mov	r2, r3
  69 0012 02F00F02 		and	r2, r2, #15
  70 0016 40F20003 		movw	r3, #:lower16:cyPmClockBackup
  71 001a C0F20003 		movt	r3, #:upper16:cyPmClockBackup
  72 001e 1A70     		strb	r2, [r3, #0]
 105:.\Generated_Source\PSoC5/cyPm.c ****     cyPmClockBackup.enClkD = CY_PM_ACT_CFG2_REG;
  73              		.loc 1 105 0
  74 0020 44F2A233 		movw	r3, #:lower16:1073759138
  75 0024 C4F20003 		movt	r3, #:upper16:1073759138
  76 0028 1B78     		ldrb	r3, [r3, #0]
  77 002a DAB2     		uxtb	r2, r3
  78 002c 40F20003 		movw	r3, #:lower16:cyPmClockBackup
  79 0030 C0F20003 		movt	r3, #:upper16:cyPmClockBackup
  80 0034 5A70     		strb	r2, [r3, #1]
 106:.\Generated_Source\PSoC5/cyPm.c ****     CY_PM_ACT_CFG1_REG &= ((uint8)(~CY_PM_ACT_EN_CLK_A_MASK));
  81              		.loc 1 106 0
  82 0036 44F2A133 		movw	r3, #:lower16:1073759137
  83 003a C4F20003 		movt	r3, #:upper16:1073759137
  84 003e 44F2A132 		movw	r2, #:lower16:1073759137
  85 0042 C4F20002 		movt	r2, #:upper16:1073759137
  86 0046 1278     		ldrb	r2, [r2, #0]
  87 0048 D2B2     		uxtb	r2, r2
  88 004a 02F0F002 		and	r2, r2, #240
  89 004e 1A70     		strb	r2, [r3, #0]
 107:.\Generated_Source\PSoC5/cyPm.c ****     CY_PM_ACT_CFG2_REG &= ((uint8)(~CY_PM_ACT_EN_CLK_D_MASK));
  90              		.loc 1 107 0
  91 0050 44F2A233 		movw	r3, #:lower16:1073759138
  92 0054 C4F20003 		movt	r3, #:upper16:1073759138
  93 0058 1B78     		ldrb	r3, [r3, #0]
  94 005a 44F2A233 		movw	r3, #:lower16:1073759138
  95 005e C4F20003 		movt	r3, #:upper16:1073759138
  96 0062 4FF00002 		mov	r2, #0
  97 0066 1A70     		strb	r2, [r3, #0]
 108:.\Generated_Source\PSoC5/cyPm.c **** 
 109:.\Generated_Source\PSoC5/cyPm.c ****     /* Save current flash wait cycles and set the maximum value */
 110:.\Generated_Source\PSoC5/cyPm.c ****     cyPmClockBackup.flashWaitCycles = CY_PM_CACHE_CR_CYCLES_MASK & CY_PM_CACHE_CR_REG;
  98              		.loc 1 110 0
  99 0068 44F60003 		movw	r3, #:lower16:1073760256
 100 006c C4F20003 		movt	r3, #:upper16:1073760256
 101 0070 1B78     		ldrb	r3, [r3, #0]
 102 0072 DBB2     		uxtb	r3, r3
 103 0074 1A46     		mov	r2, r3
 104 0076 02F0C002 		and	r2, r2, #192
 105 007a 40F20003 		movw	r3, #:lower16:cyPmClockBackup
 106 007e C0F20003 		movt	r3, #:upper16:cyPmClockBackup
ARM GAS  C:\Users\rmcgarel\AppData\Local\Temp\ccv1YA4O.s 			page 5


 107 0082 5A71     		strb	r2, [r3, #5]
 111:.\Generated_Source\PSoC5/cyPm.c ****     CyFlash_SetWaitCycles(CY_PM_MAX_FLASH_WAIT_CYCLES);
 108              		.loc 1 111 0
 109 0084 4FF03700 		mov	r0, #55
 110 0088 FFF7FEFF 		bl	CyFlash_SetWaitCycles
 112:.\Generated_Source\PSoC5/cyPm.c **** 
 113:.\Generated_Source\PSoC5/cyPm.c ****     /* IMO - save current IMO MHz OSC frequency and USB mode is on bit */
 114:.\Generated_Source\PSoC5/cyPm.c ****     cyPmClockBackup.imoFreq = CY_PM_FASTCLK_IMO_CR_REG & CY_PM_FASTCLK_IMO_CR_FREQ_MASK;
 111              		.loc 1 114 0
 112 008c 44F20023 		movw	r3, #:lower16:1073758720
 113 0090 C4F20003 		movt	r3, #:upper16:1073758720
 114 0094 1B78     		ldrb	r3, [r3, #0]
 115 0096 DBB2     		uxtb	r3, r3
 116 0098 1A46     		mov	r2, r3
 117 009a 02F00702 		and	r2, r2, #7
 118 009e 40F20003 		movw	r3, #:lower16:cyPmClockBackup
 119 00a2 C0F20003 		movt	r3, #:upper16:cyPmClockBackup
 120 00a6 DA70     		strb	r2, [r3, #3]
 115:.\Generated_Source\PSoC5/cyPm.c ****     cyPmClockBackup.imoUsbClk = CY_PM_FASTCLK_IMO_CR_REG & CY_PM_FASTCLK_IMO_CR_USB;
 121              		.loc 1 115 0
 122 00a8 44F20023 		movw	r3, #:lower16:1073758720
 123 00ac C4F20003 		movt	r3, #:upper16:1073758720
 124 00b0 1B78     		ldrb	r3, [r3, #0]
 125 00b2 DBB2     		uxtb	r3, r3
 126 00b4 1A46     		mov	r2, r3
 127 00b6 02F04002 		and	r2, r2, #64
 128 00ba 40F20003 		movw	r3, #:lower16:cyPmClockBackup
 129 00be C0F20003 		movt	r3, #:upper16:cyPmClockBackup
 130 00c2 1A71     		strb	r2, [r3, #4]
 116:.\Generated_Source\PSoC5/cyPm.c **** 
 117:.\Generated_Source\PSoC5/cyPm.c ****     /* IMO doubler - save enable state */
 118:.\Generated_Source\PSoC5/cyPm.c ****     if(0u != (CY_PM_FASTCLK_IMO_CR_REG & CY_PM_FASTCLK_IMO_CR_F2XON))
 131              		.loc 1 118 0
 132 00c4 44F20023 		movw	r3, #:lower16:1073758720
 133 00c8 C4F20003 		movt	r3, #:upper16:1073758720
 134 00cc 1B78     		ldrb	r3, [r3, #0]
 135 00ce DBB2     		uxtb	r3, r3
 136 00d0 03F01003 		and	r3, r3, #16
 137 00d4 002B     		cmp	r3, #0
 138 00d6 07D0     		beq	.L2
 119:.\Generated_Source\PSoC5/cyPm.c ****     {
 120:.\Generated_Source\PSoC5/cyPm.c ****         /* IMO doubler enabled - save and disable */
 121:.\Generated_Source\PSoC5/cyPm.c ****         cyPmClockBackup.imo2x = CY_PM_ENABLED;
 139              		.loc 1 121 0
 140 00d8 40F20003 		movw	r3, #:lower16:cyPmClockBackup
 141 00dc C0F20003 		movt	r3, #:upper16:cyPmClockBackup
 142 00e0 4FF00102 		mov	r2, #1
 143 00e4 5A72     		strb	r2, [r3, #9]
 144 00e6 06E0     		b	.L3
 145              	.L2:
 122:.\Generated_Source\PSoC5/cyPm.c ****     }
 123:.\Generated_Source\PSoC5/cyPm.c ****     else
 124:.\Generated_Source\PSoC5/cyPm.c ****     {
 125:.\Generated_Source\PSoC5/cyPm.c ****         /* IMO doubler disabled */
 126:.\Generated_Source\PSoC5/cyPm.c ****         cyPmClockBackup.imo2x = CY_PM_DISABLED;
 146              		.loc 1 126 0
 147 00e8 40F20003 		movw	r3, #:lower16:cyPmClockBackup
ARM GAS  C:\Users\rmcgarel\AppData\Local\Temp\ccv1YA4O.s 			page 6


 148 00ec C0F20003 		movt	r3, #:upper16:cyPmClockBackup
 149 00f0 4FF00002 		mov	r2, #0
 150 00f4 5A72     		strb	r2, [r3, #9]
 151              	.L3:
 127:.\Generated_Source\PSoC5/cyPm.c ****     }
 128:.\Generated_Source\PSoC5/cyPm.c **** 
 129:.\Generated_Source\PSoC5/cyPm.c ****     /* IMO - set appropriate frequency for LPM */
 130:.\Generated_Source\PSoC5/cyPm.c ****     CyIMO_SetFreq(CY_PM_IMO_FREQ_LPM);
 152              		.loc 1 130 0
 153 00f6 4FF00200 		mov	r0, #2
 154 00fa FFF7FEFF 		bl	CyIMO_SetFreq
 131:.\Generated_Source\PSoC5/cyPm.c **** 
 132:.\Generated_Source\PSoC5/cyPm.c ****     /* IMO - save enable state and enable without wait to settle */
 133:.\Generated_Source\PSoC5/cyPm.c ****     if(0u != (CY_PM_ACT_CFG0_IMO & CY_PM_ACT_CFG0_REG))
 155              		.loc 1 133 0
 156 00fe 44F2A033 		movw	r3, #:lower16:1073759136
 157 0102 C4F20003 		movt	r3, #:upper16:1073759136
 158 0106 1B78     		ldrb	r3, [r3, #0]
 159 0108 DBB2     		uxtb	r3, r3
 160 010a 03F01003 		and	r3, r3, #16
 161 010e 002B     		cmp	r3, #0
 162 0110 07D0     		beq	.L4
 134:.\Generated_Source\PSoC5/cyPm.c ****     {
 135:.\Generated_Source\PSoC5/cyPm.c ****         /* IMO - save enabled state */
 136:.\Generated_Source\PSoC5/cyPm.c ****         cyPmClockBackup.imoEnable = CY_PM_ENABLED;
 163              		.loc 1 136 0
 164 0112 40F20003 		movw	r3, #:lower16:cyPmClockBackup
 165 0116 C0F20003 		movt	r3, #:upper16:cyPmClockBackup
 166 011a 4FF00102 		mov	r2, #1
 167 011e 9A71     		strb	r2, [r3, #6]
 168 0120 0AE0     		b	.L5
 169              	.L4:
 137:.\Generated_Source\PSoC5/cyPm.c ****     }
 138:.\Generated_Source\PSoC5/cyPm.c ****     else
 139:.\Generated_Source\PSoC5/cyPm.c ****     {
 140:.\Generated_Source\PSoC5/cyPm.c ****         /* IMO - save disabled state */
 141:.\Generated_Source\PSoC5/cyPm.c ****         cyPmClockBackup.imoEnable = CY_PM_DISABLED;
 170              		.loc 1 141 0
 171 0122 40F20003 		movw	r3, #:lower16:cyPmClockBackup
 172 0126 C0F20003 		movt	r3, #:upper16:cyPmClockBackup
 173 012a 4FF00002 		mov	r2, #0
 174 012e 9A71     		strb	r2, [r3, #6]
 142:.\Generated_Source\PSoC5/cyPm.c **** 
 143:.\Generated_Source\PSoC5/cyPm.c ****         /* IMO - enable */
 144:.\Generated_Source\PSoC5/cyPm.c ****         CyIMO_Start(CY_PM_IMO_NO_WAIT_TO_SETTLE);
 175              		.loc 1 144 0
 176 0130 4FF00000 		mov	r0, #0
 177 0134 FFF7FEFF 		bl	CyIMO_Start
 178              	.L5:
 145:.\Generated_Source\PSoC5/cyPm.c ****     }
 146:.\Generated_Source\PSoC5/cyPm.c **** 
 147:.\Generated_Source\PSoC5/cyPm.c ****     /* IMO - save the current IMOCLK source and set to IMO if not yet */
 148:.\Generated_Source\PSoC5/cyPm.c ****     if(0u != (CY_PM_FASTCLK_IMO_CR_REG & CY_PM_FASTCLK_IMO_CR_XCLKEN))
 179              		.loc 1 148 0
 180 0138 44F20023 		movw	r3, #:lower16:1073758720
 181 013c C4F20003 		movt	r3, #:upper16:1073758720
 182 0140 1B78     		ldrb	r3, [r3, #0]
ARM GAS  C:\Users\rmcgarel\AppData\Local\Temp\ccv1YA4O.s 			page 7


 183 0142 DBB2     		uxtb	r3, r3
 184 0144 03F02003 		and	r3, r3, #32
 185 0148 002B     		cmp	r3, #0
 186 014a 18D0     		beq	.L6
 149:.\Generated_Source\PSoC5/cyPm.c ****     {
 150:.\Generated_Source\PSoC5/cyPm.c ****         /* DSI or XTAL CLK */
 151:.\Generated_Source\PSoC5/cyPm.c ****         cyPmClockBackup.imoClkSrc =
 152:.\Generated_Source\PSoC5/cyPm.c ****             (0u == (CY_PM_CLKDIST_CR_REG & CY_PM_CLKDIST_IMO2X_SRC)) ? CY_IMO_SOURCE_DSI : CY_IMO_S
 187              		.loc 1 152 0
 188 014c 44F20003 		movw	r3, #:lower16:1073758208
 189 0150 C4F20003 		movt	r3, #:upper16:1073758208
 190 0154 1B78     		ldrb	r3, [r3, #0]
 191 0156 DBB2     		uxtb	r3, r3
 192 0158 03F04003 		and	r3, r3, #64
 193              		.loc 1 151 0
 194 015c 002B     		cmp	r3, #0
 195 015e 02D1     		bne	.L7
 196 0160 4FF00202 		mov	r2, #2
 197 0164 01E0     		b	.L8
 198              	.L7:
 199 0166 4FF00102 		mov	r2, #1
 200              	.L8:
 201 016a 40F20003 		movw	r3, #:lower16:cyPmClockBackup
 202 016e C0F20003 		movt	r3, #:upper16:cyPmClockBackup
 203 0172 DA71     		strb	r2, [r3, #7]
 153:.\Generated_Source\PSoC5/cyPm.c **** 
 154:.\Generated_Source\PSoC5/cyPm.c ****         /* IMO -  set IMOCLK source to MHz OSC */
 155:.\Generated_Source\PSoC5/cyPm.c ****         CyIMO_SetSource(CY_IMO_SOURCE_IMO);
 204              		.loc 1 155 0
 205 0174 4FF00000 		mov	r0, #0
 206 0178 FFF7FEFF 		bl	CyIMO_SetSource
 207 017c 06E0     		b	.L9
 208              	.L6:
 156:.\Generated_Source\PSoC5/cyPm.c ****     }
 157:.\Generated_Source\PSoC5/cyPm.c ****     else
 158:.\Generated_Source\PSoC5/cyPm.c ****     {
 159:.\Generated_Source\PSoC5/cyPm.c ****         /* IMO */
 160:.\Generated_Source\PSoC5/cyPm.c ****         cyPmClockBackup.imoClkSrc = CY_IMO_SOURCE_IMO;
 209              		.loc 1 160 0
 210 017e 40F20003 		movw	r3, #:lower16:cyPmClockBackup
 211 0182 C0F20003 		movt	r3, #:upper16:cyPmClockBackup
 212 0186 4FF00002 		mov	r2, #0
 213 018a DA71     		strb	r2, [r3, #7]
 214              	.L9:
 161:.\Generated_Source\PSoC5/cyPm.c ****     }
 162:.\Generated_Source\PSoC5/cyPm.c **** 
 163:.\Generated_Source\PSoC5/cyPm.c ****     /* Save clk_imo source */
 164:.\Generated_Source\PSoC5/cyPm.c ****     cyPmClockBackup.clkImoSrc = CY_PM_CLKDIST_CR_REG & CY_PM_CLKDIST_IMO_OUT_MASK;
 215              		.loc 1 164 0
 216 018c 44F20003 		movw	r3, #:lower16:1073758208
 217 0190 C4F20003 		movt	r3, #:upper16:1073758208
 218 0194 1B78     		ldrb	r3, [r3, #0]
 219 0196 DBB2     		uxtb	r3, r3
 220 0198 1A46     		mov	r2, r3
 221 019a 02F03002 		and	r2, r2, #48
 222 019e 40F20003 		movw	r3, #:lower16:cyPmClockBackup
 223 01a2 C0F20003 		movt	r3, #:upper16:cyPmClockBackup
ARM GAS  C:\Users\rmcgarel\AppData\Local\Temp\ccv1YA4O.s 			page 8


 224 01a6 1A72     		strb	r2, [r3, #8]
 165:.\Generated_Source\PSoC5/cyPm.c **** 
 166:.\Generated_Source\PSoC5/cyPm.c ****     /* If IMOCLK2X or SPC OSC is source for clk_imo, set it to IMOCLK */
 167:.\Generated_Source\PSoC5/cyPm.c ****     if(CY_PM_CLKDIST_IMO_OUT_IMO != cyPmClockBackup.clkImoSrc)
 225              		.loc 1 167 0
 226 01a8 40F20003 		movw	r3, #:lower16:cyPmClockBackup
 227 01ac C0F20003 		movt	r3, #:upper16:cyPmClockBackup
 228 01b0 1B7A     		ldrb	r3, [r3, #8]	@ zero_extendqisi2
 229 01b2 002B     		cmp	r3, #0
 230 01b4 0CD0     		beq	.L10
 168:.\Generated_Source\PSoC5/cyPm.c ****     {
 169:.\Generated_Source\PSoC5/cyPm.c ****         /* Set IMOCLK to source for clk_imo */
 170:.\Generated_Source\PSoC5/cyPm.c ****         CY_PM_CLKDIST_CR_REG = (CY_PM_CLKDIST_CR_REG & ((uint8)(~CY_PM_CLKDIST_IMO_OUT_MASK))) |
 231              		.loc 1 170 0
 232 01b6 44F20003 		movw	r3, #:lower16:1073758208
 233 01ba C4F20003 		movt	r3, #:upper16:1073758208
 234 01be 44F20002 		movw	r2, #:lower16:1073758208
 235 01c2 C4F20002 		movt	r2, #:upper16:1073758208
 236 01c6 1278     		ldrb	r2, [r2, #0]
 237 01c8 D2B2     		uxtb	r2, r2
 238 01ca 02F0CF02 		and	r2, r2, #207
 239 01ce 1A70     		strb	r2, [r3, #0]
 240              	.L10:
 171:.\Generated_Source\PSoC5/cyPm.c ****                                 CY_PM_CLKDIST_IMO_OUT_IMO;
 172:.\Generated_Source\PSoC5/cyPm.c ****     }    /* Need to change nothing if IMOCLK is source clk_imo */
 173:.\Generated_Source\PSoC5/cyPm.c **** 
 174:.\Generated_Source\PSoC5/cyPm.c ****     /* IMO doubler - disable it (saved above) */
 175:.\Generated_Source\PSoC5/cyPm.c ****     if(0u != (CY_PM_FASTCLK_IMO_CR_REG & CY_PM_FASTCLK_IMO_CR_F2XON))
 241              		.loc 1 175 0
 242 01d0 44F20023 		movw	r3, #:lower16:1073758720
 243 01d4 C4F20003 		movt	r3, #:upper16:1073758720
 244 01d8 1B78     		ldrb	r3, [r3, #0]
 245 01da DBB2     		uxtb	r3, r3
 246 01dc 03F01003 		and	r3, r3, #16
 247 01e0 002B     		cmp	r3, #0
 248 01e2 01D0     		beq	.L11
 176:.\Generated_Source\PSoC5/cyPm.c ****     {
 177:.\Generated_Source\PSoC5/cyPm.c ****         CyIMO_DisableDoubler();
 249              		.loc 1 177 0
 250 01e4 FFF7FEFF 		bl	CyIMO_DisableDoubler
 251              	.L11:
 178:.\Generated_Source\PSoC5/cyPm.c ****     }
 179:.\Generated_Source\PSoC5/cyPm.c **** 
 180:.\Generated_Source\PSoC5/cyPm.c ****     /* Master clock - save divider and set it to divide-by-one (if no yet) */
 181:.\Generated_Source\PSoC5/cyPm.c ****     cyPmClockBackup.clkSyncDiv = CY_PM_CLKDIST_MSTR0_REG;
 252              		.loc 1 181 0
 253 01e8 44F20403 		movw	r3, #:lower16:1073758212
 254 01ec C4F20003 		movt	r3, #:upper16:1073758212
 255 01f0 1B78     		ldrb	r3, [r3, #0]
 256 01f2 DAB2     		uxtb	r2, r3
 257 01f4 40F20003 		movw	r3, #:lower16:cyPmClockBackup
 258 01f8 C0F20003 		movt	r3, #:upper16:cyPmClockBackup
 259 01fc 9A72     		strb	r2, [r3, #10]
 182:.\Generated_Source\PSoC5/cyPm.c ****     if(CY_PM_DIV_BY_ONE != cyPmClockBackup.clkSyncDiv)
 260              		.loc 1 182 0
 261 01fe 40F20003 		movw	r3, #:lower16:cyPmClockBackup
 262 0202 C0F20003 		movt	r3, #:upper16:cyPmClockBackup
ARM GAS  C:\Users\rmcgarel\AppData\Local\Temp\ccv1YA4O.s 			page 9


 263 0206 9B7A     		ldrb	r3, [r3, #10]	@ zero_extendqisi2
 264 0208 002B     		cmp	r3, #0
 265 020a 03D0     		beq	.L12
 183:.\Generated_Source\PSoC5/cyPm.c ****     {
 184:.\Generated_Source\PSoC5/cyPm.c ****         CyMasterClk_SetDivider(CY_PM_DIV_BY_ONE);
 266              		.loc 1 184 0
 267 020c 4FF00000 		mov	r0, #0
 268 0210 FFF7FEFF 		bl	CyMasterClk_SetDivider
 269              	.L12:
 185:.\Generated_Source\PSoC5/cyPm.c ****     }    /* Need to change nothing if master clock divider is 1 */
 186:.\Generated_Source\PSoC5/cyPm.c **** 
 187:.\Generated_Source\PSoC5/cyPm.c ****     /* Master clock - save current source */
 188:.\Generated_Source\PSoC5/cyPm.c ****     cyPmClockBackup.masterClkSrc = CY_PM_CLKDIST_MSTR1_REG & CY_PM_MASTER_CLK_SRC_MASK;
 270              		.loc 1 188 0
 271 0214 44F20503 		movw	r3, #:lower16:1073758213
 272 0218 C4F20003 		movt	r3, #:upper16:1073758213
 273 021c 1B78     		ldrb	r3, [r3, #0]
 274 021e DBB2     		uxtb	r3, r3
 275 0220 1A46     		mov	r2, r3
 276 0222 02F00302 		and	r2, r2, #3
 277 0226 40F20003 		movw	r3, #:lower16:cyPmClockBackup
 278 022a C0F20003 		movt	r3, #:upper16:cyPmClockBackup
 279 022e 9A70     		strb	r2, [r3, #2]
 189:.\Generated_Source\PSoC5/cyPm.c **** 
 190:.\Generated_Source\PSoC5/cyPm.c ****     /* Master clock source - set it to IMO if not yet. */
 191:.\Generated_Source\PSoC5/cyPm.c ****     if(CY_MASTER_SOURCE_IMO != cyPmClockBackup.masterClkSrc)
 280              		.loc 1 191 0
 281 0230 40F20003 		movw	r3, #:lower16:cyPmClockBackup
 282 0234 C0F20003 		movt	r3, #:upper16:cyPmClockBackup
 283 0238 9B78     		ldrb	r3, [r3, #2]	@ zero_extendqisi2
 284 023a 002B     		cmp	r3, #0
 285 023c 03D0     		beq	.L13
 192:.\Generated_Source\PSoC5/cyPm.c ****     {
 193:.\Generated_Source\PSoC5/cyPm.c ****         CyMasterClk_SetSource(CY_MASTER_SOURCE_IMO);
 286              		.loc 1 193 0
 287 023e 4FF00000 		mov	r0, #0
 288 0242 FFF7FEFF 		bl	CyMasterClk_SetSource
 289              	.L13:
 194:.\Generated_Source\PSoC5/cyPm.c ****     }    /* Need to change nothing if master clock source is IMO */
 195:.\Generated_Source\PSoC5/cyPm.c **** 
 196:.\Generated_Source\PSoC5/cyPm.c ****     /* Bus clock - save divider and set it, if needed, to divide-by-one */
 197:.\Generated_Source\PSoC5/cyPm.c ****     cyPmClockBackup.clkBusDiv = ((uint16) CY_PM_CLK_BUS_MSB_DIV_REG << 8u) | CY_PM_CLK_BUS_LSB_DIV_
 290              		.loc 1 197 0
 291 0246 44F20703 		movw	r3, #:lower16:1073758215
 292 024a C4F20003 		movt	r3, #:upper16:1073758215
 293 024e 1B78     		ldrb	r3, [r3, #0]
 294 0250 DBB2     		uxtb	r3, r3
 295 0252 4FEA0323 		lsl	r3, r3, #8
 296 0256 9AB2     		uxth	r2, r3
 297 0258 44F20603 		movw	r3, #:lower16:1073758214
 298 025c C4F20003 		movt	r3, #:upper16:1073758214
 299 0260 1B78     		ldrb	r3, [r3, #0]
 300 0262 DBB2     		uxtb	r3, r3
 301 0264 42EA0303 		orr	r3, r2, r3
 302 0268 9BB2     		uxth	r3, r3
 303 026a 9AB2     		uxth	r2, r3
 304 026c 40F20003 		movw	r3, #:lower16:cyPmClockBackup
ARM GAS  C:\Users\rmcgarel\AppData\Local\Temp\ccv1YA4O.s 			page 10


 305 0270 C0F20003 		movt	r3, #:upper16:cyPmClockBackup
 306 0274 9A81     		strh	r2, [r3, #12]	@ movhi
 198:.\Generated_Source\PSoC5/cyPm.c ****     if(CY_PM_BUS_CLK_DIV_BY_ONE != cyPmClockBackup.clkBusDiv)
 307              		.loc 1 198 0
 308 0276 40F20003 		movw	r3, #:lower16:cyPmClockBackup
 309 027a C0F20003 		movt	r3, #:upper16:cyPmClockBackup
 310 027e 9B89     		ldrh	r3, [r3, #12]
 311 0280 002B     		cmp	r3, #0
 312 0282 03D0     		beq	.L14
 199:.\Generated_Source\PSoC5/cyPm.c ****     {
 200:.\Generated_Source\PSoC5/cyPm.c ****         CyBusClk_SetDivider(CY_PM_BUS_CLK_DIV_BY_ONE);
 313              		.loc 1 200 0
 314 0284 4FF00000 		mov	r0, #0
 315 0288 FFF7FEFF 		bl	CyBusClk_SetDivider
 316              	.L14:
 201:.\Generated_Source\PSoC5/cyPm.c ****     }    /* Do nothing if saved and actual values are equal */
 202:.\Generated_Source\PSoC5/cyPm.c **** 
 203:.\Generated_Source\PSoC5/cyPm.c ****     /* Set number of wait cycles for the flash according CPU frequency in MHz */
 204:.\Generated_Source\PSoC5/cyPm.c ****     CyFlash_SetWaitCycles((uint8)CY_PM_GET_CPU_FREQ_MHZ);
 317              		.loc 1 204 0
 318 028c 44F20023 		movw	r3, #:lower16:1073758720
 319 0290 C4F20003 		movt	r3, #:upper16:1073758720
 320 0294 1B78     		ldrb	r3, [r3, #0]
 321 0296 DBB2     		uxtb	r3, r3
 322 0298 03F00702 		and	r2, r3, #7
 323 029c 40F20003 		movw	r3, #:lower16:cyPmImoFreqReg2Mhz
 324 02a0 C0F20003 		movt	r3, #:upper16:cyPmImoFreqReg2Mhz
 325 02a4 9B5C     		ldrb	r3, [r3, r2]	@ zero_extendqisi2
 326 02a6 1846     		mov	r0, r3
 327 02a8 FFF7FEFF 		bl	CyFlash_SetWaitCycles
 205:.\Generated_Source\PSoC5/cyPm.c **** 
 206:.\Generated_Source\PSoC5/cyPm.c ****     /* PLL - check enable state, disable if needed */
 207:.\Generated_Source\PSoC5/cyPm.c ****     if(0u != (CY_PM_FASTCLK_PLL_CFG0_REG & CY_PM_PLL_CFG0_ENABLE))
 328              		.loc 1 207 0
 329 02ac 44F22023 		movw	r3, #:lower16:1073758752
 330 02b0 C4F20003 		movt	r3, #:upper16:1073758752
 331 02b4 1B78     		ldrb	r3, [r3, #0]
 332 02b6 DBB2     		uxtb	r3, r3
 333 02b8 03F00103 		and	r3, r3, #1
 334 02bc DBB2     		uxtb	r3, r3
 335 02be 002B     		cmp	r3, #0
 336 02c0 09D0     		beq	.L15
 208:.\Generated_Source\PSoC5/cyPm.c ****     {
 209:.\Generated_Source\PSoC5/cyPm.c ****         /* PLL is enabled - save state and disable */
 210:.\Generated_Source\PSoC5/cyPm.c ****         cyPmClockBackup.pllEnableState = CY_PM_ENABLED;
 337              		.loc 1 210 0
 338 02c2 40F20003 		movw	r3, #:lower16:cyPmClockBackup
 339 02c6 C0F20003 		movt	r3, #:upper16:cyPmClockBackup
 340 02ca 4FF00102 		mov	r2, #1
 341 02ce 9A73     		strb	r2, [r3, #14]
 211:.\Generated_Source\PSoC5/cyPm.c ****         CyPLL_OUT_Stop();
 342              		.loc 1 211 0
 343 02d0 FFF7FEFF 		bl	CyPLL_OUT_Stop
 344 02d4 06E0     		b	.L16
 345              	.L15:
 212:.\Generated_Source\PSoC5/cyPm.c ****     }
 213:.\Generated_Source\PSoC5/cyPm.c ****     else
ARM GAS  C:\Users\rmcgarel\AppData\Local\Temp\ccv1YA4O.s 			page 11


 214:.\Generated_Source\PSoC5/cyPm.c ****     {
 215:.\Generated_Source\PSoC5/cyPm.c ****         /* PLL is disabled - save state */
 216:.\Generated_Source\PSoC5/cyPm.c ****         cyPmClockBackup.pllEnableState = CY_PM_DISABLED;
 346              		.loc 1 216 0
 347 02d6 40F20003 		movw	r3, #:lower16:cyPmClockBackup
 348 02da C0F20003 		movt	r3, #:upper16:cyPmClockBackup
 349 02de 4FF00002 		mov	r2, #0
 350 02e2 9A73     		strb	r2, [r3, #14]
 351              	.L16:
 217:.\Generated_Source\PSoC5/cyPm.c ****     }
 218:.\Generated_Source\PSoC5/cyPm.c **** 
 219:.\Generated_Source\PSoC5/cyPm.c ****     /* MHz ECO - check enable state and disable if needed */
 220:.\Generated_Source\PSoC5/cyPm.c ****     if(0u != (CY_PM_FASTCLK_XMHZ_CSR_REG & CY_PM_XMHZ_CSR_ENABLE))
 352              		.loc 1 220 0
 353 02e4 44F21023 		movw	r3, #:lower16:1073758736
 354 02e8 C4F20003 		movt	r3, #:upper16:1073758736
 355 02ec 1B78     		ldrb	r3, [r3, #0]
 356 02ee DBB2     		uxtb	r3, r3
 357 02f0 03F00103 		and	r3, r3, #1
 358 02f4 DBB2     		uxtb	r3, r3
 359 02f6 002B     		cmp	r3, #0
 360 02f8 09D0     		beq	.L17
 221:.\Generated_Source\PSoC5/cyPm.c ****     {
 222:.\Generated_Source\PSoC5/cyPm.c ****         /* MHz ECO is enabled - save state and disable */
 223:.\Generated_Source\PSoC5/cyPm.c ****         cyPmClockBackup.xmhzEnableState = CY_PM_ENABLED;
 361              		.loc 1 223 0
 362 02fa 40F20003 		movw	r3, #:lower16:cyPmClockBackup
 363 02fe C0F20003 		movt	r3, #:upper16:cyPmClockBackup
 364 0302 4FF00102 		mov	r2, #1
 365 0306 DA73     		strb	r2, [r3, #15]
 224:.\Generated_Source\PSoC5/cyPm.c ****         CyXTAL_Stop();
 366              		.loc 1 224 0
 367 0308 FFF7FEFF 		bl	CyXTAL_Stop
 368 030c 06E0     		b	.L18
 369              	.L17:
 225:.\Generated_Source\PSoC5/cyPm.c ****     }
 226:.\Generated_Source\PSoC5/cyPm.c ****     else
 227:.\Generated_Source\PSoC5/cyPm.c ****     {
 228:.\Generated_Source\PSoC5/cyPm.c ****         /* MHz ECO is disabled - save state */
 229:.\Generated_Source\PSoC5/cyPm.c ****         cyPmClockBackup.xmhzEnableState = CY_PM_DISABLED;
 370              		.loc 1 229 0
 371 030e 40F20003 		movw	r3, #:lower16:cyPmClockBackup
 372 0312 C0F20003 		movt	r3, #:upper16:cyPmClockBackup
 373 0316 4FF00002 		mov	r2, #0
 374 031a DA73     		strb	r2, [r3, #15]
 375              	.L18:
 230:.\Generated_Source\PSoC5/cyPm.c ****     }
 231:.\Generated_Source\PSoC5/cyPm.c **** 
 232:.\Generated_Source\PSoC5/cyPm.c **** 
 233:.\Generated_Source\PSoC5/cyPm.c ****     /***************************************************************************
 234:.\Generated_Source\PSoC5/cyPm.c ****     * Save enable state of delay between the system bus clock and each of the
 235:.\Generated_Source\PSoC5/cyPm.c ****     * 4 individual analog clocks. This bit non-retention and it's value should
 236:.\Generated_Source\PSoC5/cyPm.c ****     * be restored on wakeup.
 237:.\Generated_Source\PSoC5/cyPm.c ****     ***************************************************************************/
 238:.\Generated_Source\PSoC5/cyPm.c ****     if(0u != (CY_PM_CLKDIST_DELAY_REG & CY_PM_CLKDIST_DELAY_EN))
 376              		.loc 1 238 0
 377 031c 44F20B03 		movw	r3, #:lower16:1073758219
ARM GAS  C:\Users\rmcgarel\AppData\Local\Temp\ccv1YA4O.s 			page 12


 378 0320 C4F20003 		movt	r3, #:upper16:1073758219
 379 0324 1B78     		ldrb	r3, [r3, #0]
 380 0326 DBB2     		uxtb	r3, r3
 381 0328 03F00403 		and	r3, r3, #4
 382 032c 002B     		cmp	r3, #0
 383 032e 07D0     		beq	.L19
 239:.\Generated_Source\PSoC5/cyPm.c ****     {
 240:.\Generated_Source\PSoC5/cyPm.c ****         cyPmClockBackup.clkDistDelay = CY_PM_ENABLED;
 384              		.loc 1 240 0
 385 0330 40F20003 		movw	r3, #:lower16:cyPmClockBackup
 386 0334 C0F20003 		movt	r3, #:upper16:cyPmClockBackup
 387 0338 4FF00102 		mov	r2, #1
 388 033c 1A74     		strb	r2, [r3, #16]
 389 033e 06E0     		b	.L21
 390              	.L19:
 241:.\Generated_Source\PSoC5/cyPm.c ****     }
 242:.\Generated_Source\PSoC5/cyPm.c ****     else
 243:.\Generated_Source\PSoC5/cyPm.c ****     {
 244:.\Generated_Source\PSoC5/cyPm.c ****         cyPmClockBackup.clkDistDelay = CY_PM_DISABLED;
 391              		.loc 1 244 0
 392 0340 40F20003 		movw	r3, #:lower16:cyPmClockBackup
 393 0344 C0F20003 		movt	r3, #:upper16:cyPmClockBackup
 394 0348 4FF00002 		mov	r2, #0
 395 034c 1A74     		strb	r2, [r3, #16]
 396              	.L21:
 245:.\Generated_Source\PSoC5/cyPm.c ****     }
 246:.\Generated_Source\PSoC5/cyPm.c **** }
 397              		.loc 1 246 0
 398 034e 80BD     		pop	{r7, pc}
 399              		.cfi_endproc
 400              	.LFE0:
 401              		.size	CyPmSaveClocks, .-CyPmSaveClocks
 402              		.section	.text.CyPmRestoreClocks,"ax",%progbits
 403              		.align	2
 404              		.global	CyPmRestoreClocks
 405              		.thumb
 406              		.thumb_func
 407              		.type	CyPmRestoreClocks, %function
 408              	CyPmRestoreClocks:
 409              	.LFB1:
 247:.\Generated_Source\PSoC5/cyPm.c **** 
 248:.\Generated_Source\PSoC5/cyPm.c **** 
 249:.\Generated_Source\PSoC5/cyPm.c **** /*******************************************************************************
 250:.\Generated_Source\PSoC5/cyPm.c **** * Function Name: CyPmRestoreClocks
 251:.\Generated_Source\PSoC5/cyPm.c **** ********************************************************************************
 252:.\Generated_Source\PSoC5/cyPm.c **** *
 253:.\Generated_Source\PSoC5/cyPm.c **** * Summary:
 254:.\Generated_Source\PSoC5/cyPm.c **** *  Restores any state that was preserved by the last call to CyPmSaveClocks().
 255:.\Generated_Source\PSoC5/cyPm.c **** *  The Flash wait state setting is also restored.
 256:.\Generated_Source\PSoC5/cyPm.c **** *
 257:.\Generated_Source\PSoC5/cyPm.c **** *  Note If the Master Clock source is routed through the DSI inputs, then it
 258:.\Generated_Source\PSoC5/cyPm.c **** *  must be set manually to another source before using the
 259:.\Generated_Source\PSoC5/cyPm.c **** *  CyPmSaveClocks()/CyPmRestoreClocks() functions.
 260:.\Generated_Source\PSoC5/cyPm.c **** *
 261:.\Generated_Source\PSoC5/cyPm.c **** *  PSoC 3 and PSoC 5LP:
 262:.\Generated_Source\PSoC5/cyPm.c **** *  The merge region could be used to process state when the megahertz crystal is
 263:.\Generated_Source\PSoC5/cyPm.c **** *  not ready after the hold-off timeout.
ARM GAS  C:\Users\rmcgarel\AppData\Local\Temp\ccv1YA4O.s 			page 13


 264:.\Generated_Source\PSoC5/cyPm.c **** *
 265:.\Generated_Source\PSoC5/cyPm.c **** *  PSoC 5:
 266:.\Generated_Source\PSoC5/cyPm.c **** *  The 130 ms is given for the megahertz crystal to stabilize. It's readiness is
 267:.\Generated_Source\PSoC5/cyPm.c **** *  not verified after the hold-off timeout.
 268:.\Generated_Source\PSoC5/cyPm.c **** *
 269:.\Generated_Source\PSoC5/cyPm.c **** * Parameters:
 270:.\Generated_Source\PSoC5/cyPm.c **** *  None
 271:.\Generated_Source\PSoC5/cyPm.c **** *
 272:.\Generated_Source\PSoC5/cyPm.c **** * Return:
 273:.\Generated_Source\PSoC5/cyPm.c **** *  None
 274:.\Generated_Source\PSoC5/cyPm.c **** *
 275:.\Generated_Source\PSoC5/cyPm.c **** *******************************************************************************/
 276:.\Generated_Source\PSoC5/cyPm.c **** void CyPmRestoreClocks(void) 
 277:.\Generated_Source\PSoC5/cyPm.c **** {
 410              		.loc 1 277 0
 411              		.cfi_startproc
 412              		@ args = 0, pretend = 0, frame = 8
 413              		@ frame_needed = 1, uses_anonymous_args = 0
 414 0000 80B5     		push	{r7, lr}
 415              	.LCFI2:
 416              		.cfi_def_cfa_offset 8
 417 0002 82B0     		sub	sp, sp, #8
 418              	.LCFI3:
 419              		.cfi_def_cfa_offset 16
 420 0004 00AF     		add	r7, sp, #0
 421              		.cfi_offset 14, -4
 422              		.cfi_offset 7, -8
 423              	.LCFI4:
 424              		.cfi_def_cfa_register 7
 278:.\Generated_Source\PSoC5/cyPm.c ****     #if (!CY_PSOC5A)
 279:.\Generated_Source\PSoC5/cyPm.c **** 
 280:.\Generated_Source\PSoC5/cyPm.c ****         cystatus status = CYRET_TIMEOUT;
 281:.\Generated_Source\PSoC5/cyPm.c ****         uint16 i;
 282:.\Generated_Source\PSoC5/cyPm.c **** 
 283:.\Generated_Source\PSoC5/cyPm.c ****     #endif  /* (!CY_PSOC5A) */
 284:.\Generated_Source\PSoC5/cyPm.c **** 
 285:.\Generated_Source\PSoC5/cyPm.c **** 
 286:.\Generated_Source\PSoC5/cyPm.c ****     /* Convertion table between CyIMO_SetFreq() parameters and register's value */
 287:.\Generated_Source\PSoC5/cyPm.c ****     const uint8 CYCODE cyPmImoFreqMhz2Reg[7u] = {
 288:.\Generated_Source\PSoC5/cyPm.c ****         CY_IMO_FREQ_12MHZ, CY_IMO_FREQ_6MHZ,  CY_IMO_FREQ_24MHZ, CY_IMO_FREQ_3MHZ,
 289:.\Generated_Source\PSoC5/cyPm.c ****         CY_IMO_FREQ_48MHZ, 5u, 6u};
 425              		.loc 1 289 0
 426 0006 40F20002 		movw	r2, #:lower16:C.2.2081
 427 000a C0F20002 		movt	r2, #:upper16:C.2.2081
 428 000e 3B46     		mov	r3, r7
 429 0010 92E80300 		ldmia	r2, {r0, r1}
 430 0014 1860     		str	r0, [r3, #0]
 431 0016 03F10403 		add	r3, r3, #4
 432 001a 1980     		strh	r1, [r3, #0]	@ movhi
 433 001c 03F10203 		add	r3, r3, #2
 434 0020 4FEA1142 		lsr	r2, r1, #16
 435 0024 1A70     		strb	r2, [r3, #0]
 290:.\Generated_Source\PSoC5/cyPm.c **** 
 291:.\Generated_Source\PSoC5/cyPm.c ****     /* Restore enable state of delay between the system bus clock and ACLKs. */
 292:.\Generated_Source\PSoC5/cyPm.c ****     if(CY_PM_ENABLED == cyPmClockBackup.clkDistDelay)
 436              		.loc 1 292 0
 437 0026 40F20003 		movw	r3, #:lower16:cyPmClockBackup
ARM GAS  C:\Users\rmcgarel\AppData\Local\Temp\ccv1YA4O.s 			page 14


 438 002a C0F20003 		movt	r3, #:upper16:cyPmClockBackup
 439 002e 1B7C     		ldrb	r3, [r3, #16]	@ zero_extendqisi2
 440 0030 012B     		cmp	r3, #1
 441 0032 26D1     		bne	.L23
 293:.\Generated_Source\PSoC5/cyPm.c ****     {
 294:.\Generated_Source\PSoC5/cyPm.c ****         /* Delay for both the bandgap and the delay line to settle out */
 295:.\Generated_Source\PSoC5/cyPm.c ****         CyDelayCycles((uint32)(CY_PM_CLK_DELAY_BANDGAP_SETTLE_US + CY_PM_CLK_DELAY_BIAS_SETTLE_US) 
 296:.\Generated_Source\PSoC5/cyPm.c ****                         CY_PM_GET_CPU_FREQ_MHZ);
 442              		.loc 1 296 0
 443 0034 44F20023 		movw	r3, #:lower16:1073758720
 444 0038 C4F20003 		movt	r3, #:upper16:1073758720
 445 003c 1B78     		ldrb	r3, [r3, #0]
 446 003e DBB2     		uxtb	r3, r3
 447 0040 03F00702 		and	r2, r3, #7
 448 0044 40F20003 		movw	r3, #:lower16:cyPmImoFreqReg2Mhz
 449 0048 C0F20003 		movt	r3, #:upper16:cyPmImoFreqReg2Mhz
 450 004c 9B5C     		ldrb	r3, [r3, r2]	@ zero_extendqisi2
 451              		.loc 1 295 0
 452 004e 1A46     		mov	r2, r3
 453 0050 1346     		mov	r3, r2
 454 0052 4FEA8303 		lsl	r3, r3, #2
 455 0056 1344     		add	r3, r3, r2
 456 0058 4FEA0312 		lsl	r2, r3, #4
 457 005c C3EB0203 		rsb	r3, r3, r2
 458 0060 1846     		mov	r0, r3
 459 0062 FFF7FEFF 		bl	CyDelayCycles
 297:.\Generated_Source\PSoC5/cyPm.c **** 
 298:.\Generated_Source\PSoC5/cyPm.c ****         CY_PM_CLKDIST_DELAY_REG |= CY_PM_CLKDIST_DELAY_EN;
 460              		.loc 1 298 0
 461 0066 44F20B03 		movw	r3, #:lower16:1073758219
 462 006a C4F20003 		movt	r3, #:upper16:1073758219
 463 006e 44F20B02 		movw	r2, #:lower16:1073758219
 464 0072 C4F20002 		movt	r2, #:upper16:1073758219
 465 0076 1278     		ldrb	r2, [r2, #0]
 466 0078 D2B2     		uxtb	r2, r2
 467 007a 42F00402 		orr	r2, r2, #4
 468 007e D2B2     		uxtb	r2, r2
 469 0080 1A70     		strb	r2, [r3, #0]
 470              	.L23:
 299:.\Generated_Source\PSoC5/cyPm.c ****     }
 300:.\Generated_Source\PSoC5/cyPm.c **** 
 301:.\Generated_Source\PSoC5/cyPm.c ****     /* MHz ECO restore state */
 302:.\Generated_Source\PSoC5/cyPm.c ****     if(CY_PM_ENABLED == cyPmClockBackup.xmhzEnableState)
 471              		.loc 1 302 0
 472 0082 40F20003 		movw	r3, #:lower16:cyPmClockBackup
 473 0086 C0F20003 		movt	r3, #:upper16:cyPmClockBackup
 474 008a DB7B     		ldrb	r3, [r3, #15]	@ zero_extendqisi2
 475 008c 012B     		cmp	r3, #1
 476 008e 1AD1     		bne	.L24
 303:.\Generated_Source\PSoC5/cyPm.c ****     {
 304:.\Generated_Source\PSoC5/cyPm.c ****         /***********************************************************************
 305:.\Generated_Source\PSoC5/cyPm.c ****         * Enabling XMHZ XTAL. The actual CyXTAL_Start() with non zero wait
 306:.\Generated_Source\PSoC5/cyPm.c ****         * period uses FTW for period measurement. This could cause a problem
 307:.\Generated_Source\PSoC5/cyPm.c ****         * if CTW/FTW is used as a wake up time in the low power modes APIs.
 308:.\Generated_Source\PSoC5/cyPm.c ****         * So, the XTAL wait procedure is implemented with a software delay.
 309:.\Generated_Source\PSoC5/cyPm.c ****         ***********************************************************************/
 310:.\Generated_Source\PSoC5/cyPm.c **** 
ARM GAS  C:\Users\rmcgarel\AppData\Local\Temp\ccv1YA4O.s 			page 15


 311:.\Generated_Source\PSoC5/cyPm.c ****         /* Enable XMHZ XTAL with no wait */
 312:.\Generated_Source\PSoC5/cyPm.c ****         (void) CyXTAL_Start(CY_PM_XTAL_MHZ_NO_WAIT);
 477              		.loc 1 312 0
 478 0090 4FF00000 		mov	r0, #0
 479 0094 FFF7FEFF 		bl	CyXTAL_Start
 313:.\Generated_Source\PSoC5/cyPm.c **** 
 314:.\Generated_Source\PSoC5/cyPm.c ****         #if(CY_PSOC5A)
 315:.\Generated_Source\PSoC5/cyPm.c **** 
 316:.\Generated_Source\PSoC5/cyPm.c ****             /* Make a 130 milliseconds delay */
 317:.\Generated_Source\PSoC5/cyPm.c ****             CyDelayCycles((uint32)CY_PM_WAIT_200_US * CY_PM_GET_CPU_FREQ_MHZ * CY_PM_MHZ_XTAL_WAIT_
 480              		.loc 1 317 0
 481 0098 44F20023 		movw	r3, #:lower16:1073758720
 482 009c C4F20003 		movt	r3, #:upper16:1073758720
 483 00a0 1B78     		ldrb	r3, [r3, #0]
 484 00a2 DBB2     		uxtb	r3, r3
 485 00a4 03F00702 		and	r2, r3, #7
 486 00a8 40F20003 		movw	r3, #:lower16:cyPmImoFreqReg2Mhz
 487 00ac C0F20003 		movt	r3, #:upper16:cyPmImoFreqReg2Mhz
 488 00b0 9B5C     		ldrb	r3, [r3, r2]	@ zero_extendqisi2
 489 00b2 1A46     		mov	r2, r3
 490 00b4 4FF6D033 		movw	r3, #:lower16:130000
 491 00b8 C0F20103 		movt	r3, #:upper16:130000
 492 00bc 03FB02F3 		mul	r3, r3, r2
 493 00c0 1846     		mov	r0, r3
 494 00c2 FFF7FEFF 		bl	CyDelayCycles
 495              	.L24:
 318:.\Generated_Source\PSoC5/cyPm.c **** 
 319:.\Generated_Source\PSoC5/cyPm.c ****         #else
 320:.\Generated_Source\PSoC5/cyPm.c **** 
 321:.\Generated_Source\PSoC5/cyPm.c ****             /* Read XERR bit to clear it */
 322:.\Generated_Source\PSoC5/cyPm.c ****             (void) CY_PM_FASTCLK_XMHZ_CSR_REG;
 323:.\Generated_Source\PSoC5/cyPm.c **** 
 324:.\Generated_Source\PSoC5/cyPm.c ****             /* Wait */
 325:.\Generated_Source\PSoC5/cyPm.c ****             for(i = CY_PM_MHZ_XTAL_WAIT_NUM_OF_200_US; i > 0u; i--)
 326:.\Generated_Source\PSoC5/cyPm.c ****             {
 327:.\Generated_Source\PSoC5/cyPm.c ****                 /* Make a 200 microseconds delay */
 328:.\Generated_Source\PSoC5/cyPm.c ****                 CyDelayCycles((uint32)CY_PM_WAIT_200_US * CY_PM_GET_CPU_FREQ_MHZ);
 329:.\Generated_Source\PSoC5/cyPm.c **** 
 330:.\Generated_Source\PSoC5/cyPm.c ****                 /* High output indicates oscillator failure */
 331:.\Generated_Source\PSoC5/cyPm.c ****                 if(0u == (CY_PM_FASTCLK_XMHZ_CSR_REG & CY_PM_XMHZ_CSR_XERR))
 332:.\Generated_Source\PSoC5/cyPm.c ****                 {
 333:.\Generated_Source\PSoC5/cyPm.c ****                     status = CYRET_SUCCESS;
 334:.\Generated_Source\PSoC5/cyPm.c ****                     break;
 335:.\Generated_Source\PSoC5/cyPm.c ****                 }
 336:.\Generated_Source\PSoC5/cyPm.c ****             }
 337:.\Generated_Source\PSoC5/cyPm.c **** 
 338:.\Generated_Source\PSoC5/cyPm.c ****             if(CYRET_TIMEOUT == status)
 339:.\Generated_Source\PSoC5/cyPm.c ****             {
 340:.\Generated_Source\PSoC5/cyPm.c ****                 /*******************************************************************
 341:.\Generated_Source\PSoC5/cyPm.c ****                 * Process the situation when megahertz crystal is not ready.
 342:.\Generated_Source\PSoC5/cyPm.c ****                 * Time to stabialize value is crystal specific.
 343:.\Generated_Source\PSoC5/cyPm.c ****                 *******************************************************************/
 344:.\Generated_Source\PSoC5/cyPm.c **** 
 345:.\Generated_Source\PSoC5/cyPm.c ****                 /* `#START_MHZ_ECO_TIMEOUT` */
 346:.\Generated_Source\PSoC5/cyPm.c **** 
 347:.\Generated_Source\PSoC5/cyPm.c ****                 /* `#END` */
 348:.\Generated_Source\PSoC5/cyPm.c ****             }
ARM GAS  C:\Users\rmcgarel\AppData\Local\Temp\ccv1YA4O.s 			page 16


 349:.\Generated_Source\PSoC5/cyPm.c **** 
 350:.\Generated_Source\PSoC5/cyPm.c ****         #endif  /* (CY_PSOC5A) */
 351:.\Generated_Source\PSoC5/cyPm.c **** 
 352:.\Generated_Source\PSoC5/cyPm.c ****     }   /* (CY_PM_ENABLED == cyPmClockBackup.xmhzEnableState) */
 353:.\Generated_Source\PSoC5/cyPm.c **** 
 354:.\Generated_Source\PSoC5/cyPm.c **** 
 355:.\Generated_Source\PSoC5/cyPm.c ****     /* Temprorary set the maximum flash wait cycles */
 356:.\Generated_Source\PSoC5/cyPm.c ****     CyFlash_SetWaitCycles(CY_PM_MAX_FLASH_WAIT_CYCLES);
 496              		.loc 1 356 0
 497 00c6 4FF03700 		mov	r0, #55
 498 00ca FFF7FEFF 		bl	CyFlash_SetWaitCycles
 357:.\Generated_Source\PSoC5/cyPm.c **** 
 358:.\Generated_Source\PSoC5/cyPm.c ****     /* The XTAL and DSI clocks are ready to be source for Master clock. */
 359:.\Generated_Source\PSoC5/cyPm.c ****     if((CY_PM_MASTER_CLK_SRC_XTAL == cyPmClockBackup.masterClkSrc) ||
 499              		.loc 1 359 0
 500 00ce 40F20003 		movw	r3, #:lower16:cyPmClockBackup
 501 00d2 C0F20003 		movt	r3, #:upper16:cyPmClockBackup
 502 00d6 9B78     		ldrb	r3, [r3, #2]	@ zero_extendqisi2
 503 00d8 022B     		cmp	r3, #2
 504 00da 06D0     		beq	.L25
 360:.\Generated_Source\PSoC5/cyPm.c ****        (CY_PM_MASTER_CLK_SRC_DSI  == cyPmClockBackup.masterClkSrc))
 505              		.loc 1 360 0
 506 00dc 40F20003 		movw	r3, #:lower16:cyPmClockBackup
 507 00e0 C0F20003 		movt	r3, #:upper16:cyPmClockBackup
 508 00e4 9B78     		ldrb	r3, [r3, #2]	@ zero_extendqisi2
 509              		.loc 1 359 0
 510 00e6 032B     		cmp	r3, #3
 511 00e8 1CD1     		bne	.L26
 512              	.L25:
 361:.\Generated_Source\PSoC5/cyPm.c ****     {
 362:.\Generated_Source\PSoC5/cyPm.c ****         /* Restore Master clock's divider */
 363:.\Generated_Source\PSoC5/cyPm.c ****         if(CY_PM_CLKDIST_MSTR0_REG != cyPmClockBackup.clkSyncDiv)
 513              		.loc 1 363 0
 514 00ea 44F20403 		movw	r3, #:lower16:1073758212
 515 00ee C4F20003 		movt	r3, #:upper16:1073758212
 516 00f2 1B78     		ldrb	r3, [r3, #0]
 517 00f4 DAB2     		uxtb	r2, r3
 518 00f6 40F20003 		movw	r3, #:lower16:cyPmClockBackup
 519 00fa C0F20003 		movt	r3, #:upper16:cyPmClockBackup
 520 00fe 9B7A     		ldrb	r3, [r3, #10]	@ zero_extendqisi2
 521 0100 9A42     		cmp	r2, r3
 522 0102 07D0     		beq	.L27
 364:.\Generated_Source\PSoC5/cyPm.c ****         {
 365:.\Generated_Source\PSoC5/cyPm.c ****             /* Restore Master clock divider */
 366:.\Generated_Source\PSoC5/cyPm.c ****             CyMasterClk_SetDivider(cyPmClockBackup.clkSyncDiv);
 523              		.loc 1 366 0
 524 0104 40F20003 		movw	r3, #:lower16:cyPmClockBackup
 525 0108 C0F20003 		movt	r3, #:upper16:cyPmClockBackup
 526 010c 9B7A     		ldrb	r3, [r3, #10]	@ zero_extendqisi2
 527 010e 1846     		mov	r0, r3
 528 0110 FFF7FEFF 		bl	CyMasterClk_SetDivider
 529              	.L27:
 367:.\Generated_Source\PSoC5/cyPm.c ****         }
 368:.\Generated_Source\PSoC5/cyPm.c **** 
 369:.\Generated_Source\PSoC5/cyPm.c ****         /* Restore Master clock source */
 370:.\Generated_Source\PSoC5/cyPm.c ****         CyMasterClk_SetSource(cyPmClockBackup.masterClkSrc);
 530              		.loc 1 370 0
ARM GAS  C:\Users\rmcgarel\AppData\Local\Temp\ccv1YA4O.s 			page 17


 531 0114 40F20003 		movw	r3, #:lower16:cyPmClockBackup
 532 0118 C0F20003 		movt	r3, #:upper16:cyPmClockBackup
 533 011c 9B78     		ldrb	r3, [r3, #2]	@ zero_extendqisi2
 534 011e 1846     		mov	r0, r3
 535 0120 FFF7FEFF 		bl	CyMasterClk_SetSource
 536              	.L26:
 371:.\Generated_Source\PSoC5/cyPm.c ****     }
 372:.\Generated_Source\PSoC5/cyPm.c **** 
 373:.\Generated_Source\PSoC5/cyPm.c ****     /* IMO - restore IMO frequency */
 374:.\Generated_Source\PSoC5/cyPm.c ****     if((0u != (cyPmClockBackup.imoUsbClk & CY_PM_FASTCLK_IMO_CR_USB)) &&
 537              		.loc 1 374 0
 538 0124 40F20003 		movw	r3, #:lower16:cyPmClockBackup
 539 0128 C0F20003 		movt	r3, #:upper16:cyPmClockBackup
 540 012c 1B79     		ldrb	r3, [r3, #4]	@ zero_extendqisi2
 541 012e 03F04003 		and	r3, r3, #64
 542 0132 002B     		cmp	r3, #0
 543 0134 10D0     		beq	.L28
 375:.\Generated_Source\PSoC5/cyPm.c ****         (CY_IMO_FREQ_24MHZ == cyPmImoFreqMhz2Reg[cyPmClockBackup.imoFreq]))
 544              		.loc 1 375 0
 545 0136 40F20003 		movw	r3, #:lower16:cyPmClockBackup
 546 013a C0F20003 		movt	r3, #:upper16:cyPmClockBackup
 547 013e DB78     		ldrb	r3, [r3, #3]	@ zero_extendqisi2
 548 0140 07F10802 		add	r2, r7, #8
 549 0144 1344     		add	r3, r2, r3
 550 0146 13F8083C 		ldrb	r3, [r3, #-8]	@ zero_extendqisi2
 551              		.loc 1 374 0
 552 014a 032B     		cmp	r3, #3
 553 014c 04D1     		bne	.L28
 376:.\Generated_Source\PSoC5/cyPm.c ****     {
 377:.\Generated_Source\PSoC5/cyPm.c ****         /* Restore IMO frequency (24 MHz) and trim it for USB */
 378:.\Generated_Source\PSoC5/cyPm.c ****         CyIMO_SetFreq(CY_IMO_FREQ_USB);
 554              		.loc 1 378 0
 555 014e 4FF00800 		mov	r0, #8
 556 0152 FFF7FEFF 		bl	CyIMO_SetFreq
 557              		.loc 1 374 0
 558 0156 31E0     		b	.L29
 559              	.L28:
 379:.\Generated_Source\PSoC5/cyPm.c ****     }
 380:.\Generated_Source\PSoC5/cyPm.c ****     else
 381:.\Generated_Source\PSoC5/cyPm.c ****     {
 382:.\Generated_Source\PSoC5/cyPm.c ****         /* Restore IMO frequency */
 383:.\Generated_Source\PSoC5/cyPm.c ****         CyIMO_SetFreq(cyPmImoFreqMhz2Reg[cyPmClockBackup.imoFreq]);
 560              		.loc 1 383 0
 561 0158 40F20003 		movw	r3, #:lower16:cyPmClockBackup
 562 015c C0F20003 		movt	r3, #:upper16:cyPmClockBackup
 563 0160 DB78     		ldrb	r3, [r3, #3]	@ zero_extendqisi2
 564 0162 07F10802 		add	r2, r7, #8
 565 0166 1344     		add	r3, r2, r3
 566 0168 13F8083C 		ldrb	r3, [r3, #-8]	@ zero_extendqisi2
 567 016c 1846     		mov	r0, r3
 568 016e FFF7FEFF 		bl	CyIMO_SetFreq
 384:.\Generated_Source\PSoC5/cyPm.c **** 
 385:.\Generated_Source\PSoC5/cyPm.c ****         if(0u != (cyPmClockBackup.imoUsbClk & CY_PM_FASTCLK_IMO_CR_USB))
 569              		.loc 1 385 0
 570 0172 40F20003 		movw	r3, #:lower16:cyPmClockBackup
 571 0176 C0F20003 		movt	r3, #:upper16:cyPmClockBackup
 572 017a 1B79     		ldrb	r3, [r3, #4]	@ zero_extendqisi2
ARM GAS  C:\Users\rmcgarel\AppData\Local\Temp\ccv1YA4O.s 			page 18


 573 017c 03F04003 		and	r3, r3, #64
 574 0180 002B     		cmp	r3, #0
 575 0182 0ED0     		beq	.L30
 386:.\Generated_Source\PSoC5/cyPm.c ****         {
 387:.\Generated_Source\PSoC5/cyPm.c ****             CY_PM_FASTCLK_IMO_CR_REG |= CY_PM_FASTCLK_IMO_CR_USB;
 576              		.loc 1 387 0
 577 0184 44F20023 		movw	r3, #:lower16:1073758720
 578 0188 C4F20003 		movt	r3, #:upper16:1073758720
 579 018c 44F20022 		movw	r2, #:lower16:1073758720
 580 0190 C4F20002 		movt	r2, #:upper16:1073758720
 581 0194 1278     		ldrb	r2, [r2, #0]
 582 0196 D2B2     		uxtb	r2, r2
 583 0198 42F04002 		orr	r2, r2, #64
 584 019c D2B2     		uxtb	r2, r2
 585 019e 1A70     		strb	r2, [r3, #0]
 586 01a0 0CE0     		b	.L29
 587              	.L30:
 388:.\Generated_Source\PSoC5/cyPm.c ****         }
 389:.\Generated_Source\PSoC5/cyPm.c ****         else
 390:.\Generated_Source\PSoC5/cyPm.c ****         {
 391:.\Generated_Source\PSoC5/cyPm.c ****             CY_PM_FASTCLK_IMO_CR_REG &= ((uint8)(~CY_PM_FASTCLK_IMO_CR_USB));
 588              		.loc 1 391 0
 589 01a2 44F20023 		movw	r3, #:lower16:1073758720
 590 01a6 C4F20003 		movt	r3, #:upper16:1073758720
 591 01aa 44F20022 		movw	r2, #:lower16:1073758720
 592 01ae C4F20002 		movt	r2, #:upper16:1073758720
 593 01b2 1278     		ldrb	r2, [r2, #0]
 594 01b4 D2B2     		uxtb	r2, r2
 595 01b6 02F0BF02 		and	r2, r2, #191
 596 01ba 1A70     		strb	r2, [r3, #0]
 597              	.L29:
 392:.\Generated_Source\PSoC5/cyPm.c ****         }
 393:.\Generated_Source\PSoC5/cyPm.c ****     }
 394:.\Generated_Source\PSoC5/cyPm.c **** 
 395:.\Generated_Source\PSoC5/cyPm.c ****     /* IMO - restore enable state if needed */
 396:.\Generated_Source\PSoC5/cyPm.c ****     if((CY_PM_ENABLED == cyPmClockBackup.imoEnable) &&
 598              		.loc 1 396 0
 599 01bc 40F20003 		movw	r3, #:lower16:cyPmClockBackup
 600 01c0 C0F20003 		movt	r3, #:upper16:cyPmClockBackup
 601 01c4 9B79     		ldrb	r3, [r3, #6]	@ zero_extendqisi2
 602 01c6 012B     		cmp	r3, #1
 603 01c8 0DD1     		bne	.L31
 397:.\Generated_Source\PSoC5/cyPm.c ****        (0u == (CY_PM_ACT_CFG0_IMO & CY_PM_ACT_CFG0_REG)))
 604              		.loc 1 397 0
 605 01ca 44F2A033 		movw	r3, #:lower16:1073759136
 606 01ce C4F20003 		movt	r3, #:upper16:1073759136
 607 01d2 1B78     		ldrb	r3, [r3, #0]
 608 01d4 DBB2     		uxtb	r3, r3
 609 01d6 03F01003 		and	r3, r3, #16
 610              		.loc 1 396 0
 611 01da 002B     		cmp	r3, #0
 612 01dc 03D1     		bne	.L31
 398:.\Generated_Source\PSoC5/cyPm.c ****     {
 399:.\Generated_Source\PSoC5/cyPm.c ****         /* IMO - restore enabled state */
 400:.\Generated_Source\PSoC5/cyPm.c ****         CyIMO_Start(CY_PM_IMO_NO_WAIT_TO_SETTLE);
 613              		.loc 1 400 0
 614 01de 4FF00000 		mov	r0, #0
ARM GAS  C:\Users\rmcgarel\AppData\Local\Temp\ccv1YA4O.s 			page 19


 615 01e2 FFF7FEFF 		bl	CyIMO_Start
 616              	.L31:
 401:.\Generated_Source\PSoC5/cyPm.c ****     }
 402:.\Generated_Source\PSoC5/cyPm.c **** 
 403:.\Generated_Source\PSoC5/cyPm.c ****     /* IMO - restore disable state if needed */
 404:.\Generated_Source\PSoC5/cyPm.c ****     if((CY_PM_DISABLED == cyPmClockBackup.imoEnable) &&
 617              		.loc 1 404 0
 618 01e6 40F20003 		movw	r3, #:lower16:cyPmClockBackup
 619 01ea C0F20003 		movt	r3, #:upper16:cyPmClockBackup
 620 01ee 9B79     		ldrb	r3, [r3, #6]	@ zero_extendqisi2
 621 01f0 002B     		cmp	r3, #0
 622 01f2 0BD1     		bne	.L32
 405:.\Generated_Source\PSoC5/cyPm.c ****        (0u != (CY_PM_ACT_CFG0_IMO & CY_PM_ACT_CFG0_REG)))
 623              		.loc 1 405 0
 624 01f4 44F2A033 		movw	r3, #:lower16:1073759136
 625 01f8 C4F20003 		movt	r3, #:upper16:1073759136
 626 01fc 1B78     		ldrb	r3, [r3, #0]
 627 01fe DBB2     		uxtb	r3, r3
 628 0200 03F01003 		and	r3, r3, #16
 629              		.loc 1 404 0
 630 0204 002B     		cmp	r3, #0
 631 0206 01D0     		beq	.L32
 406:.\Generated_Source\PSoC5/cyPm.c ****     {
 407:.\Generated_Source\PSoC5/cyPm.c ****         CyIMO_Stop();
 632              		.loc 1 407 0
 633 0208 FFF7FEFF 		bl	CyIMO_Stop
 634              	.L32:
 408:.\Generated_Source\PSoC5/cyPm.c ****     }
 409:.\Generated_Source\PSoC5/cyPm.c **** 
 410:.\Generated_Source\PSoC5/cyPm.c ****     /* IMO - restore IMOCLK source */
 411:.\Generated_Source\PSoC5/cyPm.c ****     CyIMO_SetSource(cyPmClockBackup.imoClkSrc);
 635              		.loc 1 411 0
 636 020c 40F20003 		movw	r3, #:lower16:cyPmClockBackup
 637 0210 C0F20003 		movt	r3, #:upper16:cyPmClockBackup
 638 0214 DB79     		ldrb	r3, [r3, #7]	@ zero_extendqisi2
 639 0216 1846     		mov	r0, r3
 640 0218 FFF7FEFF 		bl	CyIMO_SetSource
 412:.\Generated_Source\PSoC5/cyPm.c **** 
 413:.\Generated_Source\PSoC5/cyPm.c ****     /* Restore IMO doubler enable state (turned off by CyPmSaveClocks()) */
 414:.\Generated_Source\PSoC5/cyPm.c ****     if(CY_PM_ENABLED == cyPmClockBackup.imo2x)
 641              		.loc 1 414 0
 642 021c 40F20003 		movw	r3, #:lower16:cyPmClockBackup
 643 0220 C0F20003 		movt	r3, #:upper16:cyPmClockBackup
 644 0224 5B7A     		ldrb	r3, [r3, #9]	@ zero_extendqisi2
 645 0226 012B     		cmp	r3, #1
 646 0228 01D1     		bne	.L33
 415:.\Generated_Source\PSoC5/cyPm.c ****     {
 416:.\Generated_Source\PSoC5/cyPm.c ****         CyIMO_EnableDoubler();
 647              		.loc 1 416 0
 648 022a FFF7FEFF 		bl	CyIMO_EnableDoubler
 649              	.L33:
 417:.\Generated_Source\PSoC5/cyPm.c ****     }
 418:.\Generated_Source\PSoC5/cyPm.c **** 
 419:.\Generated_Source\PSoC5/cyPm.c ****     /* IMO - restore clk_imo source, if needed */
 420:.\Generated_Source\PSoC5/cyPm.c ****     if(cyPmClockBackup.clkImoSrc != (CY_PM_CLKDIST_CR_REG & CY_PM_CLKDIST_IMO_OUT_MASK))
 650              		.loc 1 420 0
 651 022e 40F20003 		movw	r3, #:lower16:cyPmClockBackup
ARM GAS  C:\Users\rmcgarel\AppData\Local\Temp\ccv1YA4O.s 			page 20


 652 0232 C0F20003 		movt	r3, #:upper16:cyPmClockBackup
 653 0236 1B7A     		ldrb	r3, [r3, #8]	@ zero_extendqisi2
 654 0238 1A46     		mov	r2, r3
 655 023a 44F20003 		movw	r3, #:lower16:1073758208
 656 023e C4F20003 		movt	r3, #:upper16:1073758208
 657 0242 1B78     		ldrb	r3, [r3, #0]
 658 0244 DBB2     		uxtb	r3, r3
 659 0246 03F03003 		and	r3, r3, #48
 660 024a 9A42     		cmp	r2, r3
 661 024c 19D0     		beq	.L34
 421:.\Generated_Source\PSoC5/cyPm.c ****     {
 422:.\Generated_Source\PSoC5/cyPm.c ****         CY_PM_CLKDIST_CR_REG = (CY_PM_CLKDIST_CR_REG & ((uint8)(~CY_PM_CLKDIST_IMO_OUT_MASK))) |
 662              		.loc 1 422 0
 663 024e 44F20003 		movw	r3, #:lower16:1073758208
 664 0252 C4F20003 		movt	r3, #:upper16:1073758208
 665 0256 44F20002 		movw	r2, #:lower16:1073758208
 666 025a C4F20002 		movt	r2, #:upper16:1073758208
 667 025e 1278     		ldrb	r2, [r2, #0]
 668 0260 D2B2     		uxtb	r2, r2
 669 0262 D2B2     		uxtb	r2, r2
 670 0264 02F0CF02 		and	r2, r2, #207
 671 0268 40F20001 		movw	r1, #:lower16:cyPmClockBackup
 672 026c C0F20001 		movt	r1, #:upper16:cyPmClockBackup
 673 0270 097A     		ldrb	r1, [r1, #8]	@ zero_extendqisi2
 674 0272 0846     		mov	r0, r1
 675 0274 1146     		mov	r1, r2
 676 0276 0246     		mov	r2, r0
 677 0278 41EA0202 		orr	r2, r1, r2
 678 027c D2B2     		uxtb	r2, r2
 679 027e D2B2     		uxtb	r2, r2
 680 0280 1A70     		strb	r2, [r3, #0]
 681              	.L34:
 423:.\Generated_Source\PSoC5/cyPm.c ****                                 cyPmClockBackup.clkImoSrc;
 424:.\Generated_Source\PSoC5/cyPm.c ****     }
 425:.\Generated_Source\PSoC5/cyPm.c **** 
 426:.\Generated_Source\PSoC5/cyPm.c ****     /* PLL restore state */
 427:.\Generated_Source\PSoC5/cyPm.c ****     if(CY_PM_ENABLED == cyPmClockBackup.pllEnableState)
 682              		.loc 1 427 0
 683 0282 40F20003 		movw	r3, #:lower16:cyPmClockBackup
 684 0286 C0F20003 		movt	r3, #:upper16:cyPmClockBackup
 685 028a 9B7B     		ldrb	r3, [r3, #14]	@ zero_extendqisi2
 686 028c 012B     		cmp	r3, #1
 687 028e 17D1     		bne	.L35
 428:.\Generated_Source\PSoC5/cyPm.c ****     {
 429:.\Generated_Source\PSoC5/cyPm.c ****         /***********************************************************************
 430:.\Generated_Source\PSoC5/cyPm.c ****         * Enable PLL. The actual CyPLL_OUT_Start() without wait period uses FTW
 431:.\Generated_Source\PSoC5/cyPm.c ****         * for period measurement. This could cause a problem if CTW/FTW is used
 432:.\Generated_Source\PSoC5/cyPm.c ****         * as a wakeup time in the low power modes APIs. To omit this issue PLL
 433:.\Generated_Source\PSoC5/cyPm.c ****         * wait procedure is implemented with a software delay.
 434:.\Generated_Source\PSoC5/cyPm.c ****         ***********************************************************************/
 435:.\Generated_Source\PSoC5/cyPm.c **** 
 436:.\Generated_Source\PSoC5/cyPm.c ****         /* Enable PLL */
 437:.\Generated_Source\PSoC5/cyPm.c ****         (void) CyPLL_OUT_Start(CY_PM_PLL_OUT_NO_WAIT);
 688              		.loc 1 437 0
 689 0290 4FF00000 		mov	r0, #0
 690 0294 FFF7FEFF 		bl	CyPLL_OUT_Start
 438:.\Generated_Source\PSoC5/cyPm.c **** 
ARM GAS  C:\Users\rmcgarel\AppData\Local\Temp\ccv1YA4O.s 			page 21


 439:.\Generated_Source\PSoC5/cyPm.c ****         /* Make a 250 us delay */
 440:.\Generated_Source\PSoC5/cyPm.c ****         CyDelayCycles((uint32)CY_PM_WAIT_250_US * CY_PM_GET_CPU_FREQ_MHZ);
 691              		.loc 1 440 0
 692 0298 44F20023 		movw	r3, #:lower16:1073758720
 693 029c C4F20003 		movt	r3, #:upper16:1073758720
 694 02a0 1B78     		ldrb	r3, [r3, #0]
 695 02a2 DBB2     		uxtb	r3, r3
 696 02a4 03F00702 		and	r2, r3, #7
 697 02a8 40F20003 		movw	r3, #:lower16:cyPmImoFreqReg2Mhz
 698 02ac C0F20003 		movt	r3, #:upper16:cyPmImoFreqReg2Mhz
 699 02b0 9B5C     		ldrb	r3, [r3, r2]	@ zero_extendqisi2
 700 02b2 4FF0FA02 		mov	r2, #250
 701 02b6 02FB03F3 		mul	r3, r2, r3
 702 02ba 1846     		mov	r0, r3
 703 02bc FFF7FEFF 		bl	CyDelayCycles
 704              	.L35:
 441:.\Generated_Source\PSoC5/cyPm.c ****     }   /* (CY_PM_ENABLED == cyPmClockBackup.pllEnableState) */
 442:.\Generated_Source\PSoC5/cyPm.c **** 
 443:.\Generated_Source\PSoC5/cyPm.c **** 
 444:.\Generated_Source\PSoC5/cyPm.c ****     /* PLL and IMO is ready to be source for Master clock */
 445:.\Generated_Source\PSoC5/cyPm.c ****     if((CY_PM_MASTER_CLK_SRC_IMO == cyPmClockBackup.masterClkSrc) ||
 705              		.loc 1 445 0
 706 02c0 40F20003 		movw	r3, #:lower16:cyPmClockBackup
 707 02c4 C0F20003 		movt	r3, #:upper16:cyPmClockBackup
 708 02c8 9B78     		ldrb	r3, [r3, #2]	@ zero_extendqisi2
 709 02ca 002B     		cmp	r3, #0
 710 02cc 06D0     		beq	.L36
 446:.\Generated_Source\PSoC5/cyPm.c ****        (CY_PM_MASTER_CLK_SRC_PLL == cyPmClockBackup.masterClkSrc))
 711              		.loc 1 446 0
 712 02ce 40F20003 		movw	r3, #:lower16:cyPmClockBackup
 713 02d2 C0F20003 		movt	r3, #:upper16:cyPmClockBackup
 714 02d6 9B78     		ldrb	r3, [r3, #2]	@ zero_extendqisi2
 715              		.loc 1 445 0
 716 02d8 012B     		cmp	r3, #1
 717 02da 1CD1     		bne	.L37
 718              	.L36:
 447:.\Generated_Source\PSoC5/cyPm.c ****     {
 448:.\Generated_Source\PSoC5/cyPm.c ****         /* Restore Master clock divider */
 449:.\Generated_Source\PSoC5/cyPm.c ****         if(CY_PM_CLKDIST_MSTR0_REG != cyPmClockBackup.clkSyncDiv)
 719              		.loc 1 449 0
 720 02dc 44F20403 		movw	r3, #:lower16:1073758212
 721 02e0 C4F20003 		movt	r3, #:upper16:1073758212
 722 02e4 1B78     		ldrb	r3, [r3, #0]
 723 02e6 DAB2     		uxtb	r2, r3
 724 02e8 40F20003 		movw	r3, #:lower16:cyPmClockBackup
 725 02ec C0F20003 		movt	r3, #:upper16:cyPmClockBackup
 726 02f0 9B7A     		ldrb	r3, [r3, #10]	@ zero_extendqisi2
 727 02f2 9A42     		cmp	r2, r3
 728 02f4 07D0     		beq	.L38
 450:.\Generated_Source\PSoC5/cyPm.c ****         {
 451:.\Generated_Source\PSoC5/cyPm.c ****             CyMasterClk_SetDivider(cyPmClockBackup.clkSyncDiv);
 729              		.loc 1 451 0
 730 02f6 40F20003 		movw	r3, #:lower16:cyPmClockBackup
 731 02fa C0F20003 		movt	r3, #:upper16:cyPmClockBackup
 732 02fe 9B7A     		ldrb	r3, [r3, #10]	@ zero_extendqisi2
 733 0300 1846     		mov	r0, r3
 734 0302 FFF7FEFF 		bl	CyMasterClk_SetDivider
ARM GAS  C:\Users\rmcgarel\AppData\Local\Temp\ccv1YA4O.s 			page 22


 735              	.L38:
 452:.\Generated_Source\PSoC5/cyPm.c ****         }
 453:.\Generated_Source\PSoC5/cyPm.c **** 
 454:.\Generated_Source\PSoC5/cyPm.c ****         /* Restore Master clock source */
 455:.\Generated_Source\PSoC5/cyPm.c ****         CyMasterClk_SetSource(cyPmClockBackup.masterClkSrc);
 736              		.loc 1 455 0
 737 0306 40F20003 		movw	r3, #:lower16:cyPmClockBackup
 738 030a C0F20003 		movt	r3, #:upper16:cyPmClockBackup
 739 030e 9B78     		ldrb	r3, [r3, #2]	@ zero_extendqisi2
 740 0310 1846     		mov	r0, r3
 741 0312 FFF7FEFF 		bl	CyMasterClk_SetSource
 742              	.L37:
 456:.\Generated_Source\PSoC5/cyPm.c ****     }
 457:.\Generated_Source\PSoC5/cyPm.c **** 
 458:.\Generated_Source\PSoC5/cyPm.c ****     /* Bus clock - restore divider, if needed */
 459:.\Generated_Source\PSoC5/cyPm.c ****     if(cyPmClockBackup.clkBusDiv != (((uint16) CY_PM_CLK_BUS_MSB_DIV_REG << 8u) | CY_PM_CLK_BUS_LSB
 743              		.loc 1 459 0
 744 0316 40F20003 		movw	r3, #:lower16:cyPmClockBackup
 745 031a C0F20003 		movt	r3, #:upper16:cyPmClockBackup
 746 031e 9B89     		ldrh	r3, [r3, #12]
 747 0320 1A46     		mov	r2, r3
 748 0322 44F20703 		movw	r3, #:lower16:1073758215
 749 0326 C4F20003 		movt	r3, #:upper16:1073758215
 750 032a 1B78     		ldrb	r3, [r3, #0]
 751 032c DBB2     		uxtb	r3, r3
 752 032e 4FEA0321 		lsl	r1, r3, #8
 753 0332 44F20603 		movw	r3, #:lower16:1073758214
 754 0336 C4F20003 		movt	r3, #:upper16:1073758214
 755 033a 1B78     		ldrb	r3, [r3, #0]
 756 033c DBB2     		uxtb	r3, r3
 757 033e 41EA0303 		orr	r3, r1, r3
 758 0342 9A42     		cmp	r2, r3
 759 0344 07D0     		beq	.L39
 460:.\Generated_Source\PSoC5/cyPm.c ****     {
 461:.\Generated_Source\PSoC5/cyPm.c ****         CyBusClk_SetDivider(cyPmClockBackup.clkBusDiv);
 760              		.loc 1 461 0
 761 0346 40F20003 		movw	r3, #:lower16:cyPmClockBackup
 762 034a C0F20003 		movt	r3, #:upper16:cyPmClockBackup
 763 034e 9B89     		ldrh	r3, [r3, #12]
 764 0350 1846     		mov	r0, r3
 765 0352 FFF7FEFF 		bl	CyBusClk_SetDivider
 766              	.L39:
 462:.\Generated_Source\PSoC5/cyPm.c ****     }
 463:.\Generated_Source\PSoC5/cyPm.c **** 
 464:.\Generated_Source\PSoC5/cyPm.c ****     /* Restore flash wait cycles */
 465:.\Generated_Source\PSoC5/cyPm.c ****     CY_PM_CACHE_CR_REG = ((CY_PM_CACHE_CR_REG & ((uint8)(~CY_PM_CACHE_CR_CYCLES_MASK))) |
 767              		.loc 1 465 0
 768 0356 44F60003 		movw	r3, #:lower16:1073760256
 769 035a C4F20003 		movt	r3, #:upper16:1073760256
 770 035e 44F60002 		movw	r2, #:lower16:1073760256
 771 0362 C4F20002 		movt	r2, #:upper16:1073760256
 772 0366 1278     		ldrb	r2, [r2, #0]
 773 0368 D2B2     		uxtb	r2, r2
 774 036a D2B2     		uxtb	r2, r2
 775 036c 02F03F02 		and	r2, r2, #63
 776 0370 40F20001 		movw	r1, #:lower16:cyPmClockBackup
 777 0374 C0F20001 		movt	r1, #:upper16:cyPmClockBackup
ARM GAS  C:\Users\rmcgarel\AppData\Local\Temp\ccv1YA4O.s 			page 23


 778 0378 4979     		ldrb	r1, [r1, #5]	@ zero_extendqisi2
 779 037a 0846     		mov	r0, r1
 780 037c 1146     		mov	r1, r2
 781 037e 0246     		mov	r2, r0
 782 0380 41EA0202 		orr	r2, r1, r2
 783 0384 D2B2     		uxtb	r2, r2
 784 0386 D2B2     		uxtb	r2, r2
 785 0388 1A70     		strb	r2, [r3, #0]
 466:.\Generated_Source\PSoC5/cyPm.c ****                            cyPmClockBackup.flashWaitCycles);
 467:.\Generated_Source\PSoC5/cyPm.c **** 
 468:.\Generated_Source\PSoC5/cyPm.c ****     /* Digital and analog clocks - restore state */
 469:.\Generated_Source\PSoC5/cyPm.c ****     CY_PM_ACT_CFG1_REG = cyPmClockBackup.enClkA;
 786              		.loc 1 469 0
 787 038a 44F2A133 		movw	r3, #:lower16:1073759137
 788 038e C4F20003 		movt	r3, #:upper16:1073759137
 789 0392 40F20002 		movw	r2, #:lower16:cyPmClockBackup
 790 0396 C0F20002 		movt	r2, #:upper16:cyPmClockBackup
 791 039a 1278     		ldrb	r2, [r2, #0]	@ zero_extendqisi2
 792 039c 1A70     		strb	r2, [r3, #0]
 470:.\Generated_Source\PSoC5/cyPm.c ****     CY_PM_ACT_CFG2_REG = cyPmClockBackup.enClkD;
 793              		.loc 1 470 0
 794 039e 44F2A233 		movw	r3, #:lower16:1073759138
 795 03a2 C4F20003 		movt	r3, #:upper16:1073759138
 796 03a6 40F20002 		movw	r2, #:lower16:cyPmClockBackup
 797 03aa C0F20002 		movt	r2, #:upper16:cyPmClockBackup
 798 03ae 5278     		ldrb	r2, [r2, #1]	@ zero_extendqisi2
 799 03b0 1A70     		strb	r2, [r3, #0]
 471:.\Generated_Source\PSoC5/cyPm.c **** }
 800              		.loc 1 471 0
 801 03b2 07F10807 		add	r7, r7, #8
 802 03b6 BD46     		mov	sp, r7
 803 03b8 80BD     		pop	{r7, pc}
 804              		.cfi_endproc
 805              	.LFE1:
 806              		.size	CyPmRestoreClocks, .-CyPmRestoreClocks
 807 03ba 00BF     		.section	.text.CyPmAltAct,"ax",%progbits
 808              		.align	2
 809              		.global	CyPmAltAct
 810              		.thumb
 811              		.thumb_func
 812              		.type	CyPmAltAct, %function
 813              	CyPmAltAct:
 814              	.LFB2:
 472:.\Generated_Source\PSoC5/cyPm.c **** 
 473:.\Generated_Source\PSoC5/cyPm.c **** 
 474:.\Generated_Source\PSoC5/cyPm.c **** /*******************************************************************************
 475:.\Generated_Source\PSoC5/cyPm.c **** * Function Name: CyPmAltAct
 476:.\Generated_Source\PSoC5/cyPm.c **** ********************************************************************************
 477:.\Generated_Source\PSoC5/cyPm.c **** *
 478:.\Generated_Source\PSoC5/cyPm.c **** * Summary:
 479:.\Generated_Source\PSoC5/cyPm.c **** *  Puts the part into the Alternate Active (Standby) state. The Alternate Active
 480:.\Generated_Source\PSoC5/cyPm.c **** *  state can allow for any of the capabilities of the device to be active, but
 481:.\Generated_Source\PSoC5/cyPm.c **** *  the operation of this function is dependent on the CPU being disabled during
 482:.\Generated_Source\PSoC5/cyPm.c **** *  the Alternate Active state. The configuration code and the component APIs
 483:.\Generated_Source\PSoC5/cyPm.c **** *  will configure the template for the Alternate Active state to be the same as
 484:.\Generated_Source\PSoC5/cyPm.c **** *  the Active state with the exception that the CPU will be disabled during
 485:.\Generated_Source\PSoC5/cyPm.c **** *  Alternate Active.
ARM GAS  C:\Users\rmcgarel\AppData\Local\Temp\ccv1YA4O.s 			page 24


 486:.\Generated_Source\PSoC5/cyPm.c **** *
 487:.\Generated_Source\PSoC5/cyPm.c **** *  Note Before calling this function, you must manually configure the power mode
 488:.\Generated_Source\PSoC5/cyPm.c **** *  of the source clocks for the timer that is used as the wakeup timer.
 489:.\Generated_Source\PSoC5/cyPm.c **** *
 490:.\Generated_Source\PSoC5/cyPm.c **** *  PSoC 3:
 491:.\Generated_Source\PSoC5/cyPm.c **** *  Before switching to Alternate Active, if a wakeupTime other than NONE is
 492:.\Generated_Source\PSoC5/cyPm.c **** *  specified, then the appropriate timer state is configured as specified with
 493:.\Generated_Source\PSoC5/cyPm.c **** *  the interrupt for that timer disabled.  The wakeup source will be the
 494:.\Generated_Source\PSoC5/cyPm.c **** *  combination of the values specified in the wakeupSource and any timer
 495:.\Generated_Source\PSoC5/cyPm.c **** *  specified in the wakeupTime argument.  Once the wakeup condition is
 496:.\Generated_Source\PSoC5/cyPm.c **** *  satisfied, then all saved state is restored and the function returns in the
 497:.\Generated_Source\PSoC5/cyPm.c **** *  Active state.
 498:.\Generated_Source\PSoC5/cyPm.c **** *
 499:.\Generated_Source\PSoC5/cyPm.c **** *  Note that if the wakeupTime is made with a different value, the period before
 500:.\Generated_Source\PSoC5/cyPm.c **** *  the wakeup occurs can be significantly shorter than the specified time.  If
 501:.\Generated_Source\PSoC5/cyPm.c **** *  the next call is made with the same wakeupTime value, then the wakeup will
 502:.\Generated_Source\PSoC5/cyPm.c **** *  occur the specified period after the previous wakeup occurred.
 503:.\Generated_Source\PSoC5/cyPm.c **** *
 504:.\Generated_Source\PSoC5/cyPm.c **** *  If a wakeupTime other than NONE is specified, then upon exit the state of the
 505:.\Generated_Source\PSoC5/cyPm.c **** *  specified timer will be left as specified by wakeupTime with the timer
 506:.\Generated_Source\PSoC5/cyPm.c **** *  enabled and the interrupt disabled.  If the CTW, FTW or One PPS is already
 507:.\Generated_Source\PSoC5/cyPm.c **** *  configured for wakeup, for example with the SleepTimer or RTC components,
 508:.\Generated_Source\PSoC5/cyPm.c **** *  then specify NONE for the wakeupTime and include the appropriate source for
 509:.\Generated_Source\PSoC5/cyPm.c **** *  wakeupSource.
 510:.\Generated_Source\PSoC5/cyPm.c **** *
 511:.\Generated_Source\PSoC5/cyPm.c **** *  PSoC 5:
 512:.\Generated_Source\PSoC5/cyPm.c **** *  This function is used to both enter the Alternate Active mode and halt the
 513:.\Generated_Source\PSoC5/cyPm.c **** *  processor.  For PSoC 3 these two actions must be paired together.  With
 514:.\Generated_Source\PSoC5/cyPm.c **** *  PSoC 5 the processor can be halted independently with the __WFI() function
 515:.\Generated_Source\PSoC5/cyPm.c **** *  from the CMSIS library that is included in Creator.  This function should be
 516:.\Generated_Source\PSoC5/cyPm.c **** *  used instead when the action required is just to halt the processor until an
 517:.\Generated_Source\PSoC5/cyPm.c **** *  enabled interrupt occurs.
 518:.\Generated_Source\PSoC5/cyPm.c **** *
 519:.\Generated_Source\PSoC5/cyPm.c **** *  Neither of the parameters to the CyPmAltAct() function are used. The
 520:.\Generated_Source\PSoC5/cyPm.c **** *  parameters must be set to 0 (PM_ALT_ACT_TIME_NONE and PM_ALT_ACT_SRC_NONE).
 521:.\Generated_Source\PSoC5/cyPm.c **** *  The wake up time configuration can be done by a separate component: the CTW
 522:.\Generated_Source\PSoC5/cyPm.c **** *  wakeup interval should be configured with the Sleep Timer component and one
 523:.\Generated_Source\PSoC5/cyPm.c **** *  second interval should be configured with the RTC component.
 524:.\Generated_Source\PSoC5/cyPm.c **** *
 525:.\Generated_Source\PSoC5/cyPm.c **** *  Upon function execution the device will be switched from Active to Alternate
 526:.\Generated_Source\PSoC5/cyPm.c **** *  Active mode and the CPU will be halted. When an enabled interrupt occurs the
 527:.\Generated_Source\PSoC5/cyPm.c **** *  device will be switched to Active mode and the CPU will be started. Note that
 528:.\Generated_Source\PSoC5/cyPm.c **** *  if a wakeup event occurs and the associated interrupt is not enabled, then
 529:.\Generated_Source\PSoC5/cyPm.c **** *  the device will switch to Active mode with the CPU still halted. The CPU will
 530:.\Generated_Source\PSoC5/cyPm.c **** *  remain halted until an enabled interrupt occurs.
 531:.\Generated_Source\PSoC5/cyPm.c **** *
 532:.\Generated_Source\PSoC5/cyPm.c **** *  PSoC 5LP:
 533:.\Generated_Source\PSoC5/cyPm.c **** *  This function is used to both enter the Alternate Active mode and halt the
 534:.\Generated_Source\PSoC5/cyPm.c **** *  processor.  For PSoC 3 these two actions must be paired together.  With PSoC
 535:.\Generated_Source\PSoC5/cyPm.c **** *  5LP the processor can be halted independently with the __WFI() function from
 536:.\Generated_Source\PSoC5/cyPm.c **** *  the CMSIS library that is included in Creator.  This function should be used
 537:.\Generated_Source\PSoC5/cyPm.c **** *  instead when the action required is just to halt the processor until an
 538:.\Generated_Source\PSoC5/cyPm.c **** *  enabled interrupt occurs.
 539:.\Generated_Source\PSoC5/cyPm.c **** *
 540:.\Generated_Source\PSoC5/cyPm.c **** *  The wakeupTime parameter is not used for this device. It must be set to zero
 541:.\Generated_Source\PSoC5/cyPm.c **** *  (PM_ALT_ACT_TIME_NONE). The wake up time configuration can be done by a
 542:.\Generated_Source\PSoC5/cyPm.c **** *  separate component: the CTW wakeup interval should be configured with the
ARM GAS  C:\Users\rmcgarel\AppData\Local\Temp\ccv1YA4O.s 			page 25


 543:.\Generated_Source\PSoC5/cyPm.c **** *  Sleep Timer component and one second interval should be configured with the
 544:.\Generated_Source\PSoC5/cyPm.c **** *  RTC component.
 545:.\Generated_Source\PSoC5/cyPm.c **** *
 546:.\Generated_Source\PSoC5/cyPm.c **** *  The wakeup behavior depends on wakeupSource parameter in the following
 547:.\Generated_Source\PSoC5/cyPm.c **** *  manner: upon function execution the device will be switched from Active to
 548:.\Generated_Source\PSoC5/cyPm.c **** *  Alternate Active mode and then the CPU will be halted. When an enabled wakeup
 549:.\Generated_Source\PSoC5/cyPm.c **** *  event occurs the device will return to Active mode.  Similarly when an
 550:.\Generated_Source\PSoC5/cyPm.c **** *  enabled interrupt occurs the CPU will be started. These two actions will
 551:.\Generated_Source\PSoC5/cyPm.c **** *  occur together provided that the event that occurs is an enabled wakeup
 552:.\Generated_Source\PSoC5/cyPm.c **** *  source and also generates an interrupt. If just the wakeup event occurs then
 553:.\Generated_Source\PSoC5/cyPm.c **** *  the device will be in Active mode, but the CPU will remain halted waiting for
 554:.\Generated_Source\PSoC5/cyPm.c **** *  an interrupt. If an interrupt occurs from something other than a wakeup
 555:.\Generated_Source\PSoC5/cyPm.c **** *  source, then the CPU will restart with the device in Alternate Active mode
 556:.\Generated_Source\PSoC5/cyPm.c **** *  until a wakeup event occurs.
 557:.\Generated_Source\PSoC5/cyPm.c **** *
 558:.\Generated_Source\PSoC5/cyPm.c **** *  For example, if CyPmAltAct(PM_ALT_ACT_TIME_NONE, PM_ALT_ACT_SRC_PICU) is
 559:.\Generated_Source\PSoC5/cyPm.c **** *  called and PICU interrupt occurs, the CPU will be started and device will be
 560:.\Generated_Source\PSoC5/cyPm.c **** *  switched into Active mode. And if CyPmAltAct(PM_ALT_ACT_TIME_NONE,
 561:.\Generated_Source\PSoC5/cyPm.c **** *  PM_ALT_ACT_SRC_NONE) is called and PICU interrupt occurs, the CPU will be
 562:.\Generated_Source\PSoC5/cyPm.c **** *  started while device remains in Alternate Active mode.
 563:.\Generated_Source\PSoC5/cyPm.c **** *
 564:.\Generated_Source\PSoC5/cyPm.c **** * Parameters:
 565:.\Generated_Source\PSoC5/cyPm.c **** *  wakeupTime: Specifies a timer wakeup source and the frequency of that
 566:.\Generated_Source\PSoC5/cyPm.c **** *              source. For PSoC 5 and PSoC 5LP this parameter is ignored.
 567:.\Generated_Source\PSoC5/cyPm.c **** *
 568:.\Generated_Source\PSoC5/cyPm.c **** *           Define                      Time
 569:.\Generated_Source\PSoC5/cyPm.c **** *  PM_ALT_ACT_TIME_NONE             None
 570:.\Generated_Source\PSoC5/cyPm.c **** *  PM_ALT_ACT_TIME_ONE_PPS          One PPS: 1 second
 571:.\Generated_Source\PSoC5/cyPm.c **** *  PM_ALT_ACT_TIME_CTW_2MS          CTW: 2 ms
 572:.\Generated_Source\PSoC5/cyPm.c **** *  PM_ALT_ACT_TIME_CTW_4MS          CTW: 4 ms
 573:.\Generated_Source\PSoC5/cyPm.c **** *  PM_ALT_ACT_TIME_CTW_8MS          CTW: 8 ms
 574:.\Generated_Source\PSoC5/cyPm.c **** *  PM_ALT_ACT_TIME_CTW_16MS         CTW: 16 ms
 575:.\Generated_Source\PSoC5/cyPm.c **** *  PM_ALT_ACT_TIME_CTW_32MS         CTW: 32 ms
 576:.\Generated_Source\PSoC5/cyPm.c **** *  PM_ALT_ACT_TIME_CTW_64MS         CTW: 64 ms
 577:.\Generated_Source\PSoC5/cyPm.c **** *  PM_ALT_ACT_TIME_CTW_128MS        CTW: 128 ms
 578:.\Generated_Source\PSoC5/cyPm.c **** *  PM_ALT_ACT_TIME_CTW_256MS        CTW: 256 ms
 579:.\Generated_Source\PSoC5/cyPm.c **** *  PM_ALT_ACT_TIME_CTW_512MS        CTW: 512 ms
 580:.\Generated_Source\PSoC5/cyPm.c **** *  PM_ALT_ACT_TIME_CTW_1024MS       CTW: 1024 ms
 581:.\Generated_Source\PSoC5/cyPm.c **** *  PM_ALT_ACT_TIME_CTW_2048MS       CTW: 2048 ms
 582:.\Generated_Source\PSoC5/cyPm.c **** *  PM_ALT_ACT_TIME_CTW_4096MS       CTW: 4096 ms
 583:.\Generated_Source\PSoC5/cyPm.c **** *  PM_ALT_ACT_TIME_FTW(1-256)*       FTW: 10us to 2.56 ms
 584:.\Generated_Source\PSoC5/cyPm.c **** *
 585:.\Generated_Source\PSoC5/cyPm.c **** *  *Note:   PM_ALT_ACT_TIME_FTW() is a macro that takes an argument that
 586:.\Generated_Source\PSoC5/cyPm.c **** *           specifies how many increments of 10 us to delay.
 587:.\Generated_Source\PSoC5/cyPm.c ****             For PSoC 3 silicon the valid range of  values is 1 to 256.
 588:.\Generated_Source\PSoC5/cyPm.c **** *
 589:.\Generated_Source\PSoC5/cyPm.c **** *  wakeUpSource:    Specifies a bitwise mask of wakeup sources. In addition, if
 590:.\Generated_Source\PSoC5/cyPm.c **** *                   a wakeupTime has been specified the associated timer will be
 591:.\Generated_Source\PSoC5/cyPm.c **** *                   included as a wakeup source. For PSoC 5 this parameter is
 592:.\Generated_Source\PSoC5/cyPm.c **** *                   ignored.
 593:.\Generated_Source\PSoC5/cyPm.c **** *
 594:.\Generated_Source\PSoC5/cyPm.c **** *           Define                      Source
 595:.\Generated_Source\PSoC5/cyPm.c **** *  PM_ALT_ACT_SRC_NONE              None
 596:.\Generated_Source\PSoC5/cyPm.c **** *  PM_ALT_ACT_SRC_COMPARATOR0       Comparator 0
 597:.\Generated_Source\PSoC5/cyPm.c **** *  PM_ALT_ACT_SRC_COMPARATOR1       Comparator 1
 598:.\Generated_Source\PSoC5/cyPm.c **** *  PM_ALT_ACT_SRC_COMPARATOR2       Comparator 2
 599:.\Generated_Source\PSoC5/cyPm.c **** *  PM_ALT_ACT_SRC_COMPARATOR3       Comparator 3
ARM GAS  C:\Users\rmcgarel\AppData\Local\Temp\ccv1YA4O.s 			page 26


 600:.\Generated_Source\PSoC5/cyPm.c **** *  PM_ALT_ACT_SRC_INTERRUPT         Interrupt
 601:.\Generated_Source\PSoC5/cyPm.c **** *  PM_ALT_ACT_SRC_PICU              PICU
 602:.\Generated_Source\PSoC5/cyPm.c **** *  PM_ALT_ACT_SRC_I2C               I2C
 603:.\Generated_Source\PSoC5/cyPm.c **** *  PM_ALT_ACT_SRC_BOOSTCONVERTER    Boost Converter
 604:.\Generated_Source\PSoC5/cyPm.c **** *  PM_ALT_ACT_SRC_FTW               Fast Timewheel*
 605:.\Generated_Source\PSoC5/cyPm.c **** *  PM_ALT_ACT_SRC_VD                High and Low Voltage Detection (HVI, LVI)*
 606:.\Generated_Source\PSoC5/cyPm.c **** *  PM_ALT_ACT_SRC_CTW               Central Timewheel**
 607:.\Generated_Source\PSoC5/cyPm.c **** *  PM_ALT_ACT_SRC_ONE_PPS           One PPS**
 608:.\Generated_Source\PSoC5/cyPm.c **** *  PM_ALT_ACT_SRC_LCD               LCD
 609:.\Generated_Source\PSoC5/cyPm.c **** *
 610:.\Generated_Source\PSoC5/cyPm.c **** *  *Note : FTW and HVI/LVI wakeup signals are in the same mask bit.
 611:.\Generated_Source\PSoC5/cyPm.c **** *  **Note: CTW and One PPS wakeup signals are in the same mask bit.
 612:.\Generated_Source\PSoC5/cyPm.c **** *
 613:.\Generated_Source\PSoC5/cyPm.c **** *  When specifying a Comparator as the wakeupSource an instance specific define
 614:.\Generated_Source\PSoC5/cyPm.c **** *  should be used that will track with the specific comparator that the instance
 615:.\Generated_Source\PSoC5/cyPm.c **** *  is placed into. As an example, for a Comparator instance named MyComp the
 616:.\Generated_Source\PSoC5/cyPm.c **** *  value to OR into the mask is: MyComp_ctComp__CMP_MASK.
 617:.\Generated_Source\PSoC5/cyPm.c **** *
 618:.\Generated_Source\PSoC5/cyPm.c **** *  When CTW, FTW or One PPS is used as a wakeup source, the CyPmReadStatus()
 619:.\Generated_Source\PSoC5/cyPm.c **** *  function must be called upon wakeup with corresponding parameter. Please
 620:.\Generated_Source\PSoC5/cyPm.c **** *  refer to the CyPmReadStatus() API in the System Reference Guide for more
 621:.\Generated_Source\PSoC5/cyPm.c **** *  information.
 622:.\Generated_Source\PSoC5/cyPm.c **** *
 623:.\Generated_Source\PSoC5/cyPm.c **** * Return:
 624:.\Generated_Source\PSoC5/cyPm.c **** *  None
 625:.\Generated_Source\PSoC5/cyPm.c **** *
 626:.\Generated_Source\PSoC5/cyPm.c **** * Reentrant:
 627:.\Generated_Source\PSoC5/cyPm.c **** *  No
 628:.\Generated_Source\PSoC5/cyPm.c **** *
 629:.\Generated_Source\PSoC5/cyPm.c **** * Side Effects:
 630:.\Generated_Source\PSoC5/cyPm.c **** *  If a wakeupTime other than NONE is specified, then upon exit the state of the
 631:.\Generated_Source\PSoC5/cyPm.c **** *  specified timer will be left as specified by wakeupTime with the timer
 632:.\Generated_Source\PSoC5/cyPm.c **** *  enabled and the interrupt disabled.  Also, the ILO 1 KHz (if CTW timer is
 633:.\Generated_Source\PSoC5/cyPm.c **** *  used as wakeup time) or ILO 100 KHz (if FTW timer is used as wakeup time)
 634:.\Generated_Source\PSoC5/cyPm.c **** *  will be left started.
 635:.\Generated_Source\PSoC5/cyPm.c **** *
 636:.\Generated_Source\PSoC5/cyPm.c **** *******************************************************************************/
 637:.\Generated_Source\PSoC5/cyPm.c **** void CyPmAltAct(uint16 wakeupTime, uint16 wakeupSource) 
 638:.\Generated_Source\PSoC5/cyPm.c **** {
 815              		.loc 1 638 0
 816              		.cfi_startproc
 817              		@ args = 0, pretend = 0, frame = 8
 818              		@ frame_needed = 1, uses_anonymous_args = 0
 819 0000 80B5     		push	{r7, lr}
 820              	.LCFI5:
 821              		.cfi_def_cfa_offset 8
 822 0002 82B0     		sub	sp, sp, #8
 823              	.LCFI6:
 824              		.cfi_def_cfa_offset 16
 825 0004 00AF     		add	r7, sp, #0
 826              		.cfi_offset 14, -4
 827              		.cfi_offset 7, -8
 828              	.LCFI7:
 829              		.cfi_def_cfa_register 7
 830 0006 0246     		mov	r2, r0
 831 0008 0B46     		mov	r3, r1
 832 000a FA80     		strh	r2, [r7, #6]	@ movhi
ARM GAS  C:\Users\rmcgarel\AppData\Local\Temp\ccv1YA4O.s 			page 27


 833 000c BB80     		strh	r3, [r7, #4]	@ movhi
 639:.\Generated_Source\PSoC5/cyPm.c ****     #if(CY_PSOC5)
 640:.\Generated_Source\PSoC5/cyPm.c **** 
 641:.\Generated_Source\PSoC5/cyPm.c ****         /* Arguments expected to be 0 */
 642:.\Generated_Source\PSoC5/cyPm.c ****         CYASSERT(PM_ALT_ACT_TIME_NONE == wakeupTime);
 834              		.loc 1 642 0
 835 000e FB88     		ldrh	r3, [r7, #6]
 836 0010 002B     		cmp	r3, #0
 837 0012 03D0     		beq	.L42
 838 0014 4FF00000 		mov	r0, #0
 839 0018 FFF7FEFF 		bl	CyHalt
 840              	.L42:
 643:.\Generated_Source\PSoC5/cyPm.c **** 
 644:.\Generated_Source\PSoC5/cyPm.c ****         #if(CY_PSOC5A)
 645:.\Generated_Source\PSoC5/cyPm.c **** 
 646:.\Generated_Source\PSoC5/cyPm.c ****             /* The wakeupSource argument expected to be 0 */
 647:.\Generated_Source\PSoC5/cyPm.c ****             CYASSERT(PM_ALT_ACT_SRC_NONE  == wakeupSource);
 841              		.loc 1 647 0
 842 001c BB88     		ldrh	r3, [r7, #4]
 843 001e 002B     		cmp	r3, #0
 844 0020 03D0     		beq	.L43
 845 0022 4FF00000 		mov	r0, #0
 846 0026 FFF7FEFF 		bl	CyHalt
 847              	.L43:
 648:.\Generated_Source\PSoC5/cyPm.c **** 
 649:.\Generated_Source\PSoC5/cyPm.c ****             if(0u != wakeupSource)
 650:.\Generated_Source\PSoC5/cyPm.c ****             {
 651:.\Generated_Source\PSoC5/cyPm.c ****                 /* To remove unreferenced local variable warning */
 652:.\Generated_Source\PSoC5/cyPm.c ****             }
 653:.\Generated_Source\PSoC5/cyPm.c **** 
 654:.\Generated_Source\PSoC5/cyPm.c ****         #endif /* (CY_PSOC5A) */
 655:.\Generated_Source\PSoC5/cyPm.c **** 
 656:.\Generated_Source\PSoC5/cyPm.c ****         if(0u != wakeupTime)
 657:.\Generated_Source\PSoC5/cyPm.c ****         {
 658:.\Generated_Source\PSoC5/cyPm.c ****             /* To remove unreferenced local variable warning */
 659:.\Generated_Source\PSoC5/cyPm.c ****         }
 660:.\Generated_Source\PSoC5/cyPm.c **** 
 661:.\Generated_Source\PSoC5/cyPm.c ****     #endif /* (CY_PSOC5) */
 662:.\Generated_Source\PSoC5/cyPm.c **** 
 663:.\Generated_Source\PSoC5/cyPm.c **** 
 664:.\Generated_Source\PSoC5/cyPm.c ****     #if(CY_PSOC3)
 665:.\Generated_Source\PSoC5/cyPm.c **** 
 666:.\Generated_Source\PSoC5/cyPm.c ****         /* FTW - save current and set new configuration */
 667:.\Generated_Source\PSoC5/cyPm.c ****         if((wakeupTime >= PM_ALT_ACT_TIME_FTW(1u)) && (wakeupTime <= PM_ALT_ACT_TIME_FTW(256u)))
 668:.\Generated_Source\PSoC5/cyPm.c ****         {
 669:.\Generated_Source\PSoC5/cyPm.c ****             CyPmFtwSetInterval(PM_ALT_ACT_FTW_INTERVAL(wakeupTime));
 670:.\Generated_Source\PSoC5/cyPm.c **** 
 671:.\Generated_Source\PSoC5/cyPm.c ****             /* Include associated timer to the wakeupSource */
 672:.\Generated_Source\PSoC5/cyPm.c ****             wakeupSource |= PM_ALT_ACT_SRC_FTW;
 673:.\Generated_Source\PSoC5/cyPm.c ****         }
 674:.\Generated_Source\PSoC5/cyPm.c **** 
 675:.\Generated_Source\PSoC5/cyPm.c ****         /* CTW - save current and set new configuration */
 676:.\Generated_Source\PSoC5/cyPm.c ****         if((wakeupTime >= PM_ALT_ACT_TIME_CTW_2MS) && (wakeupTime <= PM_ALT_ACT_TIME_CTW_4096MS))
 677:.\Generated_Source\PSoC5/cyPm.c ****         {
 678:.\Generated_Source\PSoC5/cyPm.c ****             /* Save current CTW configuration and set new one */
 679:.\Generated_Source\PSoC5/cyPm.c ****             CyPmCtwSetInterval((uint8)(wakeupTime - 1u));
 680:.\Generated_Source\PSoC5/cyPm.c **** 
ARM GAS  C:\Users\rmcgarel\AppData\Local\Temp\ccv1YA4O.s 			page 28


 681:.\Generated_Source\PSoC5/cyPm.c ****             /* Include associated timer to the wakeupSource */
 682:.\Generated_Source\PSoC5/cyPm.c ****             wakeupSource |= PM_ALT_ACT_SRC_CTW;
 683:.\Generated_Source\PSoC5/cyPm.c ****         }
 684:.\Generated_Source\PSoC5/cyPm.c **** 
 685:.\Generated_Source\PSoC5/cyPm.c ****         /* 1PPS - save current and set new configuration */
 686:.\Generated_Source\PSoC5/cyPm.c ****         if(PM_ALT_ACT_TIME_ONE_PPS == wakeupTime)
 687:.\Generated_Source\PSoC5/cyPm.c ****         {
 688:.\Generated_Source\PSoC5/cyPm.c ****             /* Save current 1PPS configuration and set new one */
 689:.\Generated_Source\PSoC5/cyPm.c ****             CyPmOppsSet();
 690:.\Generated_Source\PSoC5/cyPm.c **** 
 691:.\Generated_Source\PSoC5/cyPm.c ****             /* Include associated timer to the wakeupSource */
 692:.\Generated_Source\PSoC5/cyPm.c ****             wakeupSource |= PM_ALT_ACT_SRC_ONE_PPS;
 693:.\Generated_Source\PSoC5/cyPm.c ****         }
 694:.\Generated_Source\PSoC5/cyPm.c **** 
 695:.\Generated_Source\PSoC5/cyPm.c ****     #endif /* (CY_PSOC3) */
 696:.\Generated_Source\PSoC5/cyPm.c **** 
 697:.\Generated_Source\PSoC5/cyPm.c **** 
 698:.\Generated_Source\PSoC5/cyPm.c ****     #if(CY_PSOC3 || CY_PSOC5LP)
 699:.\Generated_Source\PSoC5/cyPm.c **** 
 700:.\Generated_Source\PSoC5/cyPm.c ****         /* Save and set new wake up configuration */
 701:.\Generated_Source\PSoC5/cyPm.c **** 
 702:.\Generated_Source\PSoC5/cyPm.c ****         /* Interrupt, PICU, I2C, Boost converter, CTW/1PPS */
 703:.\Generated_Source\PSoC5/cyPm.c ****         cyPmBackup.wakeupCfg0 = CY_PM_WAKEUP_CFG0_REG;
 704:.\Generated_Source\PSoC5/cyPm.c ****         CY_PM_WAKEUP_CFG0_REG = (uint8) (wakeupSource >> 4u);
 705:.\Generated_Source\PSoC5/cyPm.c **** 
 706:.\Generated_Source\PSoC5/cyPm.c ****         /* Comparators */
 707:.\Generated_Source\PSoC5/cyPm.c ****         cyPmBackup.wakeupCfg1 = CY_PM_WAKEUP_CFG1_REG;
 708:.\Generated_Source\PSoC5/cyPm.c ****         CY_PM_WAKEUP_CFG1_REG = (((uint8) wakeupSource) & CY_PM_WAKEUP_SRC_CMPS_MASK);
 709:.\Generated_Source\PSoC5/cyPm.c **** 
 710:.\Generated_Source\PSoC5/cyPm.c ****         /* LCD */
 711:.\Generated_Source\PSoC5/cyPm.c ****         cyPmBackup.wakeupCfg2 = CY_PM_WAKEUP_CFG2_REG;
 712:.\Generated_Source\PSoC5/cyPm.c ****         CY_PM_WAKEUP_CFG2_REG = ((uint8) ((wakeupSource >> 12u) & 0x01u));
 713:.\Generated_Source\PSoC5/cyPm.c **** 
 714:.\Generated_Source\PSoC5/cyPm.c ****     #endif  /* (CY_PSOC3 || CY_PSOC5LP) */
 715:.\Generated_Source\PSoC5/cyPm.c **** 
 716:.\Generated_Source\PSoC5/cyPm.c **** 
 717:.\Generated_Source\PSoC5/cyPm.c ****     /* Switch to the Alternate Active mode */
 718:.\Generated_Source\PSoC5/cyPm.c ****     CY_PM_MODE_CSR_REG = ((CY_PM_MODE_CSR_REG & ((uint8)(~CY_PM_MODE_CSR_MASK))) | CY_PM_MODE_CSR_A
 848              		.loc 1 718 0
 849 002a 44F29333 		movw	r3, #:lower16:1073759123
 850 002e C4F20003 		movt	r3, #:upper16:1073759123
 851 0032 44F29332 		movw	r2, #:lower16:1073759123
 852 0036 C4F20002 		movt	r2, #:upper16:1073759123
 853 003a 1278     		ldrb	r2, [r2, #0]
 854 003c D2B2     		uxtb	r2, r2
 855 003e 02F0F802 		and	r2, r2, #248
 856 0042 42F00102 		orr	r2, r2, #1
 857 0046 D2B2     		uxtb	r2, r2
 858 0048 1A70     		strb	r2, [r3, #0]
 719:.\Generated_Source\PSoC5/cyPm.c **** 
 720:.\Generated_Source\PSoC5/cyPm.c ****     /* Recommended readback. */
 721:.\Generated_Source\PSoC5/cyPm.c ****     (void) CY_PM_MODE_CSR_REG;
 859              		.loc 1 721 0
 860 004a 44F29333 		movw	r3, #:lower16:1073759123
 861 004e C4F20003 		movt	r3, #:upper16:1073759123
 862 0052 1B78     		ldrb	r3, [r3, #0]
 722:.\Generated_Source\PSoC5/cyPm.c **** 
ARM GAS  C:\Users\rmcgarel\AppData\Local\Temp\ccv1YA4O.s 			page 29


 723:.\Generated_Source\PSoC5/cyPm.c ****     /* Two recommended NOPs to get into the mode. */
 724:.\Generated_Source\PSoC5/cyPm.c ****     CY_NOP;
 863              		.loc 1 724 0
 864              	@ 724 ".\Generated_Source\PSoC5\cyPm.c" 1
 865 0054 00BF     		NOP
 866              	
 867              	@ 0 "" 2
 725:.\Generated_Source\PSoC5/cyPm.c ****     CY_NOP;
 868              		.loc 1 725 0
 869              	@ 725 ".\Generated_Source\PSoC5\cyPm.c" 1
 870 0056 00BF     		NOP
 871              	
 872              	@ 0 "" 2
 726:.\Generated_Source\PSoC5/cyPm.c **** 
 727:.\Generated_Source\PSoC5/cyPm.c ****     /* Execute WFI instruction (for ARM-based devices only) */
 728:.\Generated_Source\PSoC5/cyPm.c ****     CY_PM_WFI;
 873              		.loc 1 728 0
 874              	@ 728 ".\Generated_Source\PSoC5\cyPm.c" 1
 875 0058 30BF     		WFI 
 876              	
 877              	@ 0 "" 2
 729:.\Generated_Source\PSoC5/cyPm.c **** 
 730:.\Generated_Source\PSoC5/cyPm.c ****     /* Point of return from Alternate Active Mode */
 731:.\Generated_Source\PSoC5/cyPm.c **** 
 732:.\Generated_Source\PSoC5/cyPm.c ****     #if(CY_PSOC3 || CY_PSOC5LP)
 733:.\Generated_Source\PSoC5/cyPm.c **** 
 734:.\Generated_Source\PSoC5/cyPm.c ****         /* Restore wake up configuration */
 735:.\Generated_Source\PSoC5/cyPm.c ****         CY_PM_WAKEUP_CFG0_REG = cyPmBackup.wakeupCfg0;
 736:.\Generated_Source\PSoC5/cyPm.c ****         CY_PM_WAKEUP_CFG1_REG = cyPmBackup.wakeupCfg1;
 737:.\Generated_Source\PSoC5/cyPm.c ****         CY_PM_WAKEUP_CFG2_REG = cyPmBackup.wakeupCfg2;
 738:.\Generated_Source\PSoC5/cyPm.c **** 
 739:.\Generated_Source\PSoC5/cyPm.c ****     #endif  /* (CY_PSOC3 || CY_PSOC5LP) */
 740:.\Generated_Source\PSoC5/cyPm.c **** }
 878              		.loc 1 740 0
 879              		.thumb
 880 005a 07F10807 		add	r7, r7, #8
 881 005e BD46     		mov	sp, r7
 882 0060 80BD     		pop	{r7, pc}
 883              		.cfi_endproc
 884              	.LFE2:
 885              		.size	CyPmAltAct, .-CyPmAltAct
 886 0062 00BF     		.section	.text.CyPmSleep,"ax",%progbits
 887              		.align	2
 888              		.global	CyPmSleep
 889              		.thumb
 890              		.thumb_func
 891              		.type	CyPmSleep, %function
 892              	CyPmSleep:
 893              	.LFB3:
 741:.\Generated_Source\PSoC5/cyPm.c **** 
 742:.\Generated_Source\PSoC5/cyPm.c **** 
 743:.\Generated_Source\PSoC5/cyPm.c **** /*******************************************************************************
 744:.\Generated_Source\PSoC5/cyPm.c **** * Function Name: CyPmSleep
 745:.\Generated_Source\PSoC5/cyPm.c **** ********************************************************************************
 746:.\Generated_Source\PSoC5/cyPm.c **** *
 747:.\Generated_Source\PSoC5/cyPm.c **** * Summary:
 748:.\Generated_Source\PSoC5/cyPm.c **** *  Puts the part into the Sleep state.
ARM GAS  C:\Users\rmcgarel\AppData\Local\Temp\ccv1YA4O.s 			page 30


 749:.\Generated_Source\PSoC5/cyPm.c **** *
 750:.\Generated_Source\PSoC5/cyPm.c **** *  Note Before calling this function, you must manually configure the power
 751:.\Generated_Source\PSoC5/cyPm.c **** *  mode of the source clocks for the timer that is used as wakeup timer.
 752:.\Generated_Source\PSoC5/cyPm.c **** *
 753:.\Generated_Source\PSoC5/cyPm.c **** *  Note Before calling this function, you must prepare clock tree configuration
 754:.\Generated_Source\PSoC5/cyPm.c **** *  for the low power mode by calling CyPmSaveClocks(). And restore clock
 755:.\Generated_Source\PSoC5/cyPm.c **** *  configuration after CyPmSleep() execution by calling CyPmRestoreClocks(). See
 756:.\Generated_Source\PSoC5/cyPm.c **** *  Power Management section, Clock Configuration subsection of the System
 757:.\Generated_Source\PSoC5/cyPm.c **** *  Reference Guide for more information.
 758:.\Generated_Source\PSoC5/cyPm.c **** *
 759:.\Generated_Source\PSoC5/cyPm.c **** *  PSoC 3:
 760:.\Generated_Source\PSoC5/cyPm.c **** *  Before switching to Sleep, if a wakeupTime other than NONE is specified,
 761:.\Generated_Source\PSoC5/cyPm.c **** *  then the appropriate timer state is configured as specified with the
 762:.\Generated_Source\PSoC5/cyPm.c **** *  interrupt for that timer disabled.  The wakeup source will be the combination
 763:.\Generated_Source\PSoC5/cyPm.c **** *  of the values specified in the wakeupSource and any timer specified in the
 764:.\Generated_Source\PSoC5/cyPm.c **** *  wakeupTime argument.  Once the wakeup condition is satisfied, then all saved
 765:.\Generated_Source\PSoC5/cyPm.c **** *  state is restored and the function returns in the Active state.
 766:.\Generated_Source\PSoC5/cyPm.c **** *
 767:.\Generated_Source\PSoC5/cyPm.c **** *  Note that if the wakeupTime is made with a different value, the period before
 768:.\Generated_Source\PSoC5/cyPm.c **** *  the wakeup occurs can be significantly shorter than the specified time.  If
 769:.\Generated_Source\PSoC5/cyPm.c **** *  the next call is made with the same wakeupTime value, then the wakeup will
 770:.\Generated_Source\PSoC5/cyPm.c **** *  occur the specified period after the previous wakeup occurred.
 771:.\Generated_Source\PSoC5/cyPm.c **** *
 772:.\Generated_Source\PSoC5/cyPm.c **** *  If a wakeupTime other than NONE is specified, then upon exit the state of the
 773:.\Generated_Source\PSoC5/cyPm.c **** *  specified timer will be left as specified by wakeupTime with the timer
 774:.\Generated_Source\PSoC5/cyPm.c **** *  enabled and the interrupt disabled.  If the CTW or One PPS is already
 775:.\Generated_Source\PSoC5/cyPm.c **** *  configured for wakeup, for example with the SleepTimer or RTC components,
 776:.\Generated_Source\PSoC5/cyPm.c **** *  then specify NONE for the wakeupTime and include the appropriate source for
 777:.\Generated_Source\PSoC5/cyPm.c **** *  wakeupSource.
 778:.\Generated_Source\PSoC5/cyPm.c **** *
 779:.\Generated_Source\PSoC5/cyPm.c **** *  PSoC 5:
 780:.\Generated_Source\PSoC5/cyPm.c **** *  Neither parameter to this function is used for PSoC 5. The parameters must be
 781:.\Generated_Source\PSoC5/cyPm.c **** *  set to 0 (PM_SLEEP_TIME_NONE and PM_SLEEP_SRC_NONE).  The device will go
 782:.\Generated_Source\PSoC5/cyPm.c **** *  into Sleep mode until it is woken by an interrupt from the Central Time Wheel
 783:.\Generated_Source\PSoC5/cyPm.c **** *  (CTW). The CTW must already be configured to generate an interrupt. It is
 784:.\Generated_Source\PSoC5/cyPm.c **** *  configured using the SleepTimer component.  Only the CTW can be used to wake
 785:.\Generated_Source\PSoC5/cyPm.c **** *  the device from sleep mode.  The other wakeup sources, Once per second or
 786:.\Generated_Source\PSoC5/cyPm.c **** *  Port Interrupt Controller (PICU), cannot be used reliably with PSoC 5. This
 787:.\Generated_Source\PSoC5/cyPm.c **** *  function automatically disables these interrupt sources and then restores
 788:.\Generated_Source\PSoC5/cyPm.c **** *  them after the devices is woken by the CTW.
 789:.\Generated_Source\PSoC5/cyPm.c **** *
 790:.\Generated_Source\PSoC5/cyPm.c **** *  The duration of sleep needs to be controlled so that the device doesn't wake
 791:.\Generated_Source\PSoC5/cyPm.c **** *  up too soon after going to sleep or remain asleep for too long.  Reliable
 792:.\Generated_Source\PSoC5/cyPm.c **** *  sleep times of between 1 ms and 128 ms can be supported.  This requirement is
 793:.\Generated_Source\PSoC5/cyPm.c **** *  satisfied with CTW settings of 4, 8, 16, 32, 64, 128 or 256 ms.  To control
 794:.\Generated_Source\PSoC5/cyPm.c **** *  the sleep time the CTW is reset automatically just before putting the device
 795:.\Generated_Source\PSoC5/cyPm.c **** *  to sleep.  The resulting wakeup time is half the duration programmed into the
 796:.\Generated_Source\PSoC5/cyPm.c **** *  CTW with an uncertainty of 1 ms due to the arrival time of the first ILO
 797:.\Generated_Source\PSoC5/cyPm.c **** *  clock edge. For example, the setting of 4 ms will result in a sleep time
 798:.\Generated_Source\PSoC5/cyPm.c **** *  between 1 ms and 2 ms.
 799:.\Generated_Source\PSoC5/cyPm.c **** *
 800:.\Generated_Source\PSoC5/cyPm.c **** *  PSoC 5LP:
 801:.\Generated_Source\PSoC5/cyPm.c **** *  The wakeupTime parameter is not used and the only NONE can be specified.
 802:.\Generated_Source\PSoC5/cyPm.c **** *  The wakeup time must be configured with the component, SleepTimer for CTW
 803:.\Generated_Source\PSoC5/cyPm.c **** *  intervals and RTC for 1PPS interval. The component must be configured to
 804:.\Generated_Source\PSoC5/cyPm.c **** *  generate an interrrupt.
 805:.\Generated_Source\PSoC5/cyPm.c **** *
ARM GAS  C:\Users\rmcgarel\AppData\Local\Temp\ccv1YA4O.s 			page 31


 806:.\Generated_Source\PSoC5/cyPm.c **** * Parameters:
 807:.\Generated_Source\PSoC5/cyPm.c **** *  wakeupTime:      Specifies a timer wakeup source and the frequency of that
 808:.\Generated_Source\PSoC5/cyPm.c **** *                   source. For PSoC 5 and PSoC 5LP, this parameter is ignored.
 809:.\Generated_Source\PSoC5/cyPm.c **** *
 810:.\Generated_Source\PSoC5/cyPm.c **** *           Define                      Time
 811:.\Generated_Source\PSoC5/cyPm.c **** *  PM_SLEEP_TIME_NONE               None
 812:.\Generated_Source\PSoC5/cyPm.c **** *  PM_SLEEP_TIME_ONE_PPS            One PPS: 1 second
 813:.\Generated_Source\PSoC5/cyPm.c **** *  PM_SLEEP_TIME_CTW_2MS            CTW: 2 ms
 814:.\Generated_Source\PSoC5/cyPm.c **** *  PM_SLEEP_TIME_CTW_4MS            CTW: 4 ms
 815:.\Generated_Source\PSoC5/cyPm.c **** *  PM_SLEEP_TIME_CTW_8MS            CTW: 8 ms
 816:.\Generated_Source\PSoC5/cyPm.c **** *  PM_SLEEP_TIME_CTW_16MS           CTW: 16 ms
 817:.\Generated_Source\PSoC5/cyPm.c **** *  PM_SLEEP_TIME_CTW_32MS           CTW: 32 ms
 818:.\Generated_Source\PSoC5/cyPm.c **** *  PM_SLEEP_TIME_CTW_64MS           CTW: 64 ms
 819:.\Generated_Source\PSoC5/cyPm.c **** *  PM_SLEEP_TIME_CTW_128MS          CTW: 128 ms
 820:.\Generated_Source\PSoC5/cyPm.c **** *  PM_SLEEP_TIME_CTW_256MS          CTW: 256 ms
 821:.\Generated_Source\PSoC5/cyPm.c **** *  PM_SLEEP_TIME_CTW_512MS          CTW: 512 ms
 822:.\Generated_Source\PSoC5/cyPm.c **** *  PM_SLEEP_TIME_CTW_1024MS         CTW: 1024 ms
 823:.\Generated_Source\PSoC5/cyPm.c **** *  PM_SLEEP_TIME_CTW_2048MS         CTW: 2048 ms
 824:.\Generated_Source\PSoC5/cyPm.c **** *  PM_SLEEP_TIME_CTW_4096MS         CTW: 4096 ms
 825:.\Generated_Source\PSoC5/cyPm.c **** *
 826:.\Generated_Source\PSoC5/cyPm.c **** *  wakeUpSource:    Specifies a bitwise mask of wakeup sources. In addition, if
 827:.\Generated_Source\PSoC5/cyPm.c **** *                   a wakeupTime has been specified the associated timer will be
 828:.\Generated_Source\PSoC5/cyPm.c **** *                   included as a wakeup source. For PSoC 5 this parameter is
 829:.\Generated_Source\PSoC5/cyPm.c **** *                   ignored.
 830:.\Generated_Source\PSoC5/cyPm.c **** *
 831:.\Generated_Source\PSoC5/cyPm.c **** *           Define                      Source
 832:.\Generated_Source\PSoC5/cyPm.c **** *  PM_SLEEP_SRC_NONE                None
 833:.\Generated_Source\PSoC5/cyPm.c **** *  PM_SLEEP_SRC_COMPARATOR0         Comparator 0
 834:.\Generated_Source\PSoC5/cyPm.c **** *  PM_SLEEP_SRC_COMPARATOR1         Comparator 1
 835:.\Generated_Source\PSoC5/cyPm.c **** *  PM_SLEEP_SRC_COMPARATOR2         Comparator 2
 836:.\Generated_Source\PSoC5/cyPm.c **** *  PM_SLEEP_SRC_COMPARATOR3         Comparator 3
 837:.\Generated_Source\PSoC5/cyPm.c **** *  PM_SLEEP_SRC_PICU                PICU
 838:.\Generated_Source\PSoC5/cyPm.c **** *  PM_SLEEP_SRC_I2C                 I2C
 839:.\Generated_Source\PSoC5/cyPm.c **** *  PM_SLEEP_SRC_BOOSTCONVERTER      Boost Converter
 840:.\Generated_Source\PSoC5/cyPm.c **** *  PM_SLEEP_SRC_VD                  High and Low Voltage Detection (HVI, LVI)
 841:.\Generated_Source\PSoC5/cyPm.c **** *  PM_SLEEP_SRC_CTW                 Central Timewheel*
 842:.\Generated_Source\PSoC5/cyPm.c **** *  PM_SLEEP_SRC_ONE_PPS             One PPS*
 843:.\Generated_Source\PSoC5/cyPm.c **** *  PM_SLEEP_SRC_LCD                 LCD
 844:.\Generated_Source\PSoC5/cyPm.c **** *
 845:.\Generated_Source\PSoC5/cyPm.c **** *  *Note:   CTW and One PPS wakeup signals are in the same mask bit.
 846:.\Generated_Source\PSoC5/cyPm.c **** *           For PSoC 5, these are in a different bit (value 1024).
 847:.\Generated_Source\PSoC5/cyPm.c **** *
 848:.\Generated_Source\PSoC5/cyPm.c **** *  When specifying a Comparator as the wakeupSource an instance specific define
 849:.\Generated_Source\PSoC5/cyPm.c **** *  should be used that will track with the specific comparator that the instance
 850:.\Generated_Source\PSoC5/cyPm.c **** *  is placed into. As an example for a Comparator instance named MyComp the
 851:.\Generated_Source\PSoC5/cyPm.c **** *  value to OR into the mask is: MyComp_ctComp__CMP_MASK.
 852:.\Generated_Source\PSoC5/cyPm.c **** *
 853:.\Generated_Source\PSoC5/cyPm.c **** *  When CTW or One PPS is used as a wakeup source, the CyPmReadStatus()
 854:.\Generated_Source\PSoC5/cyPm.c **** *  function must be called upon wakeup with corresponding parameter. Please
 855:.\Generated_Source\PSoC5/cyPm.c **** *  refer to the CyPmReadStatus() API in the System Reference Guide for more
 856:.\Generated_Source\PSoC5/cyPm.c **** *  information.
 857:.\Generated_Source\PSoC5/cyPm.c **** *
 858:.\Generated_Source\PSoC5/cyPm.c **** * Return:
 859:.\Generated_Source\PSoC5/cyPm.c **** *  None
 860:.\Generated_Source\PSoC5/cyPm.c **** *
 861:.\Generated_Source\PSoC5/cyPm.c **** * Reentrant:
 862:.\Generated_Source\PSoC5/cyPm.c **** *  No
ARM GAS  C:\Users\rmcgarel\AppData\Local\Temp\ccv1YA4O.s 			page 32


 863:.\Generated_Source\PSoC5/cyPm.c **** *
 864:.\Generated_Source\PSoC5/cyPm.c **** * Side Effects:
 865:.\Generated_Source\PSoC5/cyPm.c **** *  For PSoC 5 silicon the wakeup source is not selectable. In this case the
 866:.\Generated_Source\PSoC5/cyPm.c **** *  wakeupSource argument is ignored and any of the available wakeup sources will
 867:.\Generated_Source\PSoC5/cyPm.c **** *  wake the device.
 868:.\Generated_Source\PSoC5/cyPm.c **** *
 869:.\Generated_Source\PSoC5/cyPm.c **** *  If a wakeupTime other than NONE is specified, then upon exit the state of the
 870:.\Generated_Source\PSoC5/cyPm.c **** *  specified timer will be left as specified by wakeupTime with the timer
 871:.\Generated_Source\PSoC5/cyPm.c **** *  enabled and the interrupt disabled. Also, the ILO 1 KHz (if CTW timer is
 872:.\Generated_Source\PSoC5/cyPm.c **** *  used as wake up time) will be left started.
 873:.\Generated_Source\PSoC5/cyPm.c **** *
 874:.\Generated_Source\PSoC5/cyPm.c **** *  The 1 kHz ILO clock is expected to be enabled for PSoC 3 and PSoC 5LP to
 875:.\Generated_Source\PSoC5/cyPm.c **** *  measure Hibernate/Sleep regulator settling time after a reset. The holdoff
 876:.\Generated_Source\PSoC5/cyPm.c **** *  delay is measured using rising edges of the 1 kHz ILO.
 877:.\Generated_Source\PSoC5/cyPm.c **** *
 878:.\Generated_Source\PSoC5/cyPm.c **** *******************************************************************************/
 879:.\Generated_Source\PSoC5/cyPm.c **** void CyPmSleep(uint8 wakeupTime, uint16 wakeupSource) 
 880:.\Generated_Source\PSoC5/cyPm.c **** {
 894              		.loc 1 880 0
 895              		.cfi_startproc
 896              		@ args = 0, pretend = 0, frame = 16
 897              		@ frame_needed = 1, uses_anonymous_args = 0
 898 0000 80B5     		push	{r7, lr}
 899              	.LCFI8:
 900              		.cfi_def_cfa_offset 8
 901 0002 84B0     		sub	sp, sp, #16
 902              	.LCFI9:
 903              		.cfi_def_cfa_offset 24
 904 0004 00AF     		add	r7, sp, #0
 905              		.cfi_offset 14, -4
 906              		.cfi_offset 7, -8
 907              	.LCFI10:
 908              		.cfi_def_cfa_register 7
 909 0006 0246     		mov	r2, r0
 910 0008 0B46     		mov	r3, r1
 911 000a FA71     		strb	r2, [r7, #7]
 912 000c BB80     		strh	r3, [r7, #4]	@ movhi
 881:.\Generated_Source\PSoC5/cyPm.c ****     uint8 interruptState;
 882:.\Generated_Source\PSoC5/cyPm.c **** 
 883:.\Generated_Source\PSoC5/cyPm.c ****     /* Save current global interrupt enable and disable it */
 884:.\Generated_Source\PSoC5/cyPm.c ****     interruptState = CyEnterCriticalSection();
 913              		.loc 1 884 0
 914 000e FFF7FEFF 		bl	CyEnterCriticalSection
 915 0012 0346     		mov	r3, r0
 916 0014 FB73     		strb	r3, [r7, #15]
 885:.\Generated_Source\PSoC5/cyPm.c **** 
 886:.\Generated_Source\PSoC5/cyPm.c **** 
 887:.\Generated_Source\PSoC5/cyPm.c ****     #if(CY_PSOC3 || CY_PSOC5LP)
 888:.\Generated_Source\PSoC5/cyPm.c **** 
 889:.\Generated_Source\PSoC5/cyPm.c ****         /***********************************************************************
 890:.\Generated_Source\PSoC5/cyPm.c ****         * The Hibernate/Sleep regulator has a settling time after a reset.
 891:.\Generated_Source\PSoC5/cyPm.c ****         * During this time, the system ignores requests to enter Sleep and
 892:.\Generated_Source\PSoC5/cyPm.c ****         * Hibernate modes. The holdoff delay is measured using rising edges of
 893:.\Generated_Source\PSoC5/cyPm.c ****         * the 1 kHz ILO.
 894:.\Generated_Source\PSoC5/cyPm.c ****         ***********************************************************************/
 895:.\Generated_Source\PSoC5/cyPm.c ****         if(0u == (CY_PM_MODE_CSR_REG & CY_PM_MODE_CSR_PWRUP_PULSE_Q))
 896:.\Generated_Source\PSoC5/cyPm.c ****         {
ARM GAS  C:\Users\rmcgarel\AppData\Local\Temp\ccv1YA4O.s 			page 33


 897:.\Generated_Source\PSoC5/cyPm.c ****             /* Disable hold off - no action on restore */
 898:.\Generated_Source\PSoC5/cyPm.c ****             CY_PM_PWRSYS_SLP_TR_REG &= CY_PM_PWRSYS_SLP_TR_HIBSLP_HOLDOFF_MASK;
 899:.\Generated_Source\PSoC5/cyPm.c ****         }
 900:.\Generated_Source\PSoC5/cyPm.c ****         else
 901:.\Generated_Source\PSoC5/cyPm.c ****         {
 902:.\Generated_Source\PSoC5/cyPm.c ****             /* Abort, device is not ready for low power mode entry */
 903:.\Generated_Source\PSoC5/cyPm.c **** 
 904:.\Generated_Source\PSoC5/cyPm.c ****             /* Restore global interrupt enable state */
 905:.\Generated_Source\PSoC5/cyPm.c ****             CyExitCriticalSection(interruptState);
 906:.\Generated_Source\PSoC5/cyPm.c **** 
 907:.\Generated_Source\PSoC5/cyPm.c ****             return;
 908:.\Generated_Source\PSoC5/cyPm.c ****         }
 909:.\Generated_Source\PSoC5/cyPm.c **** 
 910:.\Generated_Source\PSoC5/cyPm.c ****     #endif /* (CY_PSOC3 || CY_PSOC5LP) */
 911:.\Generated_Source\PSoC5/cyPm.c **** 
 912:.\Generated_Source\PSoC5/cyPm.c **** 
 913:.\Generated_Source\PSoC5/cyPm.c ****     #if(CY_PSOC3)
 914:.\Generated_Source\PSoC5/cyPm.c **** 
 915:.\Generated_Source\PSoC5/cyPm.c ****         /* Hardware buzz expected to be disabled below for TO6 */
 916:.\Generated_Source\PSoC5/cyPm.c ****         if(CYDEV_CHIP_REV_ACTUAL < 5u)
 917:.\Generated_Source\PSoC5/cyPm.c ****         {
 918:.\Generated_Source\PSoC5/cyPm.c ****             CYASSERT(0u == (CY_PM_PWRSYS_WAKE_TR2_REG & CY_PM_PWRSYS_WAKE_TR2_EN_BUZZ));
 919:.\Generated_Source\PSoC5/cyPm.c ****         }
 920:.\Generated_Source\PSoC5/cyPm.c **** 
 921:.\Generated_Source\PSoC5/cyPm.c ****     #endif /* (CY_PSOC3) */
 922:.\Generated_Source\PSoC5/cyPm.c **** 
 923:.\Generated_Source\PSoC5/cyPm.c **** 
 924:.\Generated_Source\PSoC5/cyPm.c ****     /*******************************************************************************
 925:.\Generated_Source\PSoC5/cyPm.c ****     * For ARM-based devices, an interrupt is required for the CPU to wake up. The
 926:.\Generated_Source\PSoC5/cyPm.c ****     * Power Management implementation assumes that wakeup time is configured with a
 927:.\Generated_Source\PSoC5/cyPm.c ****     * separate component (component-based wakeup time configuration) for an
 928:.\Generated_Source\PSoC5/cyPm.c ****     * interrupt to be issued on terminal count. For more information, refer to the
 929:.\Generated_Source\PSoC5/cyPm.c ****     * Wakeup Time Configuration section of System Reference Guide.
 930:.\Generated_Source\PSoC5/cyPm.c ****     *******************************************************************************/
 931:.\Generated_Source\PSoC5/cyPm.c ****     #if(CY_PSOC5)
 932:.\Generated_Source\PSoC5/cyPm.c **** 
 933:.\Generated_Source\PSoC5/cyPm.c ****         /* Arguments expected to be 0 */
 934:.\Generated_Source\PSoC5/cyPm.c ****         CYASSERT(PM_SLEEP_TIME_NONE == wakeupTime);
 917              		.loc 1 934 0
 918 0016 FB79     		ldrb	r3, [r7, #7]	@ zero_extendqisi2
 919 0018 002B     		cmp	r3, #0
 920 001a 03D0     		beq	.L46
 921 001c 4FF00000 		mov	r0, #0
 922 0020 FFF7FEFF 		bl	CyHalt
 923              	.L46:
 935:.\Generated_Source\PSoC5/cyPm.c **** 
 936:.\Generated_Source\PSoC5/cyPm.c ****         #if(CY_PSOC5A)
 937:.\Generated_Source\PSoC5/cyPm.c **** 
 938:.\Generated_Source\PSoC5/cyPm.c ****             /* The wakeupSource argument expected to be 0 */
 939:.\Generated_Source\PSoC5/cyPm.c ****             CYASSERT(PM_SLEEP_SRC_NONE  == wakeupSource);
 924              		.loc 1 939 0
 925 0024 BB88     		ldrh	r3, [r7, #4]
 926 0026 002B     		cmp	r3, #0
 927 0028 03D0     		beq	.L47
 928 002a 4FF00000 		mov	r0, #0
 929 002e FFF7FEFF 		bl	CyHalt
 930              	.L47:
ARM GAS  C:\Users\rmcgarel\AppData\Local\Temp\ccv1YA4O.s 			page 34


 940:.\Generated_Source\PSoC5/cyPm.c **** 
 941:.\Generated_Source\PSoC5/cyPm.c ****             if(0u != wakeupSource)
 942:.\Generated_Source\PSoC5/cyPm.c ****             {
 943:.\Generated_Source\PSoC5/cyPm.c ****                 /* To remove unreferenced local variable warning */
 944:.\Generated_Source\PSoC5/cyPm.c ****             }
 945:.\Generated_Source\PSoC5/cyPm.c **** 
 946:.\Generated_Source\PSoC5/cyPm.c ****         #endif /* (CY_PSOC5A) */
 947:.\Generated_Source\PSoC5/cyPm.c **** 
 948:.\Generated_Source\PSoC5/cyPm.c ****         if(0u != wakeupTime)
 949:.\Generated_Source\PSoC5/cyPm.c ****         {
 950:.\Generated_Source\PSoC5/cyPm.c ****             /* To remove unreferenced local variable warning */
 951:.\Generated_Source\PSoC5/cyPm.c ****         }
 952:.\Generated_Source\PSoC5/cyPm.c **** 
 953:.\Generated_Source\PSoC5/cyPm.c ****     #endif /* (CY_PSOC5) */
 954:.\Generated_Source\PSoC5/cyPm.c **** 
 955:.\Generated_Source\PSoC5/cyPm.c **** 
 956:.\Generated_Source\PSoC5/cyPm.c ****     /* Prepare hardware for Sleep mode */
 957:.\Generated_Source\PSoC5/cyPm.c ****     CyPmSlpSaveSet();
 931              		.loc 1 957 0
 932 0032 FFF7FEFF 		bl	CyPmSlpSaveSet
 958:.\Generated_Source\PSoC5/cyPm.c **** 
 959:.\Generated_Source\PSoC5/cyPm.c **** 
 960:.\Generated_Source\PSoC5/cyPm.c ****     #if(CY_PSOC3)
 961:.\Generated_Source\PSoC5/cyPm.c **** 
 962:.\Generated_Source\PSoC5/cyPm.c ****         /* CTW - save current and set new configuration */
 963:.\Generated_Source\PSoC5/cyPm.c ****         if((wakeupTime >= PM_SLEEP_TIME_CTW_2MS) && (wakeupTime <= PM_SLEEP_TIME_CTW_4096MS))
 964:.\Generated_Source\PSoC5/cyPm.c ****         {
 965:.\Generated_Source\PSoC5/cyPm.c ****             /* Save current and set new configuration of the CTW */
 966:.\Generated_Source\PSoC5/cyPm.c ****             CyPmCtwSetInterval((uint8)(wakeupTime - 1u));
 967:.\Generated_Source\PSoC5/cyPm.c **** 
 968:.\Generated_Source\PSoC5/cyPm.c ****             /* Include associated timer to the wakeupSource */
 969:.\Generated_Source\PSoC5/cyPm.c ****             wakeupSource |= PM_SLEEP_SRC_CTW;
 970:.\Generated_Source\PSoC5/cyPm.c ****         }
 971:.\Generated_Source\PSoC5/cyPm.c **** 
 972:.\Generated_Source\PSoC5/cyPm.c ****         /* 1PPS - save current and set new configuration */
 973:.\Generated_Source\PSoC5/cyPm.c ****         if(PM_SLEEP_TIME_ONE_PPS == wakeupTime)
 974:.\Generated_Source\PSoC5/cyPm.c ****         {
 975:.\Generated_Source\PSoC5/cyPm.c ****             /* Save current and set new configuration of the 1PPS */
 976:.\Generated_Source\PSoC5/cyPm.c ****             CyPmOppsSet();
 977:.\Generated_Source\PSoC5/cyPm.c **** 
 978:.\Generated_Source\PSoC5/cyPm.c ****             /* Include associated timer to the wakeupSource */
 979:.\Generated_Source\PSoC5/cyPm.c ****             wakeupSource |= PM_SLEEP_SRC_ONE_PPS;
 980:.\Generated_Source\PSoC5/cyPm.c ****         }
 981:.\Generated_Source\PSoC5/cyPm.c **** 
 982:.\Generated_Source\PSoC5/cyPm.c ****     #endif /* (CY_PSOC3) */
 983:.\Generated_Source\PSoC5/cyPm.c **** 
 984:.\Generated_Source\PSoC5/cyPm.c **** 
 985:.\Generated_Source\PSoC5/cyPm.c ****     #if(!CY_PSOC5A)
 986:.\Generated_Source\PSoC5/cyPm.c **** 
 987:.\Generated_Source\PSoC5/cyPm.c ****         /* Save and set new wake up configuration */
 988:.\Generated_Source\PSoC5/cyPm.c **** 
 989:.\Generated_Source\PSoC5/cyPm.c ****         /* Interrupt, PICU, I2C, Boost converter, CTW/1PPS */
 990:.\Generated_Source\PSoC5/cyPm.c ****         cyPmBackup.wakeupCfg0 = CY_PM_WAKEUP_CFG0_REG;
 991:.\Generated_Source\PSoC5/cyPm.c ****         CY_PM_WAKEUP_CFG0_REG = (uint8) (wakeupSource >> 4u);
 992:.\Generated_Source\PSoC5/cyPm.c **** 
 993:.\Generated_Source\PSoC5/cyPm.c ****         /* Comparators */
 994:.\Generated_Source\PSoC5/cyPm.c ****         cyPmBackup.wakeupCfg1 = CY_PM_WAKEUP_CFG1_REG;
ARM GAS  C:\Users\rmcgarel\AppData\Local\Temp\ccv1YA4O.s 			page 35


 995:.\Generated_Source\PSoC5/cyPm.c ****         CY_PM_WAKEUP_CFG1_REG = (((uint8) wakeupSource) & CY_PM_WAKEUP_SRC_CMPS_MASK);
 996:.\Generated_Source\PSoC5/cyPm.c **** 
 997:.\Generated_Source\PSoC5/cyPm.c ****         /* LCD */
 998:.\Generated_Source\PSoC5/cyPm.c ****         cyPmBackup.wakeupCfg2 = CY_PM_WAKEUP_CFG2_REG;
 999:.\Generated_Source\PSoC5/cyPm.c ****         CY_PM_WAKEUP_CFG2_REG = ((uint8) ((wakeupSource >> 12u) & 0x01u));
1000:.\Generated_Source\PSoC5/cyPm.c **** 
1001:.\Generated_Source\PSoC5/cyPm.c ****     #endif /* (!CY_PSOC5A) */
1002:.\Generated_Source\PSoC5/cyPm.c **** 
1003:.\Generated_Source\PSoC5/cyPm.c **** 
1004:.\Generated_Source\PSoC5/cyPm.c ****     /*******************************************************************
1005:.\Generated_Source\PSoC5/cyPm.c ****     * Do not use merge region below unless any component datasheet
1006:.\Generated_Source\PSoC5/cyPm.c ****     * suggest to do so.
1007:.\Generated_Source\PSoC5/cyPm.c ****     *******************************************************************/
1008:.\Generated_Source\PSoC5/cyPm.c ****     /* `#START CY_PM_JUST_BEFORE_SLEEP` */
1009:.\Generated_Source\PSoC5/cyPm.c **** 
1010:.\Generated_Source\PSoC5/cyPm.c ****     /* `#END` */
1011:.\Generated_Source\PSoC5/cyPm.c **** 
1012:.\Generated_Source\PSoC5/cyPm.c **** 
1013:.\Generated_Source\PSoC5/cyPm.c ****     /* Last moment IMO frequency change */
1014:.\Generated_Source\PSoC5/cyPm.c ****     if(0u == (CY_PM_FASTCLK_IMO_CR_REG & CY_PM_FASTCLK_IMO_CR_FREQ_MASK))
 933              		.loc 1 1014 0
 934 0036 44F20023 		movw	r3, #:lower16:1073758720
 935 003a C4F20003 		movt	r3, #:upper16:1073758720
 936 003e 1B78     		ldrb	r3, [r3, #0]
 937 0040 DBB2     		uxtb	r3, r3
 938 0042 03F00703 		and	r3, r3, #7
 939 0046 002B     		cmp	r3, #0
 940 0048 08D1     		bne	.L48
1015:.\Generated_Source\PSoC5/cyPm.c ****     {
1016:.\Generated_Source\PSoC5/cyPm.c ****         /* IMO frequency is 12 MHz */
1017:.\Generated_Source\PSoC5/cyPm.c ****         cyPmBackup.imoActFreq12Mhz = CY_PM_ENABLED;
 941              		.loc 1 1017 0
 942 004a 40F20003 		movw	r3, #:lower16:cyPmBackup
 943 004e C0F20003 		movt	r3, #:upper16:cyPmBackup
 944 0052 4FF00102 		mov	r2, #1
 945 0056 83F8A420 		strb	r2, [r3, #164]
 946 005a 23E0     		b	.L49
 947              	.L48:
1018:.\Generated_Source\PSoC5/cyPm.c ****     }
1019:.\Generated_Source\PSoC5/cyPm.c ****     else
1020:.\Generated_Source\PSoC5/cyPm.c ****     {
1021:.\Generated_Source\PSoC5/cyPm.c ****         /* IMO frequency is not 12 MHz */
1022:.\Generated_Source\PSoC5/cyPm.c ****         cyPmBackup.imoActFreq12Mhz = CY_PM_DISABLED;
 948              		.loc 1 1022 0
 949 005c 40F20003 		movw	r3, #:lower16:cyPmBackup
 950 0060 C0F20003 		movt	r3, #:upper16:cyPmBackup
 951 0064 4FF00002 		mov	r2, #0
 952 0068 83F8A420 		strb	r2, [r3, #164]
1023:.\Generated_Source\PSoC5/cyPm.c **** 
1024:.\Generated_Source\PSoC5/cyPm.c ****         /* Save IMO frequency */
1025:.\Generated_Source\PSoC5/cyPm.c ****         cyPmBackup.imoActFreq = CY_PM_FASTCLK_IMO_CR_REG & CY_PM_FASTCLK_IMO_CR_FREQ_MASK;
 953              		.loc 1 1025 0
 954 006c 44F20023 		movw	r3, #:lower16:1073758720
 955 0070 C4F20003 		movt	r3, #:upper16:1073758720
 956 0074 1B78     		ldrb	r3, [r3, #0]
 957 0076 DBB2     		uxtb	r3, r3
 958 0078 1A46     		mov	r2, r3
ARM GAS  C:\Users\rmcgarel\AppData\Local\Temp\ccv1YA4O.s 			page 36


 959 007a 02F00702 		and	r2, r2, #7
 960 007e 40F20003 		movw	r3, #:lower16:cyPmBackup
 961 0082 C0F20003 		movt	r3, #:upper16:cyPmBackup
 962 0086 83F8A320 		strb	r2, [r3, #163]
1026:.\Generated_Source\PSoC5/cyPm.c **** 
1027:.\Generated_Source\PSoC5/cyPm.c ****         /* Set IMO frequency to 12 MHz */
1028:.\Generated_Source\PSoC5/cyPm.c ****         CY_PM_FASTCLK_IMO_CR_REG &= ((uint8) (~CY_PM_FASTCLK_IMO_CR_FREQ_MASK));
 963              		.loc 1 1028 0
 964 008a 44F20023 		movw	r3, #:lower16:1073758720
 965 008e C4F20003 		movt	r3, #:upper16:1073758720
 966 0092 44F20022 		movw	r2, #:lower16:1073758720
 967 0096 C4F20002 		movt	r2, #:upper16:1073758720
 968 009a 1278     		ldrb	r2, [r2, #0]
 969 009c D2B2     		uxtb	r2, r2
 970 009e 02F0F802 		and	r2, r2, #248
 971 00a2 1A70     		strb	r2, [r3, #0]
 972              	.L49:
1029:.\Generated_Source\PSoC5/cyPm.c ****     }
1030:.\Generated_Source\PSoC5/cyPm.c **** 
1031:.\Generated_Source\PSoC5/cyPm.c ****     /* Switch to the Sleep mode */
1032:.\Generated_Source\PSoC5/cyPm.c ****     CY_PM_MODE_CSR_REG = ((CY_PM_MODE_CSR_REG & ((uint8)(~CY_PM_MODE_CSR_MASK))) | CY_PM_MODE_CSR_S
 973              		.loc 1 1032 0
 974 00a4 44F29333 		movw	r3, #:lower16:1073759123
 975 00a8 C4F20003 		movt	r3, #:upper16:1073759123
 976 00ac 44F29332 		movw	r2, #:lower16:1073759123
 977 00b0 C4F20002 		movt	r2, #:upper16:1073759123
 978 00b4 1278     		ldrb	r2, [r2, #0]
 979 00b6 D2B2     		uxtb	r2, r2
 980 00b8 02F0F802 		and	r2, r2, #248
 981 00bc 42F00302 		orr	r2, r2, #3
 982 00c0 D2B2     		uxtb	r2, r2
 983 00c2 1A70     		strb	r2, [r3, #0]
1033:.\Generated_Source\PSoC5/cyPm.c **** 
1034:.\Generated_Source\PSoC5/cyPm.c ****     /* Recommended readback. */
1035:.\Generated_Source\PSoC5/cyPm.c ****     (void) CY_PM_MODE_CSR_REG;
 984              		.loc 1 1035 0
 985 00c4 44F29333 		movw	r3, #:lower16:1073759123
 986 00c8 C4F20003 		movt	r3, #:upper16:1073759123
 987 00cc 1B78     		ldrb	r3, [r3, #0]
1036:.\Generated_Source\PSoC5/cyPm.c **** 
1037:.\Generated_Source\PSoC5/cyPm.c ****     /* Two recommended NOPs to get into the mode. */
1038:.\Generated_Source\PSoC5/cyPm.c ****     CY_NOP;
 988              		.loc 1 1038 0
 989              	@ 1038 ".\Generated_Source\PSoC5\cyPm.c" 1
 990 00ce 00BF     		NOP
 991              	
 992              	@ 0 "" 2
1039:.\Generated_Source\PSoC5/cyPm.c ****     CY_NOP;
 993              		.loc 1 1039 0
 994              	@ 1039 ".\Generated_Source\PSoC5\cyPm.c" 1
 995 00d0 00BF     		NOP
 996              	
 997              	@ 0 "" 2
1040:.\Generated_Source\PSoC5/cyPm.c **** 
1041:.\Generated_Source\PSoC5/cyPm.c ****     /* Execute WFI instruction (for ARM-based devices only) */
1042:.\Generated_Source\PSoC5/cyPm.c ****     CY_PM_WFI;
 998              		.loc 1 1042 0
ARM GAS  C:\Users\rmcgarel\AppData\Local\Temp\ccv1YA4O.s 			page 37


 999              	@ 1042 ".\Generated_Source\PSoC5\cyPm.c" 1
 1000 00d2 30BF     		WFI 
 1001              	
 1002              	@ 0 "" 2
1043:.\Generated_Source\PSoC5/cyPm.c **** 
1044:.\Generated_Source\PSoC5/cyPm.c ****     /* Point of return from Sleep Mode */
1045:.\Generated_Source\PSoC5/cyPm.c **** 
1046:.\Generated_Source\PSoC5/cyPm.c ****     /* Restore last moment IMO frequency change */
1047:.\Generated_Source\PSoC5/cyPm.c ****     if(CY_PM_ENABLED != cyPmBackup.imoActFreq12Mhz)
 1003              		.loc 1 1047 0
 1004              		.thumb
 1005 00d4 40F20003 		movw	r3, #:lower16:cyPmBackup
 1006 00d8 C0F20003 		movt	r3, #:upper16:cyPmBackup
 1007 00dc 93F8A430 		ldrb	r3, [r3, #164]	@ zero_extendqisi2
 1008 00e0 012B     		cmp	r3, #1
 1009 00e2 1AD0     		beq	.L50
1048:.\Generated_Source\PSoC5/cyPm.c ****     {
1049:.\Generated_Source\PSoC5/cyPm.c ****         CY_PM_FASTCLK_IMO_CR_REG  = (CY_PM_FASTCLK_IMO_CR_REG & ((uint8)(~CY_PM_FASTCLK_IMO_CR_FREQ
 1010              		.loc 1 1049 0
 1011 00e4 44F20023 		movw	r3, #:lower16:1073758720
 1012 00e8 C4F20003 		movt	r3, #:upper16:1073758720
 1013 00ec 44F20022 		movw	r2, #:lower16:1073758720
 1014 00f0 C4F20002 		movt	r2, #:upper16:1073758720
 1015 00f4 1278     		ldrb	r2, [r2, #0]
 1016 00f6 D2B2     		uxtb	r2, r2
 1017 00f8 D2B2     		uxtb	r2, r2
 1018 00fa 02F0F802 		and	r2, r2, #248
 1019 00fe 40F20001 		movw	r1, #:lower16:cyPmBackup
 1020 0102 C0F20001 		movt	r1, #:upper16:cyPmBackup
 1021 0106 91F8A310 		ldrb	r1, [r1, #163]	@ zero_extendqisi2
 1022 010a 0846     		mov	r0, r1
 1023 010c 1146     		mov	r1, r2
 1024 010e 0246     		mov	r2, r0
 1025 0110 41EA0202 		orr	r2, r1, r2
 1026 0114 D2B2     		uxtb	r2, r2
 1027 0116 D2B2     		uxtb	r2, r2
 1028 0118 1A70     		strb	r2, [r3, #0]
 1029              	.L50:
1050:.\Generated_Source\PSoC5/cyPm.c ****                                     cyPmBackup.imoActFreq;
1051:.\Generated_Source\PSoC5/cyPm.c ****     }
1052:.\Generated_Source\PSoC5/cyPm.c **** 
1053:.\Generated_Source\PSoC5/cyPm.c **** 
1054:.\Generated_Source\PSoC5/cyPm.c ****     /*******************************************************************
1055:.\Generated_Source\PSoC5/cyPm.c ****     * Do not use merge region below unless any component datasheet
1056:.\Generated_Source\PSoC5/cyPm.c ****     * suggest to do so.
1057:.\Generated_Source\PSoC5/cyPm.c ****     *******************************************************************/
1058:.\Generated_Source\PSoC5/cyPm.c ****     /* `#START CY_PM_JUST_AFTER_WAKEUP_FROM_SLEEP` */
1059:.\Generated_Source\PSoC5/cyPm.c **** 
1060:.\Generated_Source\PSoC5/cyPm.c ****     /* `#END` */
1061:.\Generated_Source\PSoC5/cyPm.c **** 
1062:.\Generated_Source\PSoC5/cyPm.c **** 
1063:.\Generated_Source\PSoC5/cyPm.c ****     /* Restore hardware configuration */
1064:.\Generated_Source\PSoC5/cyPm.c ****     CyPmSlpRestore();
 1030              		.loc 1 1064 0
 1031 011a FFF7FEFF 		bl	CyPmSlpRestore
1065:.\Generated_Source\PSoC5/cyPm.c **** 
1066:.\Generated_Source\PSoC5/cyPm.c **** 
ARM GAS  C:\Users\rmcgarel\AppData\Local\Temp\ccv1YA4O.s 			page 38


1067:.\Generated_Source\PSoC5/cyPm.c ****     #if(!CY_PSOC5A)
1068:.\Generated_Source\PSoC5/cyPm.c **** 
1069:.\Generated_Source\PSoC5/cyPm.c ****         /* Restore current wake up configuration */
1070:.\Generated_Source\PSoC5/cyPm.c ****         CY_PM_WAKEUP_CFG0_REG = cyPmBackup.wakeupCfg0;
1071:.\Generated_Source\PSoC5/cyPm.c ****         CY_PM_WAKEUP_CFG1_REG = cyPmBackup.wakeupCfg1;
1072:.\Generated_Source\PSoC5/cyPm.c ****         CY_PM_WAKEUP_CFG2_REG = cyPmBackup.wakeupCfg2;
1073:.\Generated_Source\PSoC5/cyPm.c **** 
1074:.\Generated_Source\PSoC5/cyPm.c ****     #endif /* (!CY_PSOC5A) */
1075:.\Generated_Source\PSoC5/cyPm.c **** 
1076:.\Generated_Source\PSoC5/cyPm.c ****     /* Restore global interrupt enable state */
1077:.\Generated_Source\PSoC5/cyPm.c ****     CyExitCriticalSection(interruptState);
 1032              		.loc 1 1077 0
 1033 011e FB7B     		ldrb	r3, [r7, #15]	@ zero_extendqisi2
 1034 0120 1846     		mov	r0, r3
 1035 0122 FFF7FEFF 		bl	CyExitCriticalSection
1078:.\Generated_Source\PSoC5/cyPm.c **** }
 1036              		.loc 1 1078 0
 1037 0126 07F11007 		add	r7, r7, #16
 1038 012a BD46     		mov	sp, r7
 1039 012c 80BD     		pop	{r7, pc}
 1040              		.cfi_endproc
 1041              	.LFE3:
 1042              		.size	CyPmSleep, .-CyPmSleep
 1043 012e 00BF     		.section	.text.CyPmHibernate,"ax",%progbits
 1044              		.align	2
 1045              		.global	CyPmHibernate
 1046              		.thumb
 1047              		.thumb_func
 1048              		.type	CyPmHibernate, %function
 1049              	CyPmHibernate:
 1050              	.LFB4:
1079:.\Generated_Source\PSoC5/cyPm.c **** 
1080:.\Generated_Source\PSoC5/cyPm.c **** 
1081:.\Generated_Source\PSoC5/cyPm.c **** /*******************************************************************************
1082:.\Generated_Source\PSoC5/cyPm.c **** * Function Name: CyPmHibernate
1083:.\Generated_Source\PSoC5/cyPm.c **** ********************************************************************************
1084:.\Generated_Source\PSoC5/cyPm.c **** *
1085:.\Generated_Source\PSoC5/cyPm.c **** * Summary:
1086:.\Generated_Source\PSoC5/cyPm.c **** *  Puts the part into the Hibernate state.
1087:.\Generated_Source\PSoC5/cyPm.c **** *
1088:.\Generated_Source\PSoC5/cyPm.c **** *  PSoC 3 and PSoC 5LP:
1089:.\Generated_Source\PSoC5/cyPm.c **** *  Before switching to Hibernate, the current status of the PICU wakeup source
1090:.\Generated_Source\PSoC5/cyPm.c **** *  bit is saved and then set. This configures the device to wake up from the
1091:.\Generated_Source\PSoC5/cyPm.c **** *  PICU. Make sure you have at least one pin configured to generate a PICU
1092:.\Generated_Source\PSoC5/cyPm.c **** *  interrupt. For pin Px.y, the register "PICU_INTTYPE_PICUx_INTTYPEy" controls
1093:.\Generated_Source\PSoC5/cyPm.c **** *  the PICU behavior. In the TRM, this register is "PICU[0..15]_INTTYPE[0..7]."
1094:.\Generated_Source\PSoC5/cyPm.c **** *  In the Pins component datasheet, this register is referred to as the IRQ
1095:.\Generated_Source\PSoC5/cyPm.c **** *  option. Once the wakeup occurs, the PICU wakeup source bit is restored and
1096:.\Generated_Source\PSoC5/cyPm.c **** *  the PSoC returns to the Active state.
1097:.\Generated_Source\PSoC5/cyPm.c **** *
1098:.\Generated_Source\PSoC5/cyPm.c **** *  PSoC 5:
1099:.\Generated_Source\PSoC5/cyPm.c **** *  The only method supported for waking up from the Hibernate state is a
1100:.\Generated_Source\PSoC5/cyPm.c **** *  hardware reset of the device.  The PICU wakeup source cannot be used
1101:.\Generated_Source\PSoC5/cyPm.c **** *  reliably, so the PICU interrupt sources are automatically disabled by this
1102:.\Generated_Source\PSoC5/cyPm.c **** *  function before putting the device into the Hibernate state.
1103:.\Generated_Source\PSoC5/cyPm.c **** *
1104:.\Generated_Source\PSoC5/cyPm.c **** * Parameters:
ARM GAS  C:\Users\rmcgarel\AppData\Local\Temp\ccv1YA4O.s 			page 39


1105:.\Generated_Source\PSoC5/cyPm.c **** *  None
1106:.\Generated_Source\PSoC5/cyPm.c **** *
1107:.\Generated_Source\PSoC5/cyPm.c **** * Return:
1108:.\Generated_Source\PSoC5/cyPm.c **** *  None
1109:.\Generated_Source\PSoC5/cyPm.c **** *
1110:.\Generated_Source\PSoC5/cyPm.c **** * Reentrant:
1111:.\Generated_Source\PSoC5/cyPm.c **** *  No
1112:.\Generated_Source\PSoC5/cyPm.c **** *
1113:.\Generated_Source\PSoC5/cyPm.c **** * Side Effects:
1114:.\Generated_Source\PSoC5/cyPm.c **** *  Applications must wait 20 us before re-entering hibernate or sleep after
1115:.\Generated_Source\PSoC5/cyPm.c **** *  waking up from hibernate. The 20 us allows the sleep regulator time to
1116:.\Generated_Source\PSoC5/cyPm.c **** *  stabilize before the next hibernate / sleep event occurs. The 20 us
1117:.\Generated_Source\PSoC5/cyPm.c **** *  requirement begins when the device wakes up. There is no hardware check that
1118:.\Generated_Source\PSoC5/cyPm.c **** *  this requirement is met. The specified delay should be done on ISR entry.
1119:.\Generated_Source\PSoC5/cyPm.c **** *
1120:.\Generated_Source\PSoC5/cyPm.c **** *  After wakeup PICU interrupt occurs, the Pin_ClearInterrupt() (where Pin is
1121:.\Generated_Source\PSoC5/cyPm.c **** *  instance name of the Pins component) function must be called to clear the
1122:.\Generated_Source\PSoC5/cyPm.c **** *  latched pin events to allow proper Hibernate mode entry andd to enable
1123:.\Generated_Source\PSoC5/cyPm.c **** *  detection of future events.
1124:.\Generated_Source\PSoC5/cyPm.c **** *
1125:.\Generated_Source\PSoC5/cyPm.c **** *  The 1 kHz ILO clock is expected to be enabled for PSoC 3 and PSoC 5LP to
1126:.\Generated_Source\PSoC5/cyPm.c **** *  measure Hibernate/Sleep regulator settling time after a reset. The holdoff
1127:.\Generated_Source\PSoC5/cyPm.c **** *  delay is measured using rising edges of the 1 kHz ILO.
1128:.\Generated_Source\PSoC5/cyPm.c **** *
1129:.\Generated_Source\PSoC5/cyPm.c **** *******************************************************************************/
1130:.\Generated_Source\PSoC5/cyPm.c **** void CyPmHibernate(void) 
1131:.\Generated_Source\PSoC5/cyPm.c **** {
 1051              		.loc 1 1131 0
 1052              		.cfi_startproc
 1053              		@ args = 0, pretend = 0, frame = 8
 1054              		@ frame_needed = 1, uses_anonymous_args = 0
 1055 0000 80B5     		push	{r7, lr}
 1056              	.LCFI11:
 1057              		.cfi_def_cfa_offset 8
 1058 0002 82B0     		sub	sp, sp, #8
 1059              	.LCFI12:
 1060              		.cfi_def_cfa_offset 16
 1061 0004 00AF     		add	r7, sp, #0
 1062              		.cfi_offset 14, -4
 1063              		.cfi_offset 7, -8
 1064              	.LCFI13:
 1065              		.cfi_def_cfa_register 7
1132:.\Generated_Source\PSoC5/cyPm.c ****     uint8 interruptState;
1133:.\Generated_Source\PSoC5/cyPm.c **** 
1134:.\Generated_Source\PSoC5/cyPm.c ****     /* Save current global interrupt enable and disable it */
1135:.\Generated_Source\PSoC5/cyPm.c ****     interruptState = CyEnterCriticalSection();
 1066              		.loc 1 1135 0
 1067 0006 FFF7FEFF 		bl	CyEnterCriticalSection
 1068 000a 0346     		mov	r3, r0
 1069 000c FB71     		strb	r3, [r7, #7]
1136:.\Generated_Source\PSoC5/cyPm.c **** 
1137:.\Generated_Source\PSoC5/cyPm.c ****     #if(CY_PSOC3 || CY_PSOC5LP)
1138:.\Generated_Source\PSoC5/cyPm.c **** 
1139:.\Generated_Source\PSoC5/cyPm.c ****         /***********************************************************************
1140:.\Generated_Source\PSoC5/cyPm.c ****         * The Hibernate/Sleep regulator has a settling time after a reset.
1141:.\Generated_Source\PSoC5/cyPm.c ****         * During this time, the system ignores requests to enter Sleep and
1142:.\Generated_Source\PSoC5/cyPm.c ****         * Hibernate modes. The holdoff delay is measured using rising edges of
ARM GAS  C:\Users\rmcgarel\AppData\Local\Temp\ccv1YA4O.s 			page 40


1143:.\Generated_Source\PSoC5/cyPm.c ****         * the 1 kHz ILO.
1144:.\Generated_Source\PSoC5/cyPm.c ****         ***********************************************************************/
1145:.\Generated_Source\PSoC5/cyPm.c ****         if(0u == (CY_PM_MODE_CSR_REG & CY_PM_MODE_CSR_PWRUP_PULSE_Q))
1146:.\Generated_Source\PSoC5/cyPm.c ****         {
1147:.\Generated_Source\PSoC5/cyPm.c ****             /* Disable hold off - no action on restore */
1148:.\Generated_Source\PSoC5/cyPm.c ****             CY_PM_PWRSYS_SLP_TR_REG &= CY_PM_PWRSYS_SLP_TR_HIBSLP_HOLDOFF_MASK;
1149:.\Generated_Source\PSoC5/cyPm.c ****         }
1150:.\Generated_Source\PSoC5/cyPm.c ****         else
1151:.\Generated_Source\PSoC5/cyPm.c ****         {
1152:.\Generated_Source\PSoC5/cyPm.c ****             /* Abort, device is not ready for low power mode entry */
1153:.\Generated_Source\PSoC5/cyPm.c **** 
1154:.\Generated_Source\PSoC5/cyPm.c ****             /* Restore global interrupt enable state */
1155:.\Generated_Source\PSoC5/cyPm.c ****             CyExitCriticalSection(interruptState);
1156:.\Generated_Source\PSoC5/cyPm.c **** 
1157:.\Generated_Source\PSoC5/cyPm.c ****             return;
1158:.\Generated_Source\PSoC5/cyPm.c ****         }
1159:.\Generated_Source\PSoC5/cyPm.c **** 
1160:.\Generated_Source\PSoC5/cyPm.c ****     #endif /* (CY_PSOC3 || CY_PSOC5LP) */
1161:.\Generated_Source\PSoC5/cyPm.c **** 
1162:.\Generated_Source\PSoC5/cyPm.c ****     /* Prepare device for proper Hibernate mode entry */
1163:.\Generated_Source\PSoC5/cyPm.c ****     CyPmHibSaveSet();
 1070              		.loc 1 1163 0
 1071 000e FFF7FEFF 		bl	CyPmHibSaveSet
1164:.\Generated_Source\PSoC5/cyPm.c **** 
1165:.\Generated_Source\PSoC5/cyPm.c **** 
1166:.\Generated_Source\PSoC5/cyPm.c ****     #if(!CY_PSOC5A)
1167:.\Generated_Source\PSoC5/cyPm.c **** 
1168:.\Generated_Source\PSoC5/cyPm.c ****         /* Save and enable only wakeup on PICU */
1169:.\Generated_Source\PSoC5/cyPm.c ****         cyPmBackup.wakeupCfg0 = CY_PM_WAKEUP_CFG0_REG;
1170:.\Generated_Source\PSoC5/cyPm.c ****         CY_PM_WAKEUP_CFG0_REG = CY_PM_WAKEUP_PICU;
1171:.\Generated_Source\PSoC5/cyPm.c **** 
1172:.\Generated_Source\PSoC5/cyPm.c ****         cyPmBackup.wakeupCfg1 = CY_PM_WAKEUP_CFG1_REG;
1173:.\Generated_Source\PSoC5/cyPm.c ****         CY_PM_WAKEUP_CFG1_REG = 0x00u;
1174:.\Generated_Source\PSoC5/cyPm.c **** 
1175:.\Generated_Source\PSoC5/cyPm.c ****         cyPmBackup.wakeupCfg2 = CY_PM_WAKEUP_CFG2_REG;
1176:.\Generated_Source\PSoC5/cyPm.c ****         CY_PM_WAKEUP_CFG2_REG = 0x00u;
1177:.\Generated_Source\PSoC5/cyPm.c **** 
1178:.\Generated_Source\PSoC5/cyPm.c ****     #endif  /* (!CY_PSOC5A) */
1179:.\Generated_Source\PSoC5/cyPm.c **** 
1180:.\Generated_Source\PSoC5/cyPm.c **** 
1181:.\Generated_Source\PSoC5/cyPm.c ****     /* Last moment IMO frequency change */
1182:.\Generated_Source\PSoC5/cyPm.c ****     if(0u == (CY_PM_FASTCLK_IMO_CR_REG & CY_PM_FASTCLK_IMO_CR_FREQ_MASK))
 1072              		.loc 1 1182 0
 1073 0012 44F20023 		movw	r3, #:lower16:1073758720
 1074 0016 C4F20003 		movt	r3, #:upper16:1073758720
 1075 001a 1B78     		ldrb	r3, [r3, #0]
 1076 001c DBB2     		uxtb	r3, r3
 1077 001e 03F00703 		and	r3, r3, #7
 1078 0022 002B     		cmp	r3, #0
 1079 0024 08D1     		bne	.L53
1183:.\Generated_Source\PSoC5/cyPm.c ****     {
1184:.\Generated_Source\PSoC5/cyPm.c ****         /* IMO frequency is 12 MHz */
1185:.\Generated_Source\PSoC5/cyPm.c ****         cyPmBackup.imoActFreq12Mhz = CY_PM_ENABLED;
 1080              		.loc 1 1185 0
 1081 0026 40F20003 		movw	r3, #:lower16:cyPmBackup
 1082 002a C0F20003 		movt	r3, #:upper16:cyPmBackup
 1083 002e 4FF00102 		mov	r2, #1
ARM GAS  C:\Users\rmcgarel\AppData\Local\Temp\ccv1YA4O.s 			page 41


 1084 0032 83F8A420 		strb	r2, [r3, #164]
 1085 0036 23E0     		b	.L54
 1086              	.L53:
1186:.\Generated_Source\PSoC5/cyPm.c ****     }
1187:.\Generated_Source\PSoC5/cyPm.c ****     else
1188:.\Generated_Source\PSoC5/cyPm.c ****     {
1189:.\Generated_Source\PSoC5/cyPm.c ****         /* IMO frequency is not 12 MHz */
1190:.\Generated_Source\PSoC5/cyPm.c ****         cyPmBackup.imoActFreq12Mhz = CY_PM_DISABLED;
 1087              		.loc 1 1190 0
 1088 0038 40F20003 		movw	r3, #:lower16:cyPmBackup
 1089 003c C0F20003 		movt	r3, #:upper16:cyPmBackup
 1090 0040 4FF00002 		mov	r2, #0
 1091 0044 83F8A420 		strb	r2, [r3, #164]
1191:.\Generated_Source\PSoC5/cyPm.c **** 
1192:.\Generated_Source\PSoC5/cyPm.c ****         /* Save IMO frequency */
1193:.\Generated_Source\PSoC5/cyPm.c ****         cyPmBackup.imoActFreq = CY_PM_FASTCLK_IMO_CR_REG & CY_PM_FASTCLK_IMO_CR_FREQ_MASK;
 1092              		.loc 1 1193 0
 1093 0048 44F20023 		movw	r3, #:lower16:1073758720
 1094 004c C4F20003 		movt	r3, #:upper16:1073758720
 1095 0050 1B78     		ldrb	r3, [r3, #0]
 1096 0052 DBB2     		uxtb	r3, r3
 1097 0054 1A46     		mov	r2, r3
 1098 0056 02F00702 		and	r2, r2, #7
 1099 005a 40F20003 		movw	r3, #:lower16:cyPmBackup
 1100 005e C0F20003 		movt	r3, #:upper16:cyPmBackup
 1101 0062 83F8A320 		strb	r2, [r3, #163]
1194:.\Generated_Source\PSoC5/cyPm.c **** 
1195:.\Generated_Source\PSoC5/cyPm.c ****         /* Set IMO frequency to 12 MHz */
1196:.\Generated_Source\PSoC5/cyPm.c ****         CY_PM_FASTCLK_IMO_CR_REG &= ((uint8) (~CY_PM_FASTCLK_IMO_CR_FREQ_MASK));
 1102              		.loc 1 1196 0
 1103 0066 44F20023 		movw	r3, #:lower16:1073758720
 1104 006a C4F20003 		movt	r3, #:upper16:1073758720
 1105 006e 44F20022 		movw	r2, #:lower16:1073758720
 1106 0072 C4F20002 		movt	r2, #:upper16:1073758720
 1107 0076 1278     		ldrb	r2, [r2, #0]
 1108 0078 D2B2     		uxtb	r2, r2
 1109 007a 02F0F802 		and	r2, r2, #248
 1110 007e 1A70     		strb	r2, [r3, #0]
 1111              	.L54:
1197:.\Generated_Source\PSoC5/cyPm.c ****     }
1198:.\Generated_Source\PSoC5/cyPm.c **** 
1199:.\Generated_Source\PSoC5/cyPm.c **** 
1200:.\Generated_Source\PSoC5/cyPm.c ****     /* Switch to Hibernate Mode */
1201:.\Generated_Source\PSoC5/cyPm.c ****     CY_PM_MODE_CSR_REG = (CY_PM_MODE_CSR_REG & ((uint8) (~CY_PM_MODE_CSR_MASK))) | CY_PM_MODE_CSR_H
 1112              		.loc 1 1201 0
 1113 0080 44F29333 		movw	r3, #:lower16:1073759123
 1114 0084 C4F20003 		movt	r3, #:upper16:1073759123
 1115 0088 44F29332 		movw	r2, #:lower16:1073759123
 1116 008c C4F20002 		movt	r2, #:upper16:1073759123
 1117 0090 1278     		ldrb	r2, [r2, #0]
 1118 0092 D2B2     		uxtb	r2, r2
 1119 0094 02F0F802 		and	r2, r2, #248
 1120 0098 42F00402 		orr	r2, r2, #4
 1121 009c D2B2     		uxtb	r2, r2
 1122 009e 1A70     		strb	r2, [r3, #0]
1202:.\Generated_Source\PSoC5/cyPm.c **** 
1203:.\Generated_Source\PSoC5/cyPm.c ****     /* Recommended readback. */
ARM GAS  C:\Users\rmcgarel\AppData\Local\Temp\ccv1YA4O.s 			page 42


1204:.\Generated_Source\PSoC5/cyPm.c ****     (void) CY_PM_MODE_CSR_REG;
 1123              		.loc 1 1204 0
 1124 00a0 44F29333 		movw	r3, #:lower16:1073759123
 1125 00a4 C4F20003 		movt	r3, #:upper16:1073759123
 1126 00a8 1B78     		ldrb	r3, [r3, #0]
1205:.\Generated_Source\PSoC5/cyPm.c **** 
1206:.\Generated_Source\PSoC5/cyPm.c ****     /* Two recommended NOPs to get into the mode. */
1207:.\Generated_Source\PSoC5/cyPm.c ****     CY_NOP;
 1127              		.loc 1 1207 0
 1128              	@ 1207 ".\Generated_Source\PSoC5\cyPm.c" 1
 1129 00aa 00BF     		NOP
 1130              	
 1131              	@ 0 "" 2
1208:.\Generated_Source\PSoC5/cyPm.c ****     CY_NOP;
 1132              		.loc 1 1208 0
 1133              	@ 1208 ".\Generated_Source\PSoC5\cyPm.c" 1
 1134 00ac 00BF     		NOP
 1135              	
 1136              	@ 0 "" 2
1209:.\Generated_Source\PSoC5/cyPm.c **** 
1210:.\Generated_Source\PSoC5/cyPm.c ****     /* Execute WFI instruction (for ARM-based devices only) */
1211:.\Generated_Source\PSoC5/cyPm.c ****     CY_PM_WFI;
 1137              		.loc 1 1211 0
 1138              	@ 1211 ".\Generated_Source\PSoC5\cyPm.c" 1
 1139 00ae 30BF     		WFI 
 1140              	
 1141              	@ 0 "" 2
1212:.\Generated_Source\PSoC5/cyPm.c **** 
1213:.\Generated_Source\PSoC5/cyPm.c ****     /* Point of return from Hibernate mode */
1214:.\Generated_Source\PSoC5/cyPm.c **** 
1215:.\Generated_Source\PSoC5/cyPm.c **** 
1216:.\Generated_Source\PSoC5/cyPm.c ****     /* Restore last moment IMO frequency change */
1217:.\Generated_Source\PSoC5/cyPm.c ****     if(CY_PM_ENABLED != cyPmBackup.imoActFreq12Mhz)
 1142              		.loc 1 1217 0
 1143              		.thumb
 1144 00b0 40F20003 		movw	r3, #:lower16:cyPmBackup
 1145 00b4 C0F20003 		movt	r3, #:upper16:cyPmBackup
 1146 00b8 93F8A430 		ldrb	r3, [r3, #164]	@ zero_extendqisi2
 1147 00bc 012B     		cmp	r3, #1
 1148 00be 1AD0     		beq	.L55
1218:.\Generated_Source\PSoC5/cyPm.c ****     {
1219:.\Generated_Source\PSoC5/cyPm.c ****         CY_PM_FASTCLK_IMO_CR_REG  = (CY_PM_FASTCLK_IMO_CR_REG & ((uint8)(~CY_PM_FASTCLK_IMO_CR_FREQ
 1149              		.loc 1 1219 0
 1150 00c0 44F20023 		movw	r3, #:lower16:1073758720
 1151 00c4 C4F20003 		movt	r3, #:upper16:1073758720
 1152 00c8 44F20022 		movw	r2, #:lower16:1073758720
 1153 00cc C4F20002 		movt	r2, #:upper16:1073758720
 1154 00d0 1278     		ldrb	r2, [r2, #0]
 1155 00d2 D2B2     		uxtb	r2, r2
 1156 00d4 D2B2     		uxtb	r2, r2
 1157 00d6 02F0F802 		and	r2, r2, #248
 1158 00da 40F20001 		movw	r1, #:lower16:cyPmBackup
 1159 00de C0F20001 		movt	r1, #:upper16:cyPmBackup
 1160 00e2 91F8A310 		ldrb	r1, [r1, #163]	@ zero_extendqisi2
 1161 00e6 0846     		mov	r0, r1
 1162 00e8 1146     		mov	r1, r2
 1163 00ea 0246     		mov	r2, r0
ARM GAS  C:\Users\rmcgarel\AppData\Local\Temp\ccv1YA4O.s 			page 43


 1164 00ec 41EA0202 		orr	r2, r1, r2
 1165 00f0 D2B2     		uxtb	r2, r2
 1166 00f2 D2B2     		uxtb	r2, r2
 1167 00f4 1A70     		strb	r2, [r3, #0]
 1168              	.L55:
1220:.\Generated_Source\PSoC5/cyPm.c ****                                     cyPmBackup.imoActFreq;
1221:.\Generated_Source\PSoC5/cyPm.c ****     }
1222:.\Generated_Source\PSoC5/cyPm.c **** 
1223:.\Generated_Source\PSoC5/cyPm.c **** 
1224:.\Generated_Source\PSoC5/cyPm.c ****     /* Restore device for proper Hibernate mode exit*/
1225:.\Generated_Source\PSoC5/cyPm.c ****     CyPmHibRestore();
 1169              		.loc 1 1225 0
 1170 00f6 FFF7FEFF 		bl	CyPmHibRestore
1226:.\Generated_Source\PSoC5/cyPm.c **** 
1227:.\Generated_Source\PSoC5/cyPm.c **** 
1228:.\Generated_Source\PSoC5/cyPm.c ****     #if(!CY_PSOC5A)
1229:.\Generated_Source\PSoC5/cyPm.c **** 
1230:.\Generated_Source\PSoC5/cyPm.c ****         /* Restore current wake up configuration */
1231:.\Generated_Source\PSoC5/cyPm.c ****         CY_PM_WAKEUP_CFG0_REG = cyPmBackup.wakeupCfg0;
1232:.\Generated_Source\PSoC5/cyPm.c ****         CY_PM_WAKEUP_CFG1_REG = cyPmBackup.wakeupCfg1;
1233:.\Generated_Source\PSoC5/cyPm.c ****         CY_PM_WAKEUP_CFG2_REG = cyPmBackup.wakeupCfg2;
1234:.\Generated_Source\PSoC5/cyPm.c **** 
1235:.\Generated_Source\PSoC5/cyPm.c ****     #endif /* (!CY_PSOC5A) */
1236:.\Generated_Source\PSoC5/cyPm.c **** 
1237:.\Generated_Source\PSoC5/cyPm.c ****     /* Restore global interrupt enable state */
1238:.\Generated_Source\PSoC5/cyPm.c ****     CyExitCriticalSection(interruptState);
 1171              		.loc 1 1238 0
 1172 00fa FB79     		ldrb	r3, [r7, #7]	@ zero_extendqisi2
 1173 00fc 1846     		mov	r0, r3
 1174 00fe FFF7FEFF 		bl	CyExitCriticalSection
1239:.\Generated_Source\PSoC5/cyPm.c **** }
 1175              		.loc 1 1239 0
 1176 0102 07F10807 		add	r7, r7, #8
 1177 0106 BD46     		mov	sp, r7
 1178 0108 80BD     		pop	{r7, pc}
 1179              		.cfi_endproc
 1180              	.LFE4:
 1181              		.size	CyPmHibernate, .-CyPmHibernate
 1182 010a 00BF     		.section	.text.CyPmReadStatus,"ax",%progbits
 1183              		.align	2
 1184              		.global	CyPmReadStatus
 1185              		.thumb
 1186              		.thumb_func
 1187              		.type	CyPmReadStatus, %function
 1188              	CyPmReadStatus:
 1189              	.LFB5:
1240:.\Generated_Source\PSoC5/cyPm.c **** 
1241:.\Generated_Source\PSoC5/cyPm.c **** 
1242:.\Generated_Source\PSoC5/cyPm.c **** /*******************************************************************************
1243:.\Generated_Source\PSoC5/cyPm.c **** * Function Name: CyPmReadStatus
1244:.\Generated_Source\PSoC5/cyPm.c **** ********************************************************************************
1245:.\Generated_Source\PSoC5/cyPm.c **** *
1246:.\Generated_Source\PSoC5/cyPm.c **** * Summary:
1247:.\Generated_Source\PSoC5/cyPm.c **** *  Manages the Power Manager Interrupt Status Register.  This register has the
1248:.\Generated_Source\PSoC5/cyPm.c **** *  interrupt status for the one pulse per second, central timewheel and fast
1249:.\Generated_Source\PSoC5/cyPm.c **** *  timewheel timers.  This hardware register clears on read.  To allow for only
1250:.\Generated_Source\PSoC5/cyPm.c **** *  clearing the bits of interest and preserving the other bits, this function
ARM GAS  C:\Users\rmcgarel\AppData\Local\Temp\ccv1YA4O.s 			page 44


1251:.\Generated_Source\PSoC5/cyPm.c **** *  uses a shadow register that retains the state.  This function reads the
1252:.\Generated_Source\PSoC5/cyPm.c **** *  status register and ORs that value with the shadow register.  That is the
1253:.\Generated_Source\PSoC5/cyPm.c **** *  value that is returned.  Then the bits in the mask that are set are cleared
1254:.\Generated_Source\PSoC5/cyPm.c **** *  from this value and written back to the shadow register.
1255:.\Generated_Source\PSoC5/cyPm.c **** *
1256:.\Generated_Source\PSoC5/cyPm.c **** *  Note You must call this function within 1 ms (1 clock cycle of the ILO)
1257:.\Generated_Source\PSoC5/cyPm.c **** *  after a CTW event has occurred.
1258:.\Generated_Source\PSoC5/cyPm.c **** *
1259:.\Generated_Source\PSoC5/cyPm.c **** * Parameters:
1260:.\Generated_Source\PSoC5/cyPm.c **** *  mask: Bits in the shadow register to clear.
1261:.\Generated_Source\PSoC5/cyPm.c **** *
1262:.\Generated_Source\PSoC5/cyPm.c **** *       Define                      Source
1263:.\Generated_Source\PSoC5/cyPm.c **** *  CY_PM_FTW_INT                Fast Timewheel
1264:.\Generated_Source\PSoC5/cyPm.c **** *  CY_PM_CTW_INT                Central Timewheel
1265:.\Generated_Source\PSoC5/cyPm.c **** *  CY_PM_ONEPPS_INT             One Pulse Per Second
1266:.\Generated_Source\PSoC5/cyPm.c **** *
1267:.\Generated_Source\PSoC5/cyPm.c **** * Return:
1268:.\Generated_Source\PSoC5/cyPm.c **** *  Status.  Same bits values as the mask parameter.
1269:.\Generated_Source\PSoC5/cyPm.c **** *
1270:.\Generated_Source\PSoC5/cyPm.c **** *******************************************************************************/
1271:.\Generated_Source\PSoC5/cyPm.c **** uint8 CyPmReadStatus(uint8 mask) 
1272:.\Generated_Source\PSoC5/cyPm.c **** {
 1190              		.loc 1 1272 0
 1191              		.cfi_startproc
 1192              		@ args = 0, pretend = 0, frame = 16
 1193              		@ frame_needed = 1, uses_anonymous_args = 0
 1194 0000 80B5     		push	{r7, lr}
 1195              	.LCFI14:
 1196              		.cfi_def_cfa_offset 8
 1197 0002 84B0     		sub	sp, sp, #16
 1198              	.LCFI15:
 1199              		.cfi_def_cfa_offset 24
 1200 0004 00AF     		add	r7, sp, #0
 1201              		.cfi_offset 14, -4
 1202              		.cfi_offset 7, -8
 1203              	.LCFI16:
 1204              		.cfi_def_cfa_register 7
 1205 0006 0346     		mov	r3, r0
 1206 0008 FB71     		strb	r3, [r7, #7]
1273:.\Generated_Source\PSoC5/cyPm.c ****     static uint8 interruptStatus;
1274:.\Generated_Source\PSoC5/cyPm.c ****     uint8 interruptState;
1275:.\Generated_Source\PSoC5/cyPm.c ****     uint8 tmpStatus;
1276:.\Generated_Source\PSoC5/cyPm.c **** 
1277:.\Generated_Source\PSoC5/cyPm.c ****     /* Enter critical section */
1278:.\Generated_Source\PSoC5/cyPm.c ****     interruptState = CyEnterCriticalSection();
 1207              		.loc 1 1278 0
 1208 000a FFF7FEFF 		bl	CyEnterCriticalSection
 1209 000e 0346     		mov	r3, r0
 1210 0010 BB73     		strb	r3, [r7, #14]
1279:.\Generated_Source\PSoC5/cyPm.c **** 
1280:.\Generated_Source\PSoC5/cyPm.c ****     /* Save value of the register, copy it and clear desired bit */
1281:.\Generated_Source\PSoC5/cyPm.c ****     interruptStatus |= CY_PM_INT_SR_REG;
 1211              		.loc 1 1281 0
 1212 0012 44F29033 		movw	r3, #:lower16:1073759120
 1213 0016 C4F20003 		movt	r3, #:upper16:1073759120
 1214 001a 1B78     		ldrb	r3, [r3, #0]
 1215 001c DAB2     		uxtb	r2, r3
ARM GAS  C:\Users\rmcgarel\AppData\Local\Temp\ccv1YA4O.s 			page 45


 1216 001e 40F20003 		movw	r3, #:lower16:interruptStatus.2339
 1217 0022 C0F20003 		movt	r3, #:upper16:interruptStatus.2339
 1218 0026 1B78     		ldrb	r3, [r3, #0]	@ zero_extendqisi2
 1219 0028 42EA0303 		orr	r3, r2, r3
 1220 002c DAB2     		uxtb	r2, r3
 1221 002e 40F20003 		movw	r3, #:lower16:interruptStatus.2339
 1222 0032 C0F20003 		movt	r3, #:upper16:interruptStatus.2339
 1223 0036 1A70     		strb	r2, [r3, #0]
1282:.\Generated_Source\PSoC5/cyPm.c ****     tmpStatus = interruptStatus;
 1224              		.loc 1 1282 0
 1225 0038 40F20003 		movw	r3, #:lower16:interruptStatus.2339
 1226 003c C0F20003 		movt	r3, #:upper16:interruptStatus.2339
 1227 0040 1B78     		ldrb	r3, [r3, #0]
 1228 0042 FB73     		strb	r3, [r7, #15]
1283:.\Generated_Source\PSoC5/cyPm.c ****     interruptStatus &= ((uint8)(~mask));
 1229              		.loc 1 1283 0
 1230 0044 FB79     		ldrb	r3, [r7, #7]
 1231 0046 6FEA0303 		mvn	r3, r3
 1232 004a DAB2     		uxtb	r2, r3
 1233 004c 40F20003 		movw	r3, #:lower16:interruptStatus.2339
 1234 0050 C0F20003 		movt	r3, #:upper16:interruptStatus.2339
 1235 0054 1B78     		ldrb	r3, [r3, #0]	@ zero_extendqisi2
 1236 0056 02EA0303 		and	r3, r2, r3
 1237 005a DAB2     		uxtb	r2, r3
 1238 005c 40F20003 		movw	r3, #:lower16:interruptStatus.2339
 1239 0060 C0F20003 		movt	r3, #:upper16:interruptStatus.2339
 1240 0064 1A70     		strb	r2, [r3, #0]
1284:.\Generated_Source\PSoC5/cyPm.c **** 
1285:.\Generated_Source\PSoC5/cyPm.c ****     /* Exit critical section */
1286:.\Generated_Source\PSoC5/cyPm.c ****     CyExitCriticalSection(interruptState);
 1241              		.loc 1 1286 0
 1242 0066 BB7B     		ldrb	r3, [r7, #14]	@ zero_extendqisi2
 1243 0068 1846     		mov	r0, r3
 1244 006a FFF7FEFF 		bl	CyExitCriticalSection
1287:.\Generated_Source\PSoC5/cyPm.c **** 
1288:.\Generated_Source\PSoC5/cyPm.c ****     return(tmpStatus);
 1245              		.loc 1 1288 0
 1246 006e FB7B     		ldrb	r3, [r7, #15]	@ zero_extendqisi2
1289:.\Generated_Source\PSoC5/cyPm.c **** }
 1247              		.loc 1 1289 0
 1248 0070 1846     		mov	r0, r3
 1249 0072 07F11007 		add	r7, r7, #16
 1250 0076 BD46     		mov	sp, r7
 1251 0078 80BD     		pop	{r7, pc}
 1252              		.cfi_endproc
 1253              	.LFE5:
 1254              		.size	CyPmReadStatus, .-CyPmReadStatus
 1255 007a 00BF     		.section	.text.CyPmHibSaveSet,"ax",%progbits
 1256              		.align	2
 1257              		.thumb
 1258              		.thumb_func
 1259              		.type	CyPmHibSaveSet, %function
 1260              	CyPmHibSaveSet:
 1261              	.LFB6:
1290:.\Generated_Source\PSoC5/cyPm.c **** 
1291:.\Generated_Source\PSoC5/cyPm.c **** 
1292:.\Generated_Source\PSoC5/cyPm.c **** /*******************************************************************************
ARM GAS  C:\Users\rmcgarel\AppData\Local\Temp\ccv1YA4O.s 			page 46


1293:.\Generated_Source\PSoC5/cyPm.c **** * Function Name: CyPmHibSaveSet
1294:.\Generated_Source\PSoC5/cyPm.c **** ********************************************************************************
1295:.\Generated_Source\PSoC5/cyPm.c **** *
1296:.\Generated_Source\PSoC5/cyPm.c **** * Summary:
1297:.\Generated_Source\PSoC5/cyPm.c **** *  Prepare device for proper Hibernate low power mode entry:
1298:.\Generated_Source\PSoC5/cyPm.c **** *  - Disables I2C backup regulator
1299:.\Generated_Source\PSoC5/cyPm.c **** *  - Save state of I2C backup regulator (PSoC 5)
1300:.\Generated_Source\PSoC5/cyPm.c **** *  - Saves ILO power down mode state and enable it (all but PSoC 5)
1301:.\Generated_Source\PSoC5/cyPm.c **** *  - Saves state of 1 kHz and 100 kHz ILO and disable them (all but PSoC 5)
1302:.\Generated_Source\PSoC5/cyPm.c **** *  - Disables sleep regulator and shorts vccd to vpwrsleep (all but PSoC 5)
1303:.\Generated_Source\PSoC5/cyPm.c **** *  - Save LVI/HVI configuration and disable them - CyPmHviLviSaveDisable()
1304:.\Generated_Source\PSoC5/cyPm.c **** *  - CyPmHibSlpSaveSet() function is called
1305:.\Generated_Source\PSoC5/cyPm.c **** *
1306:.\Generated_Source\PSoC5/cyPm.c **** * Parameters:
1307:.\Generated_Source\PSoC5/cyPm.c **** *  None
1308:.\Generated_Source\PSoC5/cyPm.c **** *
1309:.\Generated_Source\PSoC5/cyPm.c **** * Return:
1310:.\Generated_Source\PSoC5/cyPm.c **** *  None
1311:.\Generated_Source\PSoC5/cyPm.c **** *
1312:.\Generated_Source\PSoC5/cyPm.c **** * Reentrant:
1313:.\Generated_Source\PSoC5/cyPm.c **** *  No
1314:.\Generated_Source\PSoC5/cyPm.c **** *
1315:.\Generated_Source\PSoC5/cyPm.c **** *******************************************************************************/
1316:.\Generated_Source\PSoC5/cyPm.c **** static void CyPmHibSaveSet(void) 
1317:.\Generated_Source\PSoC5/cyPm.c **** {
 1262              		.loc 1 1317 0
 1263              		.cfi_startproc
 1264              		@ args = 0, pretend = 0, frame = 0
 1265              		@ frame_needed = 1, uses_anonymous_args = 0
 1266 0000 80B5     		push	{r7, lr}
 1267              	.LCFI17:
 1268              		.cfi_def_cfa_offset 8
 1269 0002 00AF     		add	r7, sp, #0
 1270              		.cfi_offset 14, -4
 1271              		.cfi_offset 7, -8
 1272              	.LCFI18:
 1273              		.cfi_def_cfa_register 7
1318:.\Generated_Source\PSoC5/cyPm.c ****     /* I2C backup reg must be off when the sleep regulator is unavailable */
1319:.\Generated_Source\PSoC5/cyPm.c ****     if(0u != (CY_PM_PWRSYS_CR1_REG & CY_PM_PWRSYS_CR1_I2CREG_BACKUP))
 1274              		.loc 1 1319 0
 1275 0004 44F23133 		movw	r3, #:lower16:1073759025
 1276 0008 C4F20003 		movt	r3, #:upper16:1073759025
 1277 000c 1B78     		ldrb	r3, [r3, #0]
 1278 000e DBB2     		uxtb	r3, r3
 1279 0010 03F00403 		and	r3, r3, #4
 1280 0014 002B     		cmp	r3, #0
 1281 0016 14D0     		beq	.L60
1320:.\Generated_Source\PSoC5/cyPm.c ****     {
1321:.\Generated_Source\PSoC5/cyPm.c ****         /***********************************************************************
1322:.\Generated_Source\PSoC5/cyPm.c ****         * If I2C backup regulator is enabled, all the fixed-function registers
1323:.\Generated_Source\PSoC5/cyPm.c ****         * store their values while device is in low power mode, otherwise their
1324:.\Generated_Source\PSoC5/cyPm.c ****         * configuration is lost. The I2C API makes a decision to restore or not
1325:.\Generated_Source\PSoC5/cyPm.c ****         * to restore I2C registers based on this. If this regulator will be
1326:.\Generated_Source\PSoC5/cyPm.c ****         * disabled and then enabled, I2C API will suppose that I2C block
1327:.\Generated_Source\PSoC5/cyPm.c ****         * registers preserved their values, while this is not true. So, the
1328:.\Generated_Source\PSoC5/cyPm.c ****         * backup regulator is disabled. And its value is restored only for
1329:.\Generated_Source\PSoC5/cyPm.c ****         * and PSoC 5 devices. The I2C sleep APIs is responsible for restoration.
ARM GAS  C:\Users\rmcgarel\AppData\Local\Temp\ccv1YA4O.s 			page 47


1330:.\Generated_Source\PSoC5/cyPm.c ****         ***********************************************************************/
1331:.\Generated_Source\PSoC5/cyPm.c **** 
1332:.\Generated_Source\PSoC5/cyPm.c ****         #if(CY_PSOC5A)
1333:.\Generated_Source\PSoC5/cyPm.c **** 
1334:.\Generated_Source\PSoC5/cyPm.c ****             cyPmBackup.i2cRegBackup = CY_PM_ENABLED;
 1282              		.loc 1 1334 0
 1283 0018 40F20003 		movw	r3, #:lower16:cyPmBackup
 1284 001c C0F20003 		movt	r3, #:upper16:cyPmBackup
 1285 0020 4FF00102 		mov	r2, #1
 1286 0024 1A70     		strb	r2, [r3, #0]
1335:.\Generated_Source\PSoC5/cyPm.c **** 
1336:.\Generated_Source\PSoC5/cyPm.c ****         #endif /* (CY_PSOC5A) */
1337:.\Generated_Source\PSoC5/cyPm.c **** 
1338:.\Generated_Source\PSoC5/cyPm.c ****         /* Disable I2C backup register */
1339:.\Generated_Source\PSoC5/cyPm.c ****         CY_PM_PWRSYS_CR1_REG &= ((uint8)(~CY_PM_PWRSYS_CR1_I2CREG_BACKUP));
 1287              		.loc 1 1339 0
 1288 0026 44F23133 		movw	r3, #:lower16:1073759025
 1289 002a C4F20003 		movt	r3, #:upper16:1073759025
 1290 002e 44F23132 		movw	r2, #:lower16:1073759025
 1291 0032 C4F20002 		movt	r2, #:upper16:1073759025
 1292 0036 1278     		ldrb	r2, [r2, #0]
 1293 0038 D2B2     		uxtb	r2, r2
 1294 003a 02F0FB02 		and	r2, r2, #251
 1295 003e 1A70     		strb	r2, [r3, #0]
 1296 0040 06E0     		b	.L61
 1297              	.L60:
1340:.\Generated_Source\PSoC5/cyPm.c ****     }
1341:.\Generated_Source\PSoC5/cyPm.c ****     else
1342:.\Generated_Source\PSoC5/cyPm.c ****     {
1343:.\Generated_Source\PSoC5/cyPm.c ****         #if(CY_PSOC5A)
1344:.\Generated_Source\PSoC5/cyPm.c **** 
1345:.\Generated_Source\PSoC5/cyPm.c ****             /* Save disabled state of the I2C backup regulator */
1346:.\Generated_Source\PSoC5/cyPm.c ****             cyPmBackup.i2cRegBackup = CY_PM_DISABLED;
 1298              		.loc 1 1346 0
 1299 0042 40F20003 		movw	r3, #:lower16:cyPmBackup
 1300 0046 C0F20003 		movt	r3, #:upper16:cyPmBackup
 1301 004a 4FF00002 		mov	r2, #0
 1302 004e 1A70     		strb	r2, [r3, #0]
 1303              	.L61:
1347:.\Generated_Source\PSoC5/cyPm.c **** 
1348:.\Generated_Source\PSoC5/cyPm.c ****         #endif /* (CY_PSOC5A) */
1349:.\Generated_Source\PSoC5/cyPm.c ****     }
1350:.\Generated_Source\PSoC5/cyPm.c **** 
1351:.\Generated_Source\PSoC5/cyPm.c **** 
1352:.\Generated_Source\PSoC5/cyPm.c ****     #if(!CY_PSOC5A)
1353:.\Generated_Source\PSoC5/cyPm.c **** 
1354:.\Generated_Source\PSoC5/cyPm.c ****         /* Save current ILO power mode and ensure low power mode */
1355:.\Generated_Source\PSoC5/cyPm.c ****         cyPmBackup.iloPowerMode = CyILO_SetPowerMode(CY_PM_POWERDOWN_MODE);
1356:.\Generated_Source\PSoC5/cyPm.c **** 
1357:.\Generated_Source\PSoC5/cyPm.c ****         /* Save current 1kHz ILO enable state. Disabled automatically. */
1358:.\Generated_Source\PSoC5/cyPm.c ****         cyPmBackup.ilo1kEnable = (0u == (CY_PM_SLOWCLK_ILO_CR0_REG & CY_PM_ILO_CR0_EN_1K)) ?
1359:.\Generated_Source\PSoC5/cyPm.c ****                                     CY_PM_DISABLED : CY_PM_ENABLED;
1360:.\Generated_Source\PSoC5/cyPm.c **** 
1361:.\Generated_Source\PSoC5/cyPm.c ****         /* Save current 100kHz ILO enable state. Disabled automatically. */
1362:.\Generated_Source\PSoC5/cyPm.c ****         cyPmBackup.ilo100kEnable = (0u == (CY_PM_SLOWCLK_ILO_CR0_REG & CY_PM_ILO_CR0_EN_100K)) ?
1363:.\Generated_Source\PSoC5/cyPm.c ****                                     CY_PM_DISABLED : CY_PM_ENABLED;
1364:.\Generated_Source\PSoC5/cyPm.c **** 
ARM GAS  C:\Users\rmcgarel\AppData\Local\Temp\ccv1YA4O.s 			page 48


1365:.\Generated_Source\PSoC5/cyPm.c **** 
1366:.\Generated_Source\PSoC5/cyPm.c ****         /* Disable the sleep regulator and shorts vccd to vpwrsleep */
1367:.\Generated_Source\PSoC5/cyPm.c ****         if(0u == (CY_PM_PWRSYS_SLP_TR_REG & CY_PM_PWRSYS_SLP_TR_BYPASS))
1368:.\Generated_Source\PSoC5/cyPm.c ****         {
1369:.\Generated_Source\PSoC5/cyPm.c ****             /* Save current bypass state */
1370:.\Generated_Source\PSoC5/cyPm.c ****             cyPmBackup.slpTrBypass = CY_PM_DISABLED;
1371:.\Generated_Source\PSoC5/cyPm.c ****             CY_PM_PWRSYS_SLP_TR_REG |= CY_PM_PWRSYS_SLP_TR_BYPASS;
1372:.\Generated_Source\PSoC5/cyPm.c ****         }
1373:.\Generated_Source\PSoC5/cyPm.c ****         else
1374:.\Generated_Source\PSoC5/cyPm.c ****         {
1375:.\Generated_Source\PSoC5/cyPm.c ****             cyPmBackup.slpTrBypass = CY_PM_ENABLED;
1376:.\Generated_Source\PSoC5/cyPm.c ****         }
1377:.\Generated_Source\PSoC5/cyPm.c **** 
1378:.\Generated_Source\PSoC5/cyPm.c ****         /* LPCOMPs are always enabled (even when BOTH ext_vccd=1 and ext_vcca=1)*/
1379:.\Generated_Source\PSoC5/cyPm.c **** 
1380:.\Generated_Source\PSoC5/cyPm.c ****     #endif /* (!CY_PSOC5A) */
1381:.\Generated_Source\PSoC5/cyPm.c **** 
1382:.\Generated_Source\PSoC5/cyPm.c **** 
1383:.\Generated_Source\PSoC5/cyPm.c ****     /* Device is PSoC 5 and the revision is ES1 or earlier. */
1384:.\Generated_Source\PSoC5/cyPm.c ****     #if(CY_PSOC5A)
1385:.\Generated_Source\PSoC5/cyPm.c **** 
1386:.\Generated_Source\PSoC5/cyPm.c ****         /* Disable all the PICU interrupts */
1387:.\Generated_Source\PSoC5/cyPm.c ****         CyPmDisablePicuInterrupts();
 1304              		.loc 1 1387 0
 1305 0050 FFF7FEFF 		bl	CyPmDisablePicuInterrupts
1388:.\Generated_Source\PSoC5/cyPm.c **** 
1389:.\Generated_Source\PSoC5/cyPm.c ****     #endif  /* (CY_PSOC5A) */
1390:.\Generated_Source\PSoC5/cyPm.c **** 
1391:.\Generated_Source\PSoC5/cyPm.c **** 
1392:.\Generated_Source\PSoC5/cyPm.c ****     /***************************************************************************
1393:.\Generated_Source\PSoC5/cyPm.c ****     * LVI/HVI must be disabled in Hibernate
1394:.\Generated_Source\PSoC5/cyPm.c ****     ***************************************************************************/
1395:.\Generated_Source\PSoC5/cyPm.c **** 
1396:.\Generated_Source\PSoC5/cyPm.c ****     /* Save LVI/HVI configuration and disable them */
1397:.\Generated_Source\PSoC5/cyPm.c ****     CyPmHviLviSaveDisable();
 1306              		.loc 1 1397 0
 1307 0054 FFF7FEFF 		bl	CyPmHviLviSaveDisable
1398:.\Generated_Source\PSoC5/cyPm.c **** 
1399:.\Generated_Source\PSoC5/cyPm.c **** 
1400:.\Generated_Source\PSoC5/cyPm.c ****     /* Make the same preparations for Hibernate and Sleep modes */
1401:.\Generated_Source\PSoC5/cyPm.c ****     CyPmHibSlpSaveSet();
 1308              		.loc 1 1401 0
 1309 0058 FFF7FEFF 		bl	CyPmHibSlpSaveSet
1402:.\Generated_Source\PSoC5/cyPm.c **** }
 1310              		.loc 1 1402 0
 1311 005c 80BD     		pop	{r7, pc}
 1312              		.cfi_endproc
 1313              	.LFE6:
 1314              		.size	CyPmHibSaveSet, .-CyPmHibSaveSet
 1315 005e 00BF     		.section	.text.CyPmHibRestore,"ax",%progbits
 1316              		.align	2
 1317              		.thumb
 1318              		.thumb_func
 1319              		.type	CyPmHibRestore, %function
 1320              	CyPmHibRestore:
 1321              	.LFB7:
1403:.\Generated_Source\PSoC5/cyPm.c **** 
ARM GAS  C:\Users\rmcgarel\AppData\Local\Temp\ccv1YA4O.s 			page 49


1404:.\Generated_Source\PSoC5/cyPm.c **** 
1405:.\Generated_Source\PSoC5/cyPm.c **** /*******************************************************************************
1406:.\Generated_Source\PSoC5/cyPm.c **** * Function Name: CyPmHibRestore
1407:.\Generated_Source\PSoC5/cyPm.c **** ********************************************************************************
1408:.\Generated_Source\PSoC5/cyPm.c **** *
1409:.\Generated_Source\PSoC5/cyPm.c **** * Summary:
1410:.\Generated_Source\PSoC5/cyPm.c **** *  Restore device for proper Hibernate mode exit:
1411:.\Generated_Source\PSoC5/cyPm.c **** *  - Restore LVI/HVI configuration - call CyPmHviLviRestore()
1412:.\Generated_Source\PSoC5/cyPm.c **** *  - CyPmHibSlpSaveRestore() function is called
1413:.\Generated_Source\PSoC5/cyPm.c **** *  - Restores state of I2C backup regulator (PSoC 5)
1414:.\Generated_Source\PSoC5/cyPm.c **** *  - Restores ILO power down mode state and enable it (all but PSoC 5)
1415:.\Generated_Source\PSoC5/cyPm.c **** *  - Restores state of 1 kHz and 100 kHz ILO and disable them (all but PSoC 5)
1416:.\Generated_Source\PSoC5/cyPm.c **** *  - Restores sleep regulator settings (all but PSoC 5)
1417:.\Generated_Source\PSoC5/cyPm.c **** *
1418:.\Generated_Source\PSoC5/cyPm.c **** * Parameters:
1419:.\Generated_Source\PSoC5/cyPm.c **** *  None
1420:.\Generated_Source\PSoC5/cyPm.c **** *
1421:.\Generated_Source\PSoC5/cyPm.c **** * Return:
1422:.\Generated_Source\PSoC5/cyPm.c **** *  None
1423:.\Generated_Source\PSoC5/cyPm.c **** *
1424:.\Generated_Source\PSoC5/cyPm.c **** *******************************************************************************/
1425:.\Generated_Source\PSoC5/cyPm.c **** static void CyPmHibRestore(void) 
1426:.\Generated_Source\PSoC5/cyPm.c **** {
 1322              		.loc 1 1426 0
 1323              		.cfi_startproc
 1324              		@ args = 0, pretend = 0, frame = 0
 1325              		@ frame_needed = 1, uses_anonymous_args = 0
 1326 0000 80B5     		push	{r7, lr}
 1327              	.LCFI19:
 1328              		.cfi_def_cfa_offset 8
 1329 0002 00AF     		add	r7, sp, #0
 1330              		.cfi_offset 14, -4
 1331              		.cfi_offset 7, -8
 1332              	.LCFI20:
 1333              		.cfi_def_cfa_register 7
1427:.\Generated_Source\PSoC5/cyPm.c ****     /* Restore LVI/HVI configuration */
1428:.\Generated_Source\PSoC5/cyPm.c ****     CyPmHviLviRestore();
 1334              		.loc 1 1428 0
 1335 0004 FFF7FEFF 		bl	CyPmHviLviRestore
1429:.\Generated_Source\PSoC5/cyPm.c **** 
1430:.\Generated_Source\PSoC5/cyPm.c ****     /* Restore the same configuration for Hibernate and Sleep modes */
1431:.\Generated_Source\PSoC5/cyPm.c ****     CyPmHibSlpRestore();
 1336              		.loc 1 1431 0
 1337 0008 FFF7FEFF 		bl	CyPmHibSlpRestore
1432:.\Generated_Source\PSoC5/cyPm.c **** 
1433:.\Generated_Source\PSoC5/cyPm.c ****     #if(CY_PSOC5A)
1434:.\Generated_Source\PSoC5/cyPm.c **** 
1435:.\Generated_Source\PSoC5/cyPm.c ****         /* Restore I2C backup regulator configuration */
1436:.\Generated_Source\PSoC5/cyPm.c ****         if(CY_PM_ENABLED == cyPmBackup.i2cRegBackup)
 1338              		.loc 1 1436 0
 1339 000c 40F20003 		movw	r3, #:lower16:cyPmBackup
 1340 0010 C0F20003 		movt	r3, #:upper16:cyPmBackup
 1341 0014 1B78     		ldrb	r3, [r3, #0]	@ zero_extendqisi2
 1342 0016 012B     		cmp	r3, #1
 1343 0018 0DD1     		bne	.L65
1437:.\Generated_Source\PSoC5/cyPm.c ****         {
1438:.\Generated_Source\PSoC5/cyPm.c ****             /* Enable I2C backup regulator state */
ARM GAS  C:\Users\rmcgarel\AppData\Local\Temp\ccv1YA4O.s 			page 50


1439:.\Generated_Source\PSoC5/cyPm.c ****             CY_PM_PWRSYS_CR1_REG |= CY_PM_PWRSYS_CR1_I2CREG_BACKUP;
 1344              		.loc 1 1439 0
 1345 001a 44F23133 		movw	r3, #:lower16:1073759025
 1346 001e C4F20003 		movt	r3, #:upper16:1073759025
 1347 0022 44F23132 		movw	r2, #:lower16:1073759025
 1348 0026 C4F20002 		movt	r2, #:upper16:1073759025
 1349 002a 1278     		ldrb	r2, [r2, #0]
 1350 002c D2B2     		uxtb	r2, r2
 1351 002e 42F00402 		orr	r2, r2, #4
 1352 0032 D2B2     		uxtb	r2, r2
 1353 0034 1A70     		strb	r2, [r3, #0]
 1354              	.L65:
1440:.\Generated_Source\PSoC5/cyPm.c ****         }
1441:.\Generated_Source\PSoC5/cyPm.c **** 
1442:.\Generated_Source\PSoC5/cyPm.c ****     #endif /* (CY_PSOC5A) */
1443:.\Generated_Source\PSoC5/cyPm.c **** 
1444:.\Generated_Source\PSoC5/cyPm.c **** 
1445:.\Generated_Source\PSoC5/cyPm.c ****     #if(!CY_PSOC5A)
1446:.\Generated_Source\PSoC5/cyPm.c **** 
1447:.\Generated_Source\PSoC5/cyPm.c ****         /* Restore 1kHz ILO enable state */
1448:.\Generated_Source\PSoC5/cyPm.c ****         if(CY_PM_ENABLED == cyPmBackup.ilo1kEnable)
1449:.\Generated_Source\PSoC5/cyPm.c ****         {
1450:.\Generated_Source\PSoC5/cyPm.c ****             /* Enable 1kHz ILO */
1451:.\Generated_Source\PSoC5/cyPm.c ****             CyILO_Start1K();
1452:.\Generated_Source\PSoC5/cyPm.c ****         }
1453:.\Generated_Source\PSoC5/cyPm.c **** 
1454:.\Generated_Source\PSoC5/cyPm.c ****         /* Restore 100kHz ILO enable state */
1455:.\Generated_Source\PSoC5/cyPm.c ****         if(CY_PM_ENABLED == cyPmBackup.ilo100kEnable)
1456:.\Generated_Source\PSoC5/cyPm.c ****         {
1457:.\Generated_Source\PSoC5/cyPm.c ****             /* Enable 100kHz ILO */
1458:.\Generated_Source\PSoC5/cyPm.c ****             CyILO_Start100K();
1459:.\Generated_Source\PSoC5/cyPm.c ****         }
1460:.\Generated_Source\PSoC5/cyPm.c **** 
1461:.\Generated_Source\PSoC5/cyPm.c ****         /* Restore ILO power mode */
1462:.\Generated_Source\PSoC5/cyPm.c ****         (void) CyILO_SetPowerMode(cyPmBackup.iloPowerMode);
1463:.\Generated_Source\PSoC5/cyPm.c **** 
1464:.\Generated_Source\PSoC5/cyPm.c **** 
1465:.\Generated_Source\PSoC5/cyPm.c ****         if(CY_PM_DISABLED == cyPmBackup.slpTrBypass)
1466:.\Generated_Source\PSoC5/cyPm.c ****         {
1467:.\Generated_Source\PSoC5/cyPm.c ****             /* Enable the sleep regulator */
1468:.\Generated_Source\PSoC5/cyPm.c ****             CY_PM_PWRSYS_SLP_TR_REG &= ((uint8)(~CY_PM_PWRSYS_SLP_TR_BYPASS));
1469:.\Generated_Source\PSoC5/cyPm.c ****         }
1470:.\Generated_Source\PSoC5/cyPm.c **** 
1471:.\Generated_Source\PSoC5/cyPm.c ****     #endif /* (!CY_PSOC5A) */
1472:.\Generated_Source\PSoC5/cyPm.c **** }
 1355              		.loc 1 1472 0
 1356 0036 80BD     		pop	{r7, pc}
 1357              		.cfi_endproc
 1358              	.LFE7:
 1359              		.size	CyPmHibRestore, .-CyPmHibRestore
 1360              		.section	.text.CyPmCtwSetInterval,"ax",%progbits
 1361              		.align	2
 1362              		.global	CyPmCtwSetInterval
 1363              		.thumb
 1364              		.thumb_func
 1365              		.type	CyPmCtwSetInterval, %function
 1366              	CyPmCtwSetInterval:
ARM GAS  C:\Users\rmcgarel\AppData\Local\Temp\ccv1YA4O.s 			page 51


 1367              	.LFB8:
1473:.\Generated_Source\PSoC5/cyPm.c **** 
1474:.\Generated_Source\PSoC5/cyPm.c **** 
1475:.\Generated_Source\PSoC5/cyPm.c **** /*******************************************************************************
1476:.\Generated_Source\PSoC5/cyPm.c **** * Function Name: CyPmCtwSetInterval
1477:.\Generated_Source\PSoC5/cyPm.c **** ********************************************************************************
1478:.\Generated_Source\PSoC5/cyPm.c **** *
1479:.\Generated_Source\PSoC5/cyPm.c **** * Summary:
1480:.\Generated_Source\PSoC5/cyPm.c **** *  Performs CTW configuration:
1481:.\Generated_Source\PSoC5/cyPm.c **** *  - Disables CTW interrupt
1482:.\Generated_Source\PSoC5/cyPm.c **** *  - Enables 1 kHz ILO
1483:.\Generated_Source\PSoC5/cyPm.c **** *  - Sets new CTW interval
1484:.\Generated_Source\PSoC5/cyPm.c **** *
1485:.\Generated_Source\PSoC5/cyPm.c **** * Parameters:
1486:.\Generated_Source\PSoC5/cyPm.c **** *  ctwInterval: the CTW interval to be set.
1487:.\Generated_Source\PSoC5/cyPm.c **** *
1488:.\Generated_Source\PSoC5/cyPm.c **** * Return:
1489:.\Generated_Source\PSoC5/cyPm.c **** *  None
1490:.\Generated_Source\PSoC5/cyPm.c **** *
1491:.\Generated_Source\PSoC5/cyPm.c **** * Side Effects:
1492:.\Generated_Source\PSoC5/cyPm.c **** *  Enables ILO 1 KHz clock and leaves it enabled.
1493:.\Generated_Source\PSoC5/cyPm.c **** *
1494:.\Generated_Source\PSoC5/cyPm.c **** *******************************************************************************/
1495:.\Generated_Source\PSoC5/cyPm.c **** void CyPmCtwSetInterval(uint8 ctwInterval) 
1496:.\Generated_Source\PSoC5/cyPm.c **** {
 1368              		.loc 1 1496 0
 1369              		.cfi_startproc
 1370              		@ args = 0, pretend = 0, frame = 8
 1371              		@ frame_needed = 1, uses_anonymous_args = 0
 1372 0000 80B5     		push	{r7, lr}
 1373              	.LCFI21:
 1374              		.cfi_def_cfa_offset 8
 1375 0002 82B0     		sub	sp, sp, #8
 1376              	.LCFI22:
 1377              		.cfi_def_cfa_offset 16
 1378 0004 00AF     		add	r7, sp, #0
 1379              		.cfi_offset 14, -4
 1380              		.cfi_offset 7, -8
 1381              	.LCFI23:
 1382              		.cfi_def_cfa_register 7
 1383 0006 0346     		mov	r3, r0
 1384 0008 FB71     		strb	r3, [r7, #7]
1497:.\Generated_Source\PSoC5/cyPm.c ****     /* Disable CTW interrupt enable */
1498:.\Generated_Source\PSoC5/cyPm.c ****     CY_PM_TW_CFG2_REG &= ((uint8)(~CY_PM_CTW_IE));
 1385              		.loc 1 1498 0
 1386 000a 44F28233 		movw	r3, #:lower16:1073759106
 1387 000e C4F20003 		movt	r3, #:upper16:1073759106
 1388 0012 44F28232 		movw	r2, #:lower16:1073759106
 1389 0016 C4F20002 		movt	r2, #:upper16:1073759106
 1390 001a 1278     		ldrb	r2, [r2, #0]
 1391 001c D2B2     		uxtb	r2, r2
 1392 001e 02F0F702 		and	r2, r2, #247
 1393 0022 1A70     		strb	r2, [r3, #0]
1499:.\Generated_Source\PSoC5/cyPm.c **** 
1500:.\Generated_Source\PSoC5/cyPm.c ****     /* Enable 1kHz ILO (required for CTW operation) */
1501:.\Generated_Source\PSoC5/cyPm.c ****     CyILO_Start1K();
 1394              		.loc 1 1501 0
ARM GAS  C:\Users\rmcgarel\AppData\Local\Temp\ccv1YA4O.s 			page 52


 1395 0024 FFF7FEFF 		bl	CyILO_Start1K
1502:.\Generated_Source\PSoC5/cyPm.c **** 
1503:.\Generated_Source\PSoC5/cyPm.c ****     /* Interval could be set only while CTW is disabled */
1504:.\Generated_Source\PSoC5/cyPm.c ****     if(0u != (CY_PM_TW_CFG2_REG & CY_PM_CTW_EN))
 1396              		.loc 1 1504 0
 1397 0028 44F28233 		movw	r3, #:lower16:1073759106
 1398 002c C4F20003 		movt	r3, #:upper16:1073759106
 1399 0030 1B78     		ldrb	r3, [r3, #0]
 1400 0032 DBB2     		uxtb	r3, r3
 1401 0034 03F00403 		and	r3, r3, #4
 1402 0038 002B     		cmp	r3, #0
 1403 003a 2AD0     		beq	.L67
1505:.\Generated_Source\PSoC5/cyPm.c ****     {
1506:.\Generated_Source\PSoC5/cyPm.c ****         /* Set CTW interval if needed */
1507:.\Generated_Source\PSoC5/cyPm.c ****         if(CY_PM_TW_CFG1_REG != ctwInterval)
 1404              		.loc 1 1507 0
 1405 003c 44F28133 		movw	r3, #:lower16:1073759105
 1406 0040 C4F20003 		movt	r3, #:upper16:1073759105
 1407 0044 1B78     		ldrb	r3, [r3, #0]
 1408 0046 DBB2     		uxtb	r3, r3
 1409 0048 FA79     		ldrb	r2, [r7, #7]	@ zero_extendqisi2
 1410 004a 9A42     		cmp	r2, r3
 1411 004c 3FD0     		beq	.L72
1508:.\Generated_Source\PSoC5/cyPm.c ****         {
1509:.\Generated_Source\PSoC5/cyPm.c ****             /* Disable the CTW, set new CTW interval and enable it again */
1510:.\Generated_Source\PSoC5/cyPm.c ****             CY_PM_TW_CFG2_REG &= ((uint8)(~CY_PM_CTW_EN));
 1412              		.loc 1 1510 0
 1413 004e 44F28233 		movw	r3, #:lower16:1073759106
 1414 0052 C4F20003 		movt	r3, #:upper16:1073759106
 1415 0056 44F28232 		movw	r2, #:lower16:1073759106
 1416 005a C4F20002 		movt	r2, #:upper16:1073759106
 1417 005e 1278     		ldrb	r2, [r2, #0]
 1418 0060 D2B2     		uxtb	r2, r2
 1419 0062 02F0FB02 		and	r2, r2, #251
 1420 0066 1A70     		strb	r2, [r3, #0]
1511:.\Generated_Source\PSoC5/cyPm.c ****             CY_PM_TW_CFG1_REG = ctwInterval;
 1421              		.loc 1 1511 0
 1422 0068 44F28133 		movw	r3, #:lower16:1073759105
 1423 006c C4F20003 		movt	r3, #:upper16:1073759105
 1424 0070 FA79     		ldrb	r2, [r7, #7]
 1425 0072 1A70     		strb	r2, [r3, #0]
1512:.\Generated_Source\PSoC5/cyPm.c ****             CY_PM_TW_CFG2_REG |= CY_PM_CTW_EN;
 1426              		.loc 1 1512 0
 1427 0074 44F28233 		movw	r3, #:lower16:1073759106
 1428 0078 C4F20003 		movt	r3, #:upper16:1073759106
 1429 007c 44F28232 		movw	r2, #:lower16:1073759106
 1430 0080 C4F20002 		movt	r2, #:upper16:1073759106
 1431 0084 1278     		ldrb	r2, [r2, #0]
 1432 0086 D2B2     		uxtb	r2, r2
 1433 0088 42F00402 		orr	r2, r2, #4
 1434 008c D2B2     		uxtb	r2, r2
 1435 008e 1A70     		strb	r2, [r3, #0]
 1436 0090 1EE0     		b	.L71
 1437              	.L67:
1513:.\Generated_Source\PSoC5/cyPm.c ****         }   /* Required interval is already set */
1514:.\Generated_Source\PSoC5/cyPm.c ****     }
1515:.\Generated_Source\PSoC5/cyPm.c ****     else
ARM GAS  C:\Users\rmcgarel\AppData\Local\Temp\ccv1YA4O.s 			page 53


1516:.\Generated_Source\PSoC5/cyPm.c ****     {
1517:.\Generated_Source\PSoC5/cyPm.c ****         /* Set CTW interval if needed */
1518:.\Generated_Source\PSoC5/cyPm.c ****         if(CY_PM_TW_CFG1_REG != ctwInterval)
 1438              		.loc 1 1518 0
 1439 0092 44F28133 		movw	r3, #:lower16:1073759105
 1440 0096 C4F20003 		movt	r3, #:upper16:1073759105
 1441 009a 1B78     		ldrb	r3, [r3, #0]
 1442 009c DBB2     		uxtb	r3, r3
 1443 009e FA79     		ldrb	r2, [r7, #7]	@ zero_extendqisi2
 1444 00a0 9A42     		cmp	r2, r3
 1445 00a2 05D0     		beq	.L70
1519:.\Generated_Source\PSoC5/cyPm.c ****         {
1520:.\Generated_Source\PSoC5/cyPm.c ****             /* Set the new CTW interval. Could be changed if CTW is disabled */
1521:.\Generated_Source\PSoC5/cyPm.c ****             CY_PM_TW_CFG1_REG = ctwInterval;
 1446              		.loc 1 1521 0
 1447 00a4 44F28133 		movw	r3, #:lower16:1073759105
 1448 00a8 C4F20003 		movt	r3, #:upper16:1073759105
 1449 00ac FA79     		ldrb	r2, [r7, #7]
 1450 00ae 1A70     		strb	r2, [r3, #0]
 1451              	.L70:
1522:.\Generated_Source\PSoC5/cyPm.c ****         }   /* Required interval is already set */
1523:.\Generated_Source\PSoC5/cyPm.c **** 
1524:.\Generated_Source\PSoC5/cyPm.c ****         /* Enable the CTW */
1525:.\Generated_Source\PSoC5/cyPm.c ****         CY_PM_TW_CFG2_REG |= CY_PM_CTW_EN;
 1452              		.loc 1 1525 0
 1453 00b0 44F28233 		movw	r3, #:lower16:1073759106
 1454 00b4 C4F20003 		movt	r3, #:upper16:1073759106
 1455 00b8 44F28232 		movw	r2, #:lower16:1073759106
 1456 00bc C4F20002 		movt	r2, #:upper16:1073759106
 1457 00c0 1278     		ldrb	r2, [r2, #0]
 1458 00c2 D2B2     		uxtb	r2, r2
 1459 00c4 42F00402 		orr	r2, r2, #4
 1460 00c8 D2B2     		uxtb	r2, r2
 1461 00ca 1A70     		strb	r2, [r3, #0]
 1462 00cc 00E0     		b	.L71
 1463              	.L72:
 1464              		.loc 1 1512 0
 1465 00ce 00BF     		nop
 1466              	.L71:
1526:.\Generated_Source\PSoC5/cyPm.c ****     }
1527:.\Generated_Source\PSoC5/cyPm.c **** }
 1467              		.loc 1 1527 0
 1468 00d0 07F10807 		add	r7, r7, #8
 1469 00d4 BD46     		mov	sp, r7
 1470 00d6 80BD     		pop	{r7, pc}
 1471              		.cfi_endproc
 1472              	.LFE8:
 1473              		.size	CyPmCtwSetInterval, .-CyPmCtwSetInterval
 1474              		.section	.text.CyPmOppsSet,"ax",%progbits
 1475              		.align	2
 1476              		.global	CyPmOppsSet
 1477              		.thumb
 1478              		.thumb_func
 1479              		.type	CyPmOppsSet, %function
 1480              	CyPmOppsSet:
 1481              	.LFB9:
1528:.\Generated_Source\PSoC5/cyPm.c **** 
ARM GAS  C:\Users\rmcgarel\AppData\Local\Temp\ccv1YA4O.s 			page 54


1529:.\Generated_Source\PSoC5/cyPm.c **** 
1530:.\Generated_Source\PSoC5/cyPm.c **** /*******************************************************************************
1531:.\Generated_Source\PSoC5/cyPm.c **** * Function Name: CyPmOppsSet
1532:.\Generated_Source\PSoC5/cyPm.c **** ********************************************************************************
1533:.\Generated_Source\PSoC5/cyPm.c **** *
1534:.\Generated_Source\PSoC5/cyPm.c **** * Summary:
1535:.\Generated_Source\PSoC5/cyPm.c **** *  Performs 1PPS configuration:
1536:.\Generated_Source\PSoC5/cyPm.c **** *  - Starts 32 KHz XTAL
1537:.\Generated_Source\PSoC5/cyPm.c **** *  - Disables 1PPS interupts
1538:.\Generated_Source\PSoC5/cyPm.c **** *  - Enables 1PPS
1539:.\Generated_Source\PSoC5/cyPm.c **** *
1540:.\Generated_Source\PSoC5/cyPm.c **** * Parameters:
1541:.\Generated_Source\PSoC5/cyPm.c **** *  None
1542:.\Generated_Source\PSoC5/cyPm.c **** *
1543:.\Generated_Source\PSoC5/cyPm.c **** * Return:
1544:.\Generated_Source\PSoC5/cyPm.c **** *  None
1545:.\Generated_Source\PSoC5/cyPm.c **** *
1546:.\Generated_Source\PSoC5/cyPm.c **** *******************************************************************************/
1547:.\Generated_Source\PSoC5/cyPm.c **** void CyPmOppsSet(void) 
1548:.\Generated_Source\PSoC5/cyPm.c **** {
 1482              		.loc 1 1548 0
 1483              		.cfi_startproc
 1484              		@ args = 0, pretend = 0, frame = 0
 1485              		@ frame_needed = 1, uses_anonymous_args = 0
 1486 0000 80B5     		push	{r7, lr}
 1487              	.LCFI24:
 1488              		.cfi_def_cfa_offset 8
 1489 0002 00AF     		add	r7, sp, #0
 1490              		.cfi_offset 14, -4
 1491              		.cfi_offset 7, -8
 1492              	.LCFI25:
 1493              		.cfi_def_cfa_register 7
1549:.\Generated_Source\PSoC5/cyPm.c ****     /* Enable 32kHz XTAL if needed */
1550:.\Generated_Source\PSoC5/cyPm.c ****     if(0u == (CY_PM_SLOWCLK_X32_CR_REG & CY_PM_X32_CR_X32EN))
 1494              		.loc 1 1550 0
 1495 0004 44F20833 		movw	r3, #:lower16:1073758984
 1496 0008 C4F20003 		movt	r3, #:upper16:1073758984
 1497 000c 1B78     		ldrb	r3, [r3, #0]
 1498 000e DBB2     		uxtb	r3, r3
 1499 0010 03F00103 		and	r3, r3, #1
 1500 0014 002B     		cmp	r3, #0
 1501 0016 01D1     		bne	.L74
1551:.\Generated_Source\PSoC5/cyPm.c ****     {
1552:.\Generated_Source\PSoC5/cyPm.c ****         /* Enable 32kHz XTAL */
1553:.\Generated_Source\PSoC5/cyPm.c ****         CyXTAL_32KHZ_Start();
 1502              		.loc 1 1553 0
 1503 0018 FFF7FEFF 		bl	CyXTAL_32KHZ_Start
 1504              	.L74:
1554:.\Generated_Source\PSoC5/cyPm.c ****     }
1555:.\Generated_Source\PSoC5/cyPm.c **** 
1556:.\Generated_Source\PSoC5/cyPm.c ****     /* Disable 1PPS interrupt enable */
1557:.\Generated_Source\PSoC5/cyPm.c ****     CY_PM_TW_CFG2_REG &= ((uint8)(~CY_PM_1PPS_IE));
 1505              		.loc 1 1557 0
 1506 001c 44F28233 		movw	r3, #:lower16:1073759106
 1507 0020 C4F20003 		movt	r3, #:upper16:1073759106
 1508 0024 44F28232 		movw	r2, #:lower16:1073759106
 1509 0028 C4F20002 		movt	r2, #:upper16:1073759106
ARM GAS  C:\Users\rmcgarel\AppData\Local\Temp\ccv1YA4O.s 			page 55


 1510 002c 1278     		ldrb	r2, [r2, #0]
 1511 002e D2B2     		uxtb	r2, r2
 1512 0030 02F0DF02 		and	r2, r2, #223
 1513 0034 1A70     		strb	r2, [r3, #0]
1558:.\Generated_Source\PSoC5/cyPm.c **** 
1559:.\Generated_Source\PSoC5/cyPm.c ****     /* Enable 1PPS operation */
1560:.\Generated_Source\PSoC5/cyPm.c ****     CY_PM_TW_CFG2_REG |= CY_PM_1PPS_EN;
 1514              		.loc 1 1560 0
 1515 0036 44F28233 		movw	r3, #:lower16:1073759106
 1516 003a C4F20003 		movt	r3, #:upper16:1073759106
 1517 003e 44F28232 		movw	r2, #:lower16:1073759106
 1518 0042 C4F20002 		movt	r2, #:upper16:1073759106
 1519 0046 1278     		ldrb	r2, [r2, #0]
 1520 0048 D2B2     		uxtb	r2, r2
 1521 004a 42F01002 		orr	r2, r2, #16
 1522 004e D2B2     		uxtb	r2, r2
 1523 0050 1A70     		strb	r2, [r3, #0]
1561:.\Generated_Source\PSoC5/cyPm.c **** }
 1524              		.loc 1 1561 0
 1525 0052 80BD     		pop	{r7, pc}
 1526              		.cfi_endproc
 1527              	.LFE9:
 1528              		.size	CyPmOppsSet, .-CyPmOppsSet
 1529              		.section	.text.CyPmFtwSetInterval,"ax",%progbits
 1530              		.align	2
 1531              		.global	CyPmFtwSetInterval
 1532              		.thumb
 1533              		.thumb_func
 1534              		.type	CyPmFtwSetInterval, %function
 1535              	CyPmFtwSetInterval:
 1536              	.LFB10:
1562:.\Generated_Source\PSoC5/cyPm.c **** 
1563:.\Generated_Source\PSoC5/cyPm.c **** 
1564:.\Generated_Source\PSoC5/cyPm.c **** /*******************************************************************************
1565:.\Generated_Source\PSoC5/cyPm.c **** * Function Name: CyPmFtwSetInterval
1566:.\Generated_Source\PSoC5/cyPm.c **** ********************************************************************************
1567:.\Generated_Source\PSoC5/cyPm.c **** *
1568:.\Generated_Source\PSoC5/cyPm.c **** * Summary:
1569:.\Generated_Source\PSoC5/cyPm.c **** *  Performs FTW configuration:
1570:.\Generated_Source\PSoC5/cyPm.c **** *  - Disables FTW interrupt
1571:.\Generated_Source\PSoC5/cyPm.c **** *  - Enables 100 kHz ILO
1572:.\Generated_Source\PSoC5/cyPm.c **** *  - Sets new FTW interval.
1573:.\Generated_Source\PSoC5/cyPm.c **** *
1574:.\Generated_Source\PSoC5/cyPm.c **** * Parameters:
1575:.\Generated_Source\PSoC5/cyPm.c **** *  ftwInterval - FTW counter interval.
1576:.\Generated_Source\PSoC5/cyPm.c **** *
1577:.\Generated_Source\PSoC5/cyPm.c **** * Return:
1578:.\Generated_Source\PSoC5/cyPm.c **** *  None
1579:.\Generated_Source\PSoC5/cyPm.c **** *
1580:.\Generated_Source\PSoC5/cyPm.c **** * Side Effects:
1581:.\Generated_Source\PSoC5/cyPm.c **** *  Enables ILO 100 KHz clock and leaves it enabled.
1582:.\Generated_Source\PSoC5/cyPm.c **** *
1583:.\Generated_Source\PSoC5/cyPm.c **** *******************************************************************************/
1584:.\Generated_Source\PSoC5/cyPm.c **** void CyPmFtwSetInterval(uint8 ftwInterval) 
1585:.\Generated_Source\PSoC5/cyPm.c **** {
 1537              		.loc 1 1585 0
 1538              		.cfi_startproc
ARM GAS  C:\Users\rmcgarel\AppData\Local\Temp\ccv1YA4O.s 			page 56


 1539              		@ args = 0, pretend = 0, frame = 8
 1540              		@ frame_needed = 1, uses_anonymous_args = 0
 1541 0000 80B5     		push	{r7, lr}
 1542              	.LCFI26:
 1543              		.cfi_def_cfa_offset 8
 1544 0002 82B0     		sub	sp, sp, #8
 1545              	.LCFI27:
 1546              		.cfi_def_cfa_offset 16
 1547 0004 00AF     		add	r7, sp, #0
 1548              		.cfi_offset 14, -4
 1549              		.cfi_offset 7, -8
 1550              	.LCFI28:
 1551              		.cfi_def_cfa_register 7
 1552 0006 0346     		mov	r3, r0
 1553 0008 FB71     		strb	r3, [r7, #7]
1586:.\Generated_Source\PSoC5/cyPm.c ****     /* Disable FTW interrupt enable */
1587:.\Generated_Source\PSoC5/cyPm.c ****     CY_PM_TW_CFG2_REG &= ((uint8)(~CY_PM_FTW_IE));
 1554              		.loc 1 1587 0
 1555 000a 44F28233 		movw	r3, #:lower16:1073759106
 1556 000e C4F20003 		movt	r3, #:upper16:1073759106
 1557 0012 44F28232 		movw	r2, #:lower16:1073759106
 1558 0016 C4F20002 		movt	r2, #:upper16:1073759106
 1559 001a 1278     		ldrb	r2, [r2, #0]
 1560 001c D2B2     		uxtb	r2, r2
 1561 001e 02F0FD02 		and	r2, r2, #253
 1562 0022 1A70     		strb	r2, [r3, #0]
1588:.\Generated_Source\PSoC5/cyPm.c **** 
1589:.\Generated_Source\PSoC5/cyPm.c ****     /* Enable 100kHz ILO */
1590:.\Generated_Source\PSoC5/cyPm.c ****     CyILO_Start100K();
 1563              		.loc 1 1590 0
 1564 0024 FFF7FEFF 		bl	CyILO_Start100K
1591:.\Generated_Source\PSoC5/cyPm.c **** 
1592:.\Generated_Source\PSoC5/cyPm.c ****     /* Iterval could be set only while FTW is disabled */
1593:.\Generated_Source\PSoC5/cyPm.c ****     if(0u != (CY_PM_TW_CFG2_REG & CY_PM_FTW_EN))
 1565              		.loc 1 1593 0
 1566 0028 44F28233 		movw	r3, #:lower16:1073759106
 1567 002c C4F20003 		movt	r3, #:upper16:1073759106
 1568 0030 1B78     		ldrb	r3, [r3, #0]
 1569 0032 DBB2     		uxtb	r3, r3
 1570 0034 03F00103 		and	r3, r3, #1
 1571 0038 DBB2     		uxtb	r3, r3
 1572 003a 002B     		cmp	r3, #0
 1573 003c 2AD0     		beq	.L77
1594:.\Generated_Source\PSoC5/cyPm.c ****     {
1595:.\Generated_Source\PSoC5/cyPm.c ****         /* Disable FTW, set new FTW interval if needed and enable it again */
1596:.\Generated_Source\PSoC5/cyPm.c ****         if(CY_PM_TW_CFG0_REG != ftwInterval)
 1574              		.loc 1 1596 0
 1575 003e 44F28033 		movw	r3, #:lower16:1073759104
 1576 0042 C4F20003 		movt	r3, #:upper16:1073759104
 1577 0046 1B78     		ldrb	r3, [r3, #0]
 1578 0048 DBB2     		uxtb	r3, r3
 1579 004a FA79     		ldrb	r2, [r7, #7]	@ zero_extendqisi2
 1580 004c 9A42     		cmp	r2, r3
 1581 004e 3FD0     		beq	.L82
1597:.\Generated_Source\PSoC5/cyPm.c ****         {
1598:.\Generated_Source\PSoC5/cyPm.c ****             /* Disable the CTW, set new CTW interval and enable it again */
1599:.\Generated_Source\PSoC5/cyPm.c ****             CY_PM_TW_CFG2_REG &= ((uint8)(~CY_PM_FTW_EN));
ARM GAS  C:\Users\rmcgarel\AppData\Local\Temp\ccv1YA4O.s 			page 57


 1582              		.loc 1 1599 0
 1583 0050 44F28233 		movw	r3, #:lower16:1073759106
 1584 0054 C4F20003 		movt	r3, #:upper16:1073759106
 1585 0058 44F28232 		movw	r2, #:lower16:1073759106
 1586 005c C4F20002 		movt	r2, #:upper16:1073759106
 1587 0060 1278     		ldrb	r2, [r2, #0]
 1588 0062 D2B2     		uxtb	r2, r2
 1589 0064 02F0FE02 		and	r2, r2, #254
 1590 0068 1A70     		strb	r2, [r3, #0]
1600:.\Generated_Source\PSoC5/cyPm.c ****             CY_PM_TW_CFG0_REG = ftwInterval;
 1591              		.loc 1 1600 0
 1592 006a 44F28033 		movw	r3, #:lower16:1073759104
 1593 006e C4F20003 		movt	r3, #:upper16:1073759104
 1594 0072 FA79     		ldrb	r2, [r7, #7]
 1595 0074 1A70     		strb	r2, [r3, #0]
1601:.\Generated_Source\PSoC5/cyPm.c ****             CY_PM_TW_CFG2_REG |= CY_PM_FTW_EN;
 1596              		.loc 1 1601 0
 1597 0076 44F28233 		movw	r3, #:lower16:1073759106
 1598 007a C4F20003 		movt	r3, #:upper16:1073759106
 1599 007e 44F28232 		movw	r2, #:lower16:1073759106
 1600 0082 C4F20002 		movt	r2, #:upper16:1073759106
 1601 0086 1278     		ldrb	r2, [r2, #0]
 1602 0088 D2B2     		uxtb	r2, r2
 1603 008a 42F00102 		orr	r2, r2, #1
 1604 008e D2B2     		uxtb	r2, r2
 1605 0090 1A70     		strb	r2, [r3, #0]
 1606 0092 1EE0     		b	.L81
 1607              	.L77:
1602:.\Generated_Source\PSoC5/cyPm.c ****         }   /* Required interval is already set */
1603:.\Generated_Source\PSoC5/cyPm.c ****     }
1604:.\Generated_Source\PSoC5/cyPm.c ****     else
1605:.\Generated_Source\PSoC5/cyPm.c ****     {
1606:.\Generated_Source\PSoC5/cyPm.c ****         /* Set new FTW counter interval if needed. FTW is disabled. */
1607:.\Generated_Source\PSoC5/cyPm.c ****         if(CY_PM_TW_CFG0_REG != ftwInterval)
 1608              		.loc 1 1607 0
 1609 0094 44F28033 		movw	r3, #:lower16:1073759104
 1610 0098 C4F20003 		movt	r3, #:upper16:1073759104
 1611 009c 1B78     		ldrb	r3, [r3, #0]
 1612 009e DBB2     		uxtb	r3, r3
 1613 00a0 FA79     		ldrb	r2, [r7, #7]	@ zero_extendqisi2
 1614 00a2 9A42     		cmp	r2, r3
 1615 00a4 05D0     		beq	.L80
1608:.\Generated_Source\PSoC5/cyPm.c ****         {
1609:.\Generated_Source\PSoC5/cyPm.c ****             /* Set the new CTW interval. Could be changed if CTW is disabled */
1610:.\Generated_Source\PSoC5/cyPm.c ****             CY_PM_TW_CFG0_REG = ftwInterval;
 1616              		.loc 1 1610 0
 1617 00a6 44F28033 		movw	r3, #:lower16:1073759104
 1618 00aa C4F20003 		movt	r3, #:upper16:1073759104
 1619 00ae FA79     		ldrb	r2, [r7, #7]
 1620 00b0 1A70     		strb	r2, [r3, #0]
 1621              	.L80:
1611:.\Generated_Source\PSoC5/cyPm.c ****         }   /* Required interval is already set */
1612:.\Generated_Source\PSoC5/cyPm.c **** 
1613:.\Generated_Source\PSoC5/cyPm.c ****         /* Enable the FTW */
1614:.\Generated_Source\PSoC5/cyPm.c ****         CY_PM_TW_CFG2_REG |= CY_PM_FTW_EN;
 1622              		.loc 1 1614 0
 1623 00b2 44F28233 		movw	r3, #:lower16:1073759106
ARM GAS  C:\Users\rmcgarel\AppData\Local\Temp\ccv1YA4O.s 			page 58


 1624 00b6 C4F20003 		movt	r3, #:upper16:1073759106
 1625 00ba 44F28232 		movw	r2, #:lower16:1073759106
 1626 00be C4F20002 		movt	r2, #:upper16:1073759106
 1627 00c2 1278     		ldrb	r2, [r2, #0]
 1628 00c4 D2B2     		uxtb	r2, r2
 1629 00c6 42F00102 		orr	r2, r2, #1
 1630 00ca D2B2     		uxtb	r2, r2
 1631 00cc 1A70     		strb	r2, [r3, #0]
 1632 00ce 00E0     		b	.L81
 1633              	.L82:
 1634              		.loc 1 1601 0
 1635 00d0 00BF     		nop
 1636              	.L81:
1615:.\Generated_Source\PSoC5/cyPm.c ****     }
1616:.\Generated_Source\PSoC5/cyPm.c **** }
 1637              		.loc 1 1616 0
 1638 00d2 07F10807 		add	r7, r7, #8
 1639 00d6 BD46     		mov	sp, r7
 1640 00d8 80BD     		pop	{r7, pc}
 1641              		.cfi_endproc
 1642              	.LFE10:
 1643              		.size	CyPmFtwSetInterval, .-CyPmFtwSetInterval
 1644 00da 00BF     		.section	.text.CyPmSavePicuInterrupts,"ax",%progbits
 1645              		.align	2
 1646              		.thumb
 1647              		.thumb_func
 1648              		.type	CyPmSavePicuInterrupts, %function
 1649              	CyPmSavePicuInterrupts:
 1650              	.LFB11:
1617:.\Generated_Source\PSoC5/cyPm.c **** 
1618:.\Generated_Source\PSoC5/cyPm.c **** 
1619:.\Generated_Source\PSoC5/cyPm.c **** #if(CY_PSOC5A)
1620:.\Generated_Source\PSoC5/cyPm.c **** 
1621:.\Generated_Source\PSoC5/cyPm.c ****     /*******************************************************************************
1622:.\Generated_Source\PSoC5/cyPm.c ****     * Function Name: CyPmSavePicuInterrupts
1623:.\Generated_Source\PSoC5/cyPm.c ****     ********************************************************************************
1624:.\Generated_Source\PSoC5/cyPm.c ****     *
1625:.\Generated_Source\PSoC5/cyPm.c ****     * Summary:
1626:.\Generated_Source\PSoC5/cyPm.c ****     *  Saves PICU interrupt type registers to the backup structure.
1627:.\Generated_Source\PSoC5/cyPm.c ****     *
1628:.\Generated_Source\PSoC5/cyPm.c ****     * Parameters:
1629:.\Generated_Source\PSoC5/cyPm.c ****     *  None
1630:.\Generated_Source\PSoC5/cyPm.c ****     *
1631:.\Generated_Source\PSoC5/cyPm.c ****     * Return:
1632:.\Generated_Source\PSoC5/cyPm.c ****     *  None
1633:.\Generated_Source\PSoC5/cyPm.c ****     *
1634:.\Generated_Source\PSoC5/cyPm.c ****     * Reentrant:
1635:.\Generated_Source\PSoC5/cyPm.c ****     *  No
1636:.\Generated_Source\PSoC5/cyPm.c ****     *
1637:.\Generated_Source\PSoC5/cyPm.c ****     *******************************************************************************/
1638:.\Generated_Source\PSoC5/cyPm.c ****     static void CyPmSavePicuInterrupts(void) 
1639:.\Generated_Source\PSoC5/cyPm.c ****     {
 1651              		.loc 1 1639 0
 1652              		.cfi_startproc
 1653              		@ args = 0, pretend = 0, frame = 0
 1654              		@ frame_needed = 1, uses_anonymous_args = 0
 1655 0000 80B5     		push	{r7, lr}
ARM GAS  C:\Users\rmcgarel\AppData\Local\Temp\ccv1YA4O.s 			page 59


 1656              	.LCFI29:
 1657              		.cfi_def_cfa_offset 8
 1658 0002 00AF     		add	r7, sp, #0
 1659              		.cfi_offset 14, -4
 1660              		.cfi_offset 7, -8
 1661              	.LCFI30:
 1662              		.cfi_def_cfa_register 7
1640:.\Generated_Source\PSoC5/cyPm.c ****         /* Save all the PICU interrupt type */
1641:.\Generated_Source\PSoC5/cyPm.c ****         (void) memcpy((void *) &cyPmBackup.picuIntType[0u],
 1663              		.loc 1 1641 0
 1664 0004 0E48     		ldr	r0, .L85
 1665 0006 44F20051 		movw	r1, #:lower16:1073759488
 1666 000a C4F20001 		movt	r1, #:upper16:1073759488
 1667 000e 4FF03802 		mov	r2, #56
 1668 0012 FFF7FEFF 		bl	memcpy
1642:.\Generated_Source\PSoC5/cyPm.c ****                       (void *) CY_PM_PICU_0_6_INT_BASE,
1643:.\Generated_Source\PSoC5/cyPm.c ****                       CY_PM_PICU_0_6_INT_SIZE);
1644:.\Generated_Source\PSoC5/cyPm.c **** 
1645:.\Generated_Source\PSoC5/cyPm.c ****         (void) memcpy((void *) &cyPmBackup.picuIntType[CY_PM_PICU_0_6_INT_SIZE],
 1669              		.loc 1 1645 0
 1670 0016 0B4B     		ldr	r3, .L85+4
 1671 0018 1846     		mov	r0, r3
 1672 001a 44F26051 		movw	r1, #:lower16:1073759584
 1673 001e C4F20001 		movt	r1, #:upper16:1073759584
 1674 0022 4FF00802 		mov	r2, #8
 1675 0026 FFF7FEFF 		bl	memcpy
1646:.\Generated_Source\PSoC5/cyPm.c ****                       (void *) CY_PM_PICU_12_INT_BASE,
1647:.\Generated_Source\PSoC5/cyPm.c ****                       CY_PM_PICU_12_INT_SIZE);
1648:.\Generated_Source\PSoC5/cyPm.c **** 
1649:.\Generated_Source\PSoC5/cyPm.c ****         (void) memcpy((void *) &cyPmBackup.picuIntType[CY_PM_PICU_0_6_INT_SIZE + CY_PM_PICU_12_INT_
 1676              		.loc 1 1649 0
 1677 002a 074B     		ldr	r3, .L85+8
 1678 002c 1846     		mov	r0, r3
 1679 002e 44F27851 		movw	r1, #:lower16:1073759608
 1680 0032 C4F20001 		movt	r1, #:upper16:1073759608
 1681 0036 4FF00802 		mov	r2, #8
 1682 003a FFF7FEFF 		bl	memcpy
1650:.\Generated_Source\PSoC5/cyPm.c ****                       (void *) CY_PM_PICU_15_INT_BASE,
1651:.\Generated_Source\PSoC5/cyPm.c ****                       CY_PM_PICU_15_INT_SIZE);
1652:.\Generated_Source\PSoC5/cyPm.c **** 
1653:.\Generated_Source\PSoC5/cyPm.c ****     }
 1683              		.loc 1 1653 0
 1684 003e 80BD     		pop	{r7, pc}
 1685              	.L86:
 1686              		.align	2
 1687              	.L85:
 1688 0040 52000000 		.word	cyPmBackup+82
 1689 0044 8A000000 		.word	cyPmBackup+138
 1690 0048 92000000 		.word	cyPmBackup+146
 1691              		.cfi_endproc
 1692              	.LFE11:
 1693              		.size	CyPmSavePicuInterrupts, .-CyPmSavePicuInterrupts
 1694              		.section	.text.CyPmDisablePicuInterrupts,"ax",%progbits
 1695              		.align	2
 1696              		.thumb
 1697              		.thumb_func
 1698              		.type	CyPmDisablePicuInterrupts, %function
ARM GAS  C:\Users\rmcgarel\AppData\Local\Temp\ccv1YA4O.s 			page 60


 1699              	CyPmDisablePicuInterrupts:
 1700              	.LFB12:
1654:.\Generated_Source\PSoC5/cyPm.c **** 
1655:.\Generated_Source\PSoC5/cyPm.c **** 
1656:.\Generated_Source\PSoC5/cyPm.c ****     /*******************************************************************************
1657:.\Generated_Source\PSoC5/cyPm.c ****     * Function Name: CyPmDisablePicuInterrupts
1658:.\Generated_Source\PSoC5/cyPm.c ****     ********************************************************************************
1659:.\Generated_Source\PSoC5/cyPm.c ****     *
1660:.\Generated_Source\PSoC5/cyPm.c ****     * Summary:
1661:.\Generated_Source\PSoC5/cyPm.c ****     *  Disableds PICU interrupts.
1662:.\Generated_Source\PSoC5/cyPm.c ****     *
1663:.\Generated_Source\PSoC5/cyPm.c ****     * Parameters:
1664:.\Generated_Source\PSoC5/cyPm.c ****     *  None
1665:.\Generated_Source\PSoC5/cyPm.c ****     *
1666:.\Generated_Source\PSoC5/cyPm.c ****     * Return:
1667:.\Generated_Source\PSoC5/cyPm.c ****     *  None
1668:.\Generated_Source\PSoC5/cyPm.c ****     *
1669:.\Generated_Source\PSoC5/cyPm.c ****     *******************************************************************************/
1670:.\Generated_Source\PSoC5/cyPm.c ****     static void CyPmDisablePicuInterrupts(void) 
1671:.\Generated_Source\PSoC5/cyPm.c ****     {
 1701              		.loc 1 1671 0
 1702              		.cfi_startproc
 1703              		@ args = 0, pretend = 0, frame = 0
 1704              		@ frame_needed = 1, uses_anonymous_args = 0
 1705 0000 80B5     		push	{r7, lr}
 1706              	.LCFI31:
 1707              		.cfi_def_cfa_offset 8
 1708 0002 00AF     		add	r7, sp, #0
 1709              		.cfi_offset 14, -4
 1710              		.cfi_offset 7, -8
 1711              	.LCFI32:
 1712              		.cfi_def_cfa_register 7
1672:.\Generated_Source\PSoC5/cyPm.c ****         /* Disable all the PICU interrupts */
1673:.\Generated_Source\PSoC5/cyPm.c ****         (void) memset((void *) CY_PM_PICU_0_6_INT_BASE, 0, CY_PM_PICU_0_6_INT_SIZE);
 1713              		.loc 1 1673 0
 1714 0004 44F20050 		movw	r0, #:lower16:1073759488
 1715 0008 C4F20000 		movt	r0, #:upper16:1073759488
 1716 000c 4FF00001 		mov	r1, #0
 1717 0010 4FF03802 		mov	r2, #56
 1718 0014 FFF7FEFF 		bl	memset
1674:.\Generated_Source\PSoC5/cyPm.c ****         (void) memset((void *) CY_PM_PICU_12_INT_BASE,  0, CY_PM_PICU_12_INT_SIZE );
 1719              		.loc 1 1674 0
 1720 0018 44F26050 		movw	r0, #:lower16:1073759584
 1721 001c C4F20000 		movt	r0, #:upper16:1073759584
 1722 0020 4FF00001 		mov	r1, #0
 1723 0024 4FF00802 		mov	r2, #8
 1724 0028 FFF7FEFF 		bl	memset
1675:.\Generated_Source\PSoC5/cyPm.c ****         (void) memset((void *) CY_PM_PICU_15_INT_BASE,  0, CY_PM_PICU_15_INT_SIZE );
 1725              		.loc 1 1675 0
 1726 002c 44F27850 		movw	r0, #:lower16:1073759608
 1727 0030 C4F20000 		movt	r0, #:upper16:1073759608
 1728 0034 4FF00001 		mov	r1, #0
 1729 0038 4FF00802 		mov	r2, #8
 1730 003c FFF7FEFF 		bl	memset
1676:.\Generated_Source\PSoC5/cyPm.c ****     }
 1731              		.loc 1 1676 0
 1732 0040 80BD     		pop	{r7, pc}
ARM GAS  C:\Users\rmcgarel\AppData\Local\Temp\ccv1YA4O.s 			page 61


 1733              		.cfi_endproc
 1734              	.LFE12:
 1735              		.size	CyPmDisablePicuInterrupts, .-CyPmDisablePicuInterrupts
 1736 0042 00BF     		.section	.text.CyPmRestorePicuInterrupts,"ax",%progbits
 1737              		.align	2
 1738              		.thumb
 1739              		.thumb_func
 1740              		.type	CyPmRestorePicuInterrupts, %function
 1741              	CyPmRestorePicuInterrupts:
 1742              	.LFB13:
1677:.\Generated_Source\PSoC5/cyPm.c **** 
1678:.\Generated_Source\PSoC5/cyPm.c **** 
1679:.\Generated_Source\PSoC5/cyPm.c ****     /*******************************************************************************
1680:.\Generated_Source\PSoC5/cyPm.c ****     * Function Name: CyPmRestorePicuInterrupts
1681:.\Generated_Source\PSoC5/cyPm.c ****     ********************************************************************************
1682:.\Generated_Source\PSoC5/cyPm.c ****     *
1683:.\Generated_Source\PSoC5/cyPm.c ****     * Summary:
1684:.\Generated_Source\PSoC5/cyPm.c ****     *  Restores PICU interrupt type registers from the backup structure.
1685:.\Generated_Source\PSoC5/cyPm.c ****     *
1686:.\Generated_Source\PSoC5/cyPm.c ****     * Parameters:
1687:.\Generated_Source\PSoC5/cyPm.c ****     *  None
1688:.\Generated_Source\PSoC5/cyPm.c ****     *
1689:.\Generated_Source\PSoC5/cyPm.c ****     * Return:
1690:.\Generated_Source\PSoC5/cyPm.c ****     *  None
1691:.\Generated_Source\PSoC5/cyPm.c ****     *
1692:.\Generated_Source\PSoC5/cyPm.c ****     *******************************************************************************/
1693:.\Generated_Source\PSoC5/cyPm.c ****     static void CyPmRestorePicuInterrupts(void) 
1694:.\Generated_Source\PSoC5/cyPm.c ****     {
 1743              		.loc 1 1694 0
 1744              		.cfi_startproc
 1745              		@ args = 0, pretend = 0, frame = 0
 1746              		@ frame_needed = 1, uses_anonymous_args = 0
 1747 0000 80B5     		push	{r7, lr}
 1748              	.LCFI33:
 1749              		.cfi_def_cfa_offset 8
 1750 0002 00AF     		add	r7, sp, #0
 1751              		.cfi_offset 14, -4
 1752              		.cfi_offset 7, -8
 1753              	.LCFI34:
 1754              		.cfi_def_cfa_register 7
1695:.\Generated_Source\PSoC5/cyPm.c ****         /* Save all the PICU interrupt type */
1696:.\Generated_Source\PSoC5/cyPm.c ****         (void) memcpy((void *) CY_PM_PICU_0_6_INT_BASE,
 1755              		.loc 1 1696 0
 1756 0004 44F20050 		movw	r0, #:lower16:1073759488
 1757 0008 C4F20000 		movt	r0, #:upper16:1073759488
 1758 000c 0C49     		ldr	r1, .L91
 1759 000e 4FF03802 		mov	r2, #56
 1760 0012 FFF7FEFF 		bl	memcpy
1697:.\Generated_Source\PSoC5/cyPm.c ****                       (void *) &cyPmBackup.picuIntType[0u],
1698:.\Generated_Source\PSoC5/cyPm.c ****                       CY_PM_PICU_0_6_INT_SIZE);
1699:.\Generated_Source\PSoC5/cyPm.c **** 
1700:.\Generated_Source\PSoC5/cyPm.c ****         (void) memcpy((void *) CY_PM_PICU_12_INT_BASE,
 1761              		.loc 1 1700 0
 1762 0016 0B4B     		ldr	r3, .L91+4
 1763 0018 44F26050 		movw	r0, #:lower16:1073759584
 1764 001c C4F20000 		movt	r0, #:upper16:1073759584
 1765 0020 1946     		mov	r1, r3
ARM GAS  C:\Users\rmcgarel\AppData\Local\Temp\ccv1YA4O.s 			page 62


 1766 0022 4FF00802 		mov	r2, #8
 1767 0026 FFF7FEFF 		bl	memcpy
1701:.\Generated_Source\PSoC5/cyPm.c ****                       (void *) &cyPmBackup.picuIntType[CY_PM_PICU_0_6_INT_SIZE],
1702:.\Generated_Source\PSoC5/cyPm.c ****                       CY_PM_PICU_12_INT_SIZE);
1703:.\Generated_Source\PSoC5/cyPm.c **** 
1704:.\Generated_Source\PSoC5/cyPm.c ****         (void) memcpy((void *) CY_PM_PICU_15_INT_BASE,
 1768              		.loc 1 1704 0
 1769 002a 074B     		ldr	r3, .L91+8
 1770 002c 44F27850 		movw	r0, #:lower16:1073759608
 1771 0030 C4F20000 		movt	r0, #:upper16:1073759608
 1772 0034 1946     		mov	r1, r3
 1773 0036 4FF00802 		mov	r2, #8
 1774 003a FFF7FEFF 		bl	memcpy
1705:.\Generated_Source\PSoC5/cyPm.c ****                       (void *) &cyPmBackup.picuIntType[CY_PM_PICU_0_6_INT_SIZE + CY_PM_PICU_12_INT_
1706:.\Generated_Source\PSoC5/cyPm.c ****                       CY_PM_PICU_15_INT_SIZE);
1707:.\Generated_Source\PSoC5/cyPm.c **** 
1708:.\Generated_Source\PSoC5/cyPm.c ****     }
 1775              		.loc 1 1708 0
 1776 003e 80BD     		pop	{r7, pc}
 1777              	.L92:
 1778              		.align	2
 1779              	.L91:
 1780 0040 52000000 		.word	cyPmBackup+82
 1781 0044 8A000000 		.word	cyPmBackup+138
 1782 0048 92000000 		.word	cyPmBackup+146
 1783              		.cfi_endproc
 1784              	.LFE13:
 1785              		.size	CyPmRestorePicuInterrupts, .-CyPmRestorePicuInterrupts
 1786              		.section	.text.CyPmSlpSaveSet,"ax",%progbits
 1787              		.align	2
 1788              		.thumb
 1789              		.thumb_func
 1790              		.type	CyPmSlpSaveSet, %function
 1791              	CyPmSlpSaveSet:
 1792              	.LFB14:
1709:.\Generated_Source\PSoC5/cyPm.c **** 
1710:.\Generated_Source\PSoC5/cyPm.c **** #endif  /* (CY_PSOC5A) */
1711:.\Generated_Source\PSoC5/cyPm.c **** 
1712:.\Generated_Source\PSoC5/cyPm.c **** 
1713:.\Generated_Source\PSoC5/cyPm.c **** /*******************************************************************************
1714:.\Generated_Source\PSoC5/cyPm.c **** * Function Name: CyPmSlpSaveSet
1715:.\Generated_Source\PSoC5/cyPm.c **** ********************************************************************************
1716:.\Generated_Source\PSoC5/cyPm.c **** *
1717:.\Generated_Source\PSoC5/cyPm.c **** * Summary:
1718:.\Generated_Source\PSoC5/cyPm.c **** *  Prepare device for proper Sleep low power mode entry:
1719:.\Generated_Source\PSoC5/cyPm.c **** *  - Prepare CTW for Sleep mode entry (PSoC 5)
1720:.\Generated_Source\PSoC5/cyPm.c **** *    * Save timewheels configuration
1721:.\Generated_Source\PSoC5/cyPm.c **** *    * Disable FTW and 1PPS (enable and interrupt)
1722:.\Generated_Source\PSoC5/cyPm.c **** *    * Reset CTW
1723:.\Generated_Source\PSoC5/cyPm.c **** *    * Save and disable PICU interrupts (PSoC 5)
1724:.\Generated_Source\PSoC5/cyPm.c **** *    * Save and disable PRES-A and PRES-D (PSoC 5)
1725:.\Generated_Source\PSoC5/cyPm.c **** *  - Save and disable LVI/HVI configuration (PSoC 5)
1726:.\Generated_Source\PSoC5/cyPm.c **** *  - Save and set to max buzz interval (PSoC 5)
1727:.\Generated_Source\PSoC5/cyPm.c **** *  - If LVI/HVI is enabled than hardware buzz in required (PSoC 3):
1728:.\Generated_Source\PSoC5/cyPm.c **** *    * Prepare wake trim registers
1729:.\Generated_Source\PSoC5/cyPm.c **** *    * Disable LDO-A in proper way
1730:.\Generated_Source\PSoC5/cyPm.c **** *  - If LVI/HVI is disabled than hardware buzz in not required (PSoC 3):
ARM GAS  C:\Users\rmcgarel\AppData\Local\Temp\ccv1YA4O.s 			page 63


1731:.\Generated_Source\PSoC5/cyPm.c **** *    * Disabled hardware buzz
1732:.\Generated_Source\PSoC5/cyPm.c **** *  - CyPmHibSlpSaveSet() function is called
1733:.\Generated_Source\PSoC5/cyPm.c **** *
1734:.\Generated_Source\PSoC5/cyPm.c **** * Parameters:
1735:.\Generated_Source\PSoC5/cyPm.c **** *  None
1736:.\Generated_Source\PSoC5/cyPm.c **** *
1737:.\Generated_Source\PSoC5/cyPm.c **** * Return:
1738:.\Generated_Source\PSoC5/cyPm.c **** *  None
1739:.\Generated_Source\PSoC5/cyPm.c **** *
1740:.\Generated_Source\PSoC5/cyPm.c **** * Reentrant:
1741:.\Generated_Source\PSoC5/cyPm.c **** *  No
1742:.\Generated_Source\PSoC5/cyPm.c **** *
1743:.\Generated_Source\PSoC5/cyPm.c **** *******************************************************************************/
1744:.\Generated_Source\PSoC5/cyPm.c **** static void CyPmSlpSaveSet(void) 
1745:.\Generated_Source\PSoC5/cyPm.c **** {
 1793              		.loc 1 1745 0
 1794              		.cfi_startproc
 1795              		@ args = 0, pretend = 0, frame = 0
 1796              		@ frame_needed = 1, uses_anonymous_args = 0
 1797 0000 80B5     		push	{r7, lr}
 1798              	.LCFI35:
 1799              		.cfi_def_cfa_offset 8
 1800 0002 00AF     		add	r7, sp, #0
 1801              		.cfi_offset 14, -4
 1802              		.cfi_offset 7, -8
 1803              	.LCFI36:
 1804              		.cfi_def_cfa_register 7
1746:.\Generated_Source\PSoC5/cyPm.c ****     #if(CY_PSOC5A)
1747:.\Generated_Source\PSoC5/cyPm.c **** 
1748:.\Generated_Source\PSoC5/cyPm.c ****         /* Preserve the Timewheel Configuration Register 2 */
1749:.\Generated_Source\PSoC5/cyPm.c ****         cyPmBackup.pmTwCfg2 = CY_PM_TW_CFG2_REG;
 1805              		.loc 1 1749 0
 1806 0004 44F28233 		movw	r3, #:lower16:1073759106
 1807 0008 C4F20003 		movt	r3, #:upper16:1073759106
 1808 000c 1B78     		ldrb	r3, [r3, #0]
 1809 000e DAB2     		uxtb	r2, r3
 1810 0010 40F20003 		movw	r3, #:lower16:cyPmBackup
 1811 0014 C0F20003 		movt	r3, #:upper16:cyPmBackup
 1812 0018 83F85120 		strb	r2, [r3, #81]
1750:.\Generated_Source\PSoC5/cyPm.c **** 
1751:.\Generated_Source\PSoC5/cyPm.c ****         /*  Clear the enable and interrupt enables for the FTW and ONEPPS */
1752:.\Generated_Source\PSoC5/cyPm.c ****         CY_PM_TW_CFG2_REG &= ((uint8)(~(CY_PM_FTW_IE | CY_PM_FTW_EN | CY_PM_1PPS_EN | CY_PM_1PPS_IE
 1813              		.loc 1 1752 0
 1814 001c 44F28233 		movw	r3, #:lower16:1073759106
 1815 0020 C4F20003 		movt	r3, #:upper16:1073759106
 1816 0024 44F28232 		movw	r2, #:lower16:1073759106
 1817 0028 C4F20002 		movt	r2, #:upper16:1073759106
 1818 002c 1278     		ldrb	r2, [r2, #0]
 1819 002e D2B2     		uxtb	r2, r2
 1820 0030 02F0CC02 		and	r2, r2, #204
 1821 0034 1A70     		strb	r2, [r3, #0]
1753:.\Generated_Source\PSoC5/cyPm.c **** 
1754:.\Generated_Source\PSoC5/cyPm.c ****         /* Reset free-running CTW counter to 0 and held it there */
1755:.\Generated_Source\PSoC5/cyPm.c ****         CY_PM_WDT_CFG_REG |= CY_PM_WDT_CFG_CTW_RESET;
 1822              		.loc 1 1755 0
 1823 0036 44F28333 		movw	r3, #:lower16:1073759107
 1824 003a C4F20003 		movt	r3, #:upper16:1073759107
ARM GAS  C:\Users\rmcgarel\AppData\Local\Temp\ccv1YA4O.s 			page 64


 1825 003e 44F28332 		movw	r2, #:lower16:1073759107
 1826 0042 C4F20002 		movt	r2, #:upper16:1073759107
 1827 0046 1278     		ldrb	r2, [r2, #0]
 1828 0048 D2B2     		uxtb	r2, r2
 1829 004a 6FEA4262 		mvn	r2, r2, lsl #25
 1830 004e 6FEA5262 		mvn	r2, r2, lsr #25
 1831 0052 D2B2     		uxtb	r2, r2
 1832 0054 1A70     		strb	r2, [r3, #0]
1756:.\Generated_Source\PSoC5/cyPm.c **** 
1757:.\Generated_Source\PSoC5/cyPm.c ****         /* Exit CTW counter reset state */
1758:.\Generated_Source\PSoC5/cyPm.c ****         CY_PM_WDT_CFG_REG &= ((uint8)(~CY_PM_WDT_CFG_CTW_RESET));
 1833              		.loc 1 1758 0
 1834 0056 44F28333 		movw	r3, #:lower16:1073759107
 1835 005a C4F20003 		movt	r3, #:upper16:1073759107
 1836 005e 44F28332 		movw	r2, #:lower16:1073759107
 1837 0062 C4F20002 		movt	r2, #:upper16:1073759107
 1838 0066 1278     		ldrb	r2, [r2, #0]
 1839 0068 D2B2     		uxtb	r2, r2
 1840 006a 02F07F02 		and	r2, r2, #127
 1841 006e 1A70     		strb	r2, [r3, #0]
1759:.\Generated_Source\PSoC5/cyPm.c **** 
1760:.\Generated_Source\PSoC5/cyPm.c ****         /* Save and disable PICU interrupts  */
1761:.\Generated_Source\PSoC5/cyPm.c ****         CyPmSavePicuInterrupts();
 1842              		.loc 1 1761 0
 1843 0070 FFF7FEFF 		bl	CyPmSavePicuInterrupts
1762:.\Generated_Source\PSoC5/cyPm.c ****         CyPmDisablePicuInterrupts();
 1844              		.loc 1 1762 0
 1845 0074 FFF7FEFF 		bl	CyPmDisablePicuInterrupts
1763:.\Generated_Source\PSoC5/cyPm.c **** 
1764:.\Generated_Source\PSoC5/cyPm.c ****         /* Save and disable PRES-A and PRES-D */
1765:.\Generated_Source\PSoC5/cyPm.c ****         cyPmBackup.pres1 = CY_PM_RESET_CR1_REG & CY_PM_RESET_CR1_DIS_PRES1;
 1846              		.loc 1 1765 0
 1847 0078 44F2F563 		movw	r3, #:lower16:1073759989
 1848 007c C4F20003 		movt	r3, #:upper16:1073759989
 1849 0080 1B78     		ldrb	r3, [r3, #0]
 1850 0082 DBB2     		uxtb	r3, r3
 1851 0084 1A46     		mov	r2, r3
 1852 0086 02F01002 		and	r2, r2, #16
 1853 008a 40F20003 		movw	r3, #:lower16:cyPmBackup
 1854 008e C0F20003 		movt	r3, #:upper16:cyPmBackup
 1855 0092 83F89A20 		strb	r2, [r3, #154]
1766:.\Generated_Source\PSoC5/cyPm.c ****         cyPmBackup.pres2 = CY_PM_RESET_CR3_REG & CY_PM_RESET_CR3_DIS_PRES2;
 1856              		.loc 1 1766 0
 1857 0096 44F2F763 		movw	r3, #:lower16:1073759991
 1858 009a C4F20003 		movt	r3, #:upper16:1073759991
 1859 009e 1B78     		ldrb	r3, [r3, #0]
 1860 00a0 DBB2     		uxtb	r3, r3
 1861 00a2 1A46     		mov	r2, r3
 1862 00a4 02F00802 		and	r2, r2, #8
 1863 00a8 40F20003 		movw	r3, #:lower16:cyPmBackup
 1864 00ac C0F20003 		movt	r3, #:upper16:cyPmBackup
 1865 00b0 83F89B20 		strb	r2, [r3, #155]
1767:.\Generated_Source\PSoC5/cyPm.c ****         CY_PM_RESET_CR1_REG &= ((uint8)(~CY_PM_RESET_CR1_DIS_PRES1));
 1866              		.loc 1 1767 0
 1867 00b4 44F2F563 		movw	r3, #:lower16:1073759989
 1868 00b8 C4F20003 		movt	r3, #:upper16:1073759989
 1869 00bc 44F2F562 		movw	r2, #:lower16:1073759989
ARM GAS  C:\Users\rmcgarel\AppData\Local\Temp\ccv1YA4O.s 			page 65


 1870 00c0 C4F20002 		movt	r2, #:upper16:1073759989
 1871 00c4 1278     		ldrb	r2, [r2, #0]
 1872 00c6 D2B2     		uxtb	r2, r2
 1873 00c8 02F0EF02 		and	r2, r2, #239
 1874 00cc 1A70     		strb	r2, [r3, #0]
1768:.\Generated_Source\PSoC5/cyPm.c ****         CY_PM_RESET_CR3_REG &= ((uint8)(~CY_PM_RESET_CR3_DIS_PRES2));
 1875              		.loc 1 1768 0
 1876 00ce 44F2F763 		movw	r3, #:lower16:1073759991
 1877 00d2 C4F20003 		movt	r3, #:upper16:1073759991
 1878 00d6 44F2F762 		movw	r2, #:lower16:1073759991
 1879 00da C4F20002 		movt	r2, #:upper16:1073759991
 1880 00de 1278     		ldrb	r2, [r2, #0]
 1881 00e0 D2B2     		uxtb	r2, r2
 1882 00e2 02F0F702 		and	r2, r2, #247
 1883 00e6 1A70     		strb	r2, [r3, #0]
1769:.\Generated_Source\PSoC5/cyPm.c **** 
1770:.\Generated_Source\PSoC5/cyPm.c ****     #endif /* (CY_PSOC5A) */
1771:.\Generated_Source\PSoC5/cyPm.c **** 
1772:.\Generated_Source\PSoC5/cyPm.c **** 
1773:.\Generated_Source\PSoC5/cyPm.c ****     #if(CY_PSOC5A)
1774:.\Generated_Source\PSoC5/cyPm.c **** 
1775:.\Generated_Source\PSoC5/cyPm.c ****         /***************************************************************************
1776:.\Generated_Source\PSoC5/cyPm.c ****         * LVI/HVI must be disabled as it doesn't work during buzzing.
1777:.\Generated_Source\PSoC5/cyPm.c ****         *
1778:.\Generated_Source\PSoC5/cyPm.c ****         * Using hardware buzz in conjunction with other device wakeup sources
1779:.\Generated_Source\PSoC5/cyPm.c ****         * can cause the device to lockup, halting further code execution. The
1780:.\Generated_Source\PSoC5/cyPm.c ****         * hardware buzz provides power supply supervising capability in sleep.
1781:.\Generated_Source\PSoC5/cyPm.c ****         * It is enabled by default and there is no way to disable it. So the buzz
1782:.\Generated_Source\PSoC5/cyPm.c ****         * interval is set to maximum (512 ms). The CTW must be configured to wake up
1783:.\Generated_Source\PSoC5/cyPm.c ****         * at a rate less than hardware buzz interval.
1784:.\Generated_Source\PSoC5/cyPm.c ****         ***************************************************************************/
1785:.\Generated_Source\PSoC5/cyPm.c **** 
1786:.\Generated_Source\PSoC5/cyPm.c ****         /* Save and disable LVI/HVI */
1787:.\Generated_Source\PSoC5/cyPm.c ****         CyPmHviLviSaveDisable();
 1884              		.loc 1 1787 0
 1885 00e8 FFF7FEFF 		bl	CyPmHviLviSaveDisable
1788:.\Generated_Source\PSoC5/cyPm.c **** 
1789:.\Generated_Source\PSoC5/cyPm.c ****         /* Save buzz trim value */
1790:.\Generated_Source\PSoC5/cyPm.c ****         cyPmBackup.buzzSleepTrim = CY_PM_PWRSYS_BUZZ_TR_REG & ((uint8)(~CY_PM_PWRSYS_BUZZ_TR_MASK))
 1886              		.loc 1 1790 0
 1887 00ec 44F28463 		movw	r3, #:lower16:1073759876
 1888 00f0 C4F20003 		movt	r3, #:upper16:1073759876
 1889 00f4 1B78     		ldrb	r3, [r3, #0]
 1890 00f6 DBB2     		uxtb	r3, r3
 1891 00f8 1A46     		mov	r2, r3
 1892 00fa 02F00F02 		and	r2, r2, #15
 1893 00fe 40F20003 		movw	r3, #:lower16:cyPmBackup
 1894 0102 C0F20003 		movt	r3, #:upper16:cyPmBackup
 1895 0106 5A70     		strb	r2, [r3, #1]
1791:.\Generated_Source\PSoC5/cyPm.c **** 
1792:.\Generated_Source\PSoC5/cyPm.c ****         /* Set buzz interval to maximum */
1793:.\Generated_Source\PSoC5/cyPm.c ****         CY_PM_PWRSYS_BUZZ_TR_REG = CY_PM_PWRSYS_BUZZ_TR_512_TICKS |
 1896              		.loc 1 1793 0
 1897 0108 44F28463 		movw	r3, #:lower16:1073759876
 1898 010c C4F20003 		movt	r3, #:upper16:1073759876
1794:.\Generated_Source\PSoC5/cyPm.c ****                                   (CY_PM_PWRSYS_BUZZ_TR_REG & CY_PM_PWRSYS_BUZZ_TR_MASK);
 1899              		.loc 1 1794 0
ARM GAS  C:\Users\rmcgarel\AppData\Local\Temp\ccv1YA4O.s 			page 66


 1900 0110 44F28462 		movw	r2, #:lower16:1073759876
 1901 0114 C4F20002 		movt	r2, #:upper16:1073759876
 1902 0118 1278     		ldrb	r2, [r2, #0]
 1903 011a D2B2     		uxtb	r2, r2
 1904              		.loc 1 1793 0
 1905 011c 02F0F002 		and	r2, r2, #240
 1906 0120 42F00802 		orr	r2, r2, #8
 1907 0124 D2B2     		uxtb	r2, r2
 1908 0126 1A70     		strb	r2, [r3, #0]
1795:.\Generated_Source\PSoC5/cyPm.c **** 
1796:.\Generated_Source\PSoC5/cyPm.c ****     #endif  /* (CY_PSOC5A) */
1797:.\Generated_Source\PSoC5/cyPm.c **** 
1798:.\Generated_Source\PSoC5/cyPm.c **** 
1799:.\Generated_Source\PSoC5/cyPm.c ****     #if(CY_PSOC3)
1800:.\Generated_Source\PSoC5/cyPm.c **** 
1801:.\Generated_Source\PSoC5/cyPm.c ****         /***************************************************************************
1802:.\Generated_Source\PSoC5/cyPm.c ****         * If LVI/HVI is enabled than hardware buzz in required:
1803:.\Generated_Source\PSoC5/cyPm.c ****         *  - Prepare wake trim registers
1804:.\Generated_Source\PSoC5/cyPm.c ****         *  - Disable LDO-A in proper way
1805:.\Generated_Source\PSoC5/cyPm.c ****         *
1806:.\Generated_Source\PSoC5/cyPm.c ****         * If LVI/HVI is disabled than hardware buzz in not required:
1807:.\Generated_Source\PSoC5/cyPm.c ****         *  - Disabled hardware buzz
1808:.\Generated_Source\PSoC5/cyPm.c ****         ***************************************************************************/
1809:.\Generated_Source\PSoC5/cyPm.c **** 
1810:.\Generated_Source\PSoC5/cyPm.c ****         cyPmBackup.wakeTr2 = CY_PM_PWRSYS_WAKE_TR2_REG;
1811:.\Generated_Source\PSoC5/cyPm.c **** 
1812:.\Generated_Source\PSoC5/cyPm.c ****         /* Reconfigure power mode wakeup trim registers */
1813:.\Generated_Source\PSoC5/cyPm.c ****         if(0u != (CY_PM_RESET_CR1_REG & (CY_PM_RESET_CR1_HVIA_EN |
1814:.\Generated_Source\PSoC5/cyPm.c ****                   CY_PM_RESET_CR1_LVIA_EN | CY_PM_RESET_CR1_LVID_EN)))
1815:.\Generated_Source\PSoC5/cyPm.c ****         {
1816:.\Generated_Source\PSoC5/cyPm.c ****             /* HVI/LVI is enabled - hardware buzz is required */
1817:.\Generated_Source\PSoC5/cyPm.c ****             if(CYDEV_CHIP_REV_ACTUAL < 5u)
1818:.\Generated_Source\PSoC5/cyPm.c ****             {
1819:.\Generated_Source\PSoC5/cyPm.c ****                 /* Update entire register */
1820:.\Generated_Source\PSoC5/cyPm.c ****                 CY_PM_PWRSYS_WAKE_TR2_REG = 0x3Bu;
1821:.\Generated_Source\PSoC5/cyPm.c **** 
1822:.\Generated_Source\PSoC5/cyPm.c ****                 /* Prepares for disabling LDO-A by moving bandgap reference to VCCD */
1823:.\Generated_Source\PSoC5/cyPm.c ****                 CY_PM_PWRSYS_CR1_REG = 0x01u;
1824:.\Generated_Source\PSoC5/cyPm.c **** 
1825:.\Generated_Source\PSoC5/cyPm.c ****                 /* Disables LDO-A */
1826:.\Generated_Source\PSoC5/cyPm.c ****                 CY_PM_PWRSYS_CR1_REG |= 0x02u;
1827:.\Generated_Source\PSoC5/cyPm.c ****             }
1828:.\Generated_Source\PSoC5/cyPm.c ****             else
1829:.\Generated_Source\PSoC5/cyPm.c ****             {
1830:.\Generated_Source\PSoC5/cyPm.c ****                 /* For later revisions, just enable buzz */
1831:.\Generated_Source\PSoC5/cyPm.c ****                 CY_PM_PWRSYS_WAKE_TR2_REG |= CY_PM_PWRSYS_WAKE_TR2_EN_BUZZ;
1832:.\Generated_Source\PSoC5/cyPm.c ****             }
1833:.\Generated_Source\PSoC5/cyPm.c ****         }
1834:.\Generated_Source\PSoC5/cyPm.c ****         else
1835:.\Generated_Source\PSoC5/cyPm.c ****         {
1836:.\Generated_Source\PSoC5/cyPm.c ****             /* HVI/LVI is disabled - hardware buzz is not required */
1837:.\Generated_Source\PSoC5/cyPm.c ****             if(CYDEV_CHIP_REV_ACTUAL < 5u)
1838:.\Generated_Source\PSoC5/cyPm.c ****             {
1839:.\Generated_Source\PSoC5/cyPm.c ****                 /* Update entire register */
1840:.\Generated_Source\PSoC5/cyPm.c ****                 CY_PM_PWRSYS_WAKE_TR2_REG = 0x3Au;
1841:.\Generated_Source\PSoC5/cyPm.c ****             }
1842:.\Generated_Source\PSoC5/cyPm.c ****         }
ARM GAS  C:\Users\rmcgarel\AppData\Local\Temp\ccv1YA4O.s 			page 67


1843:.\Generated_Source\PSoC5/cyPm.c **** 
1844:.\Generated_Source\PSoC5/cyPm.c ****     #endif  /* (CY_PSOC3) */
1845:.\Generated_Source\PSoC5/cyPm.c **** 
1846:.\Generated_Source\PSoC5/cyPm.c ****     /* Apply configuration that are same for Sleep and Hibernate */
1847:.\Generated_Source\PSoC5/cyPm.c ****     CyPmHibSlpSaveSet();
 1909              		.loc 1 1847 0
 1910 0128 FFF7FEFF 		bl	CyPmHibSlpSaveSet
1848:.\Generated_Source\PSoC5/cyPm.c **** }
 1911              		.loc 1 1848 0
 1912 012c 80BD     		pop	{r7, pc}
 1913              		.cfi_endproc
 1914              	.LFE14:
 1915              		.size	CyPmSlpSaveSet, .-CyPmSlpSaveSet
 1916 012e 00BF     		.section	.text.CyPmSlpRestore,"ax",%progbits
 1917              		.align	2
 1918              		.thumb
 1919              		.thumb_func
 1920              		.type	CyPmSlpRestore, %function
 1921              	CyPmSlpRestore:
 1922              	.LFB15:
1849:.\Generated_Source\PSoC5/cyPm.c **** 
1850:.\Generated_Source\PSoC5/cyPm.c **** 
1851:.\Generated_Source\PSoC5/cyPm.c **** /*******************************************************************************
1852:.\Generated_Source\PSoC5/cyPm.c **** * Function Name: CyPmSlpRestore
1853:.\Generated_Source\PSoC5/cyPm.c **** ********************************************************************************
1854:.\Generated_Source\PSoC5/cyPm.c **** *
1855:.\Generated_Source\PSoC5/cyPm.c **** * Summary:
1856:.\Generated_Source\PSoC5/cyPm.c **** *  Restore device for proper Sleep mode exit:
1857:.\Generated_Source\PSoC5/cyPm.c **** *  - Restore timewheel configuration (PSoC 5)
1858:.\Generated_Source\PSoC5/cyPm.c **** *  - Restore PRES-A and PRES-D (PSoC 5)
1859:.\Generated_Source\PSoC5/cyPm.c **** *  - Restore PICU interrupts (PSoC 5)
1860:.\Generated_Source\PSoC5/cyPm.c **** *  - Restore LVI/HVI configuration (PSoC 3)
1861:.\Generated_Source\PSoC5/cyPm.c **** *  - Restore buzz sleep trim value (PSoC 5)
1862:.\Generated_Source\PSoC5/cyPm.c **** *  - Call to CyPmHibSlpSaveRestore()
1863:.\Generated_Source\PSoC5/cyPm.c **** *
1864:.\Generated_Source\PSoC5/cyPm.c **** * Parameters:
1865:.\Generated_Source\PSoC5/cyPm.c **** *  None
1866:.\Generated_Source\PSoC5/cyPm.c **** *
1867:.\Generated_Source\PSoC5/cyPm.c **** * Return:
1868:.\Generated_Source\PSoC5/cyPm.c **** *  None
1869:.\Generated_Source\PSoC5/cyPm.c **** *
1870:.\Generated_Source\PSoC5/cyPm.c **** *******************************************************************************/
1871:.\Generated_Source\PSoC5/cyPm.c **** static void CyPmSlpRestore(void) 
1872:.\Generated_Source\PSoC5/cyPm.c **** {
 1923              		.loc 1 1872 0
 1924              		.cfi_startproc
 1925              		@ args = 0, pretend = 0, frame = 0
 1926              		@ frame_needed = 1, uses_anonymous_args = 0
 1927 0000 80B5     		push	{r7, lr}
 1928              	.LCFI37:
 1929              		.cfi_def_cfa_offset 8
 1930 0002 00AF     		add	r7, sp, #0
 1931              		.cfi_offset 14, -4
 1932              		.cfi_offset 7, -8
 1933              	.LCFI38:
 1934              		.cfi_def_cfa_register 7
1873:.\Generated_Source\PSoC5/cyPm.c ****     #if(CY_PSOC5A)
ARM GAS  C:\Users\rmcgarel\AppData\Local\Temp\ccv1YA4O.s 			page 68


1874:.\Generated_Source\PSoC5/cyPm.c **** 
1875:.\Generated_Source\PSoC5/cyPm.c ****         /* Restore the Timewheel Configuration Register 2 */
1876:.\Generated_Source\PSoC5/cyPm.c ****         CY_PM_TW_CFG2_REG = cyPmBackup.pmTwCfg2;
 1935              		.loc 1 1876 0
 1936 0004 44F28233 		movw	r3, #:lower16:1073759106
 1937 0008 C4F20003 		movt	r3, #:upper16:1073759106
 1938 000c 40F20002 		movw	r2, #:lower16:cyPmBackup
 1939 0010 C0F20002 		movt	r2, #:upper16:cyPmBackup
 1940 0014 92F85120 		ldrb	r2, [r2, #81]	@ zero_extendqisi2
 1941 0018 1A70     		strb	r2, [r3, #0]
1877:.\Generated_Source\PSoC5/cyPm.c **** 
1878:.\Generated_Source\PSoC5/cyPm.c ****         /* Restore PICU interrupts */
1879:.\Generated_Source\PSoC5/cyPm.c ****         CyPmRestorePicuInterrupts();
 1942              		.loc 1 1879 0
 1943 001a FFF7FEFF 		bl	CyPmRestorePicuInterrupts
1880:.\Generated_Source\PSoC5/cyPm.c **** 
1881:.\Generated_Source\PSoC5/cyPm.c ****         /* Restore PRES-A and PRES-D (assumed they were disabled) */
1882:.\Generated_Source\PSoC5/cyPm.c ****         CY_PM_RESET_CR1_REG |= cyPmBackup.pres1;
 1944              		.loc 1 1882 0
 1945 001e 44F2F563 		movw	r3, #:lower16:1073759989
 1946 0022 C4F20003 		movt	r3, #:upper16:1073759989
 1947 0026 44F2F562 		movw	r2, #:lower16:1073759989
 1948 002a C4F20002 		movt	r2, #:upper16:1073759989
 1949 002e 1278     		ldrb	r2, [r2, #0]
 1950 0030 D1B2     		uxtb	r1, r2
 1951 0032 40F20002 		movw	r2, #:lower16:cyPmBackup
 1952 0036 C0F20002 		movt	r2, #:upper16:cyPmBackup
 1953 003a 92F89A20 		ldrb	r2, [r2, #154]	@ zero_extendqisi2
 1954 003e 41EA0202 		orr	r2, r1, r2
 1955 0042 D2B2     		uxtb	r2, r2
 1956 0044 1A70     		strb	r2, [r3, #0]
1883:.\Generated_Source\PSoC5/cyPm.c ****         CY_PM_RESET_CR3_REG |= cyPmBackup.pres2;
 1957              		.loc 1 1883 0
 1958 0046 44F2F763 		movw	r3, #:lower16:1073759991
 1959 004a C4F20003 		movt	r3, #:upper16:1073759991
 1960 004e 44F2F762 		movw	r2, #:lower16:1073759991
 1961 0052 C4F20002 		movt	r2, #:upper16:1073759991
 1962 0056 1278     		ldrb	r2, [r2, #0]
 1963 0058 D1B2     		uxtb	r1, r2
 1964 005a 40F20002 		movw	r2, #:lower16:cyPmBackup
 1965 005e C0F20002 		movt	r2, #:upper16:cyPmBackup
 1966 0062 92F89B20 		ldrb	r2, [r2, #155]	@ zero_extendqisi2
 1967 0066 41EA0202 		orr	r2, r1, r2
 1968 006a D2B2     		uxtb	r2, r2
 1969 006c 1A70     		strb	r2, [r3, #0]
1884:.\Generated_Source\PSoC5/cyPm.c **** 
1885:.\Generated_Source\PSoC5/cyPm.c ****     #endif /* (CY_PSOC5A) */
1886:.\Generated_Source\PSoC5/cyPm.c **** 
1887:.\Generated_Source\PSoC5/cyPm.c **** 
1888:.\Generated_Source\PSoC5/cyPm.c ****     #if(CY_PSOC5A)
1889:.\Generated_Source\PSoC5/cyPm.c **** 
1890:.\Generated_Source\PSoC5/cyPm.c ****         /* Restore LVI/HVI configuration */
1891:.\Generated_Source\PSoC5/cyPm.c ****         CyPmHviLviRestore();
 1970              		.loc 1 1891 0
 1971 006e FFF7FEFF 		bl	CyPmHviLviRestore
1892:.\Generated_Source\PSoC5/cyPm.c **** 
1893:.\Generated_Source\PSoC5/cyPm.c ****         /* Restore buzz sleep trim value */
ARM GAS  C:\Users\rmcgarel\AppData\Local\Temp\ccv1YA4O.s 			page 69


1894:.\Generated_Source\PSoC5/cyPm.c ****         CY_PM_PWRSYS_BUZZ_TR_REG = cyPmBackup.buzzSleepTrim |
 1972              		.loc 1 1894 0
 1973 0072 44F28463 		movw	r3, #:lower16:1073759876
 1974 0076 C4F20003 		movt	r3, #:upper16:1073759876
 1975 007a 40F20002 		movw	r2, #:lower16:cyPmBackup
 1976 007e C0F20002 		movt	r2, #:upper16:cyPmBackup
 1977 0082 5178     		ldrb	r1, [r2, #1]	@ zero_extendqisi2
1895:.\Generated_Source\PSoC5/cyPm.c ****                                   (CY_PM_PWRSYS_BUZZ_TR_REG & CY_PM_PWRSYS_BUZZ_TR_MASK);
 1978              		.loc 1 1895 0
 1979 0084 44F28462 		movw	r2, #:lower16:1073759876
 1980 0088 C4F20002 		movt	r2, #:upper16:1073759876
 1981 008c 1278     		ldrb	r2, [r2, #0]
 1982 008e D2B2     		uxtb	r2, r2
 1983              		.loc 1 1894 0
 1984 0090 02F0F002 		and	r2, r2, #240
 1985 0094 41EA0202 		orr	r2, r1, r2
 1986 0098 D2B2     		uxtb	r2, r2
 1987 009a 1A70     		strb	r2, [r3, #0]
1896:.\Generated_Source\PSoC5/cyPm.c **** 
1897:.\Generated_Source\PSoC5/cyPm.c ****     #endif  /* (CY_PSOC5A) */
1898:.\Generated_Source\PSoC5/cyPm.c **** 
1899:.\Generated_Source\PSoC5/cyPm.c **** 
1900:.\Generated_Source\PSoC5/cyPm.c ****     #if(CY_PSOC3)
1901:.\Generated_Source\PSoC5/cyPm.c **** 
1902:.\Generated_Source\PSoC5/cyPm.c ****         CY_PM_PWRSYS_WAKE_TR2_REG = cyPmBackup.wakeTr2;
1903:.\Generated_Source\PSoC5/cyPm.c **** 
1904:.\Generated_Source\PSoC5/cyPm.c ****         /* HVI/LVI is enabled - hardware buzz is required */
1905:.\Generated_Source\PSoC5/cyPm.c ****         if(CYDEV_CHIP_REV_ACTUAL < 5u)
1906:.\Generated_Source\PSoC5/cyPm.c ****         {
1907:.\Generated_Source\PSoC5/cyPm.c ****             /* Reconfigure power mode wakeup trim registers */
1908:.\Generated_Source\PSoC5/cyPm.c ****             if(0u != (CY_PM_RESET_CR1_REG & (CY_PM_RESET_CR1_HVIA_EN |
1909:.\Generated_Source\PSoC5/cyPm.c ****                       CY_PM_RESET_CR1_LVIA_EN | CY_PM_RESET_CR1_LVID_EN)))
1910:.\Generated_Source\PSoC5/cyPm.c ****             {
1911:.\Generated_Source\PSoC5/cyPm.c ****                 /* Enables LDO-A */
1912:.\Generated_Source\PSoC5/cyPm.c ****                 CY_PM_PWRSYS_CR1_REG &= ((uint8)(~0x02u));
1913:.\Generated_Source\PSoC5/cyPm.c **** 
1914:.\Generated_Source\PSoC5/cyPm.c ****                 /* Moves bandgap reference back to VCCA */
1915:.\Generated_Source\PSoC5/cyPm.c ****                 CY_PM_PWRSYS_CR1_REG &= ((uint8)(~0x01u));
1916:.\Generated_Source\PSoC5/cyPm.c ****             }
1917:.\Generated_Source\PSoC5/cyPm.c ****         }
1918:.\Generated_Source\PSoC5/cyPm.c **** 
1919:.\Generated_Source\PSoC5/cyPm.c ****     #endif  /* (CY_PSOC3) */
1920:.\Generated_Source\PSoC5/cyPm.c **** 
1921:.\Generated_Source\PSoC5/cyPm.c **** 
1922:.\Generated_Source\PSoC5/cyPm.c ****     /* Restore configuration that are same for Sleep and Hibernate */
1923:.\Generated_Source\PSoC5/cyPm.c ****     CyPmHibSlpRestore();
 1988              		.loc 1 1923 0
 1989 009c FFF7FEFF 		bl	CyPmHibSlpRestore
1924:.\Generated_Source\PSoC5/cyPm.c **** }
 1990              		.loc 1 1924 0
 1991 00a0 80BD     		pop	{r7, pc}
 1992              		.cfi_endproc
 1993              	.LFE15:
 1994              		.size	CyPmSlpRestore, .-CyPmSlpRestore
 1995 00a2 00BF     		.section	.text.CyPmHibSlpSaveSet,"ax",%progbits
 1996              		.align	2
 1997              		.thumb
ARM GAS  C:\Users\rmcgarel\AppData\Local\Temp\ccv1YA4O.s 			page 70


 1998              		.thumb_func
 1999              		.type	CyPmHibSlpSaveSet, %function
 2000              	CyPmHibSlpSaveSet:
 2001              	.LFB16:
1925:.\Generated_Source\PSoC5/cyPm.c **** 
1926:.\Generated_Source\PSoC5/cyPm.c **** 
1927:.\Generated_Source\PSoC5/cyPm.c **** /*******************************************************************************
1928:.\Generated_Source\PSoC5/cyPm.c **** * Function Name: CyPmHibSlpSaveSet
1929:.\Generated_Source\PSoC5/cyPm.c **** ********************************************************************************
1930:.\Generated_Source\PSoC5/cyPm.c **** *
1931:.\Generated_Source\PSoC5/cyPm.c **** * Summary:
1932:.\Generated_Source\PSoC5/cyPm.c **** *  This API is used for preparing device for Sleep and Hibernate low power
1933:.\Generated_Source\PSoC5/cyPm.c **** *  modes entry:
1934:.\Generated_Source\PSoC5/cyPm.c **** *  - Saves COMP, VIDAC, DSM and SAR routing connections (PSoC 5)
1935:.\Generated_Source\PSoC5/cyPm.c **** *  - Saves SC/CT routing connections (PSoC 3/5/5LP)
1936:.\Generated_Source\PSoC5/cyPm.c **** *  - Disables Serial Wire Viewer (SWV) (PSoC 3)
1937:.\Generated_Source\PSoC5/cyPm.c **** *  - Save boost reference selection and set it to internal
1938:.\Generated_Source\PSoC5/cyPm.c **** *
1939:.\Generated_Source\PSoC5/cyPm.c **** * Parameters:
1940:.\Generated_Source\PSoC5/cyPm.c **** *  None
1941:.\Generated_Source\PSoC5/cyPm.c **** *
1942:.\Generated_Source\PSoC5/cyPm.c **** * Return:
1943:.\Generated_Source\PSoC5/cyPm.c **** *  None
1944:.\Generated_Source\PSoC5/cyPm.c **** *
1945:.\Generated_Source\PSoC5/cyPm.c **** * Reentrant:
1946:.\Generated_Source\PSoC5/cyPm.c **** *  No
1947:.\Generated_Source\PSoC5/cyPm.c **** *
1948:.\Generated_Source\PSoC5/cyPm.c **** *******************************************************************************/
1949:.\Generated_Source\PSoC5/cyPm.c **** static void CyPmHibSlpSaveSet(void) 
1950:.\Generated_Source\PSoC5/cyPm.c **** {
 2002              		.loc 1 1950 0
 2003              		.cfi_startproc
 2004              		@ args = 0, pretend = 0, frame = 0
 2005              		@ frame_needed = 1, uses_anonymous_args = 0
 2006              		@ link register save eliminated.
 2007 0000 80B4     		push	{r7}
 2008              	.LCFI39:
 2009              		.cfi_def_cfa_offset 4
 2010 0002 00AF     		add	r7, sp, #0
 2011              		.cfi_offset 7, -4
 2012              	.LCFI40:
 2013              		.cfi_def_cfa_register 7
1951:.\Generated_Source\PSoC5/cyPm.c ****     #if(CY_PSOC5A)
1952:.\Generated_Source\PSoC5/cyPm.c **** 
1953:.\Generated_Source\PSoC5/cyPm.c ****         /* Save CMP routing registers */
1954:.\Generated_Source\PSoC5/cyPm.c ****         cyPmBackup.cmpData[0u]  = CY_GET_REG8(CYREG_CMP0_SW0);
 2014              		.loc 1 1954 0
 2015 0004 45F6C023 		movw	r3, #:lower16:1073765056
 2016 0008 C4F20003 		movt	r3, #:upper16:1073765056
 2017 000c 1B78     		ldrb	r3, [r3, #0]
 2018 000e DAB2     		uxtb	r2, r3
 2019 0010 40F20003 		movw	r3, #:lower16:cyPmBackup
 2020 0014 C0F20003 		movt	r3, #:upper16:cyPmBackup
 2021 0018 9A77     		strb	r2, [r3, #30]
1955:.\Generated_Source\PSoC5/cyPm.c ****         cyPmBackup.cmpData[1u]  = CY_GET_REG8(CYREG_CMP0_SW2);
 2022              		.loc 1 1955 0
 2023 001a 45F6C223 		movw	r3, #:lower16:1073765058
ARM GAS  C:\Users\rmcgarel\AppData\Local\Temp\ccv1YA4O.s 			page 71


 2024 001e C4F20003 		movt	r3, #:upper16:1073765058
 2025 0022 1B78     		ldrb	r3, [r3, #0]
 2026 0024 DAB2     		uxtb	r2, r3
 2027 0026 40F20003 		movw	r3, #:lower16:cyPmBackup
 2028 002a C0F20003 		movt	r3, #:upper16:cyPmBackup
 2029 002e DA77     		strb	r2, [r3, #31]
1956:.\Generated_Source\PSoC5/cyPm.c ****         cyPmBackup.cmpData[2u]  = CY_GET_REG8(CYREG_CMP0_SW3);
 2030              		.loc 1 1956 0
 2031 0030 45F6C323 		movw	r3, #:lower16:1073765059
 2032 0034 C4F20003 		movt	r3, #:upper16:1073765059
 2033 0038 1B78     		ldrb	r3, [r3, #0]
 2034 003a DAB2     		uxtb	r2, r3
 2035 003c 40F20003 		movw	r3, #:lower16:cyPmBackup
 2036 0040 C0F20003 		movt	r3, #:upper16:cyPmBackup
 2037 0044 83F82020 		strb	r2, [r3, #32]
1957:.\Generated_Source\PSoC5/cyPm.c ****         cyPmBackup.cmpData[3u]  = CY_GET_REG8(CYREG_CMP0_SW4);
 2038              		.loc 1 1957 0
 2039 0048 45F6C423 		movw	r3, #:lower16:1073765060
 2040 004c C4F20003 		movt	r3, #:upper16:1073765060
 2041 0050 1B78     		ldrb	r3, [r3, #0]
 2042 0052 DAB2     		uxtb	r2, r3
 2043 0054 40F20003 		movw	r3, #:lower16:cyPmBackup
 2044 0058 C0F20003 		movt	r3, #:upper16:cyPmBackup
 2045 005c 83F82120 		strb	r2, [r3, #33]
1958:.\Generated_Source\PSoC5/cyPm.c ****         cyPmBackup.cmpData[4u]  = CY_GET_REG8(CYREG_CMP0_SW6);
 2046              		.loc 1 1958 0
 2047 0060 45F6C623 		movw	r3, #:lower16:1073765062
 2048 0064 C4F20003 		movt	r3, #:upper16:1073765062
 2049 0068 1B78     		ldrb	r3, [r3, #0]
 2050 006a DAB2     		uxtb	r2, r3
 2051 006c 40F20003 		movw	r3, #:lower16:cyPmBackup
 2052 0070 C0F20003 		movt	r3, #:upper16:cyPmBackup
 2053 0074 83F82220 		strb	r2, [r3, #34]
1959:.\Generated_Source\PSoC5/cyPm.c **** 
1960:.\Generated_Source\PSoC5/cyPm.c ****         cyPmBackup.cmpData[5u]  = CY_GET_REG8(CYREG_CMP1_SW0);
 2054              		.loc 1 1960 0
 2055 0078 45F6C823 		movw	r3, #:lower16:1073765064
 2056 007c C4F20003 		movt	r3, #:upper16:1073765064
 2057 0080 1B78     		ldrb	r3, [r3, #0]
 2058 0082 DAB2     		uxtb	r2, r3
 2059 0084 40F20003 		movw	r3, #:lower16:cyPmBackup
 2060 0088 C0F20003 		movt	r3, #:upper16:cyPmBackup
 2061 008c 83F82320 		strb	r2, [r3, #35]
1961:.\Generated_Source\PSoC5/cyPm.c ****         cyPmBackup.cmpData[6u]  = CY_GET_REG8(CYREG_CMP1_SW2);
 2062              		.loc 1 1961 0
 2063 0090 45F6CA23 		movw	r3, #:lower16:1073765066
 2064 0094 C4F20003 		movt	r3, #:upper16:1073765066
 2065 0098 1B78     		ldrb	r3, [r3, #0]
 2066 009a DAB2     		uxtb	r2, r3
 2067 009c 40F20003 		movw	r3, #:lower16:cyPmBackup
 2068 00a0 C0F20003 		movt	r3, #:upper16:cyPmBackup
 2069 00a4 83F82420 		strb	r2, [r3, #36]
1962:.\Generated_Source\PSoC5/cyPm.c ****         cyPmBackup.cmpData[7u]  = CY_GET_REG8(CYREG_CMP1_SW3);
 2070              		.loc 1 1962 0
 2071 00a8 45F6CB23 		movw	r3, #:lower16:1073765067
 2072 00ac C4F20003 		movt	r3, #:upper16:1073765067
 2073 00b0 1B78     		ldrb	r3, [r3, #0]
ARM GAS  C:\Users\rmcgarel\AppData\Local\Temp\ccv1YA4O.s 			page 72


 2074 00b2 DAB2     		uxtb	r2, r3
 2075 00b4 40F20003 		movw	r3, #:lower16:cyPmBackup
 2076 00b8 C0F20003 		movt	r3, #:upper16:cyPmBackup
 2077 00bc 83F82520 		strb	r2, [r3, #37]
1963:.\Generated_Source\PSoC5/cyPm.c ****         cyPmBackup.cmpData[8u]  = CY_GET_REG8(CYREG_CMP1_SW4);
 2078              		.loc 1 1963 0
 2079 00c0 45F6CC23 		movw	r3, #:lower16:1073765068
 2080 00c4 C4F20003 		movt	r3, #:upper16:1073765068
 2081 00c8 1B78     		ldrb	r3, [r3, #0]
 2082 00ca DAB2     		uxtb	r2, r3
 2083 00cc 40F20003 		movw	r3, #:lower16:cyPmBackup
 2084 00d0 C0F20003 		movt	r3, #:upper16:cyPmBackup
 2085 00d4 83F82620 		strb	r2, [r3, #38]
1964:.\Generated_Source\PSoC5/cyPm.c ****         cyPmBackup.cmpData[9u]  = CY_GET_REG8(CYREG_CMP1_SW6);
 2086              		.loc 1 1964 0
 2087 00d8 45F6CE23 		movw	r3, #:lower16:1073765070
 2088 00dc C4F20003 		movt	r3, #:upper16:1073765070
 2089 00e0 1B78     		ldrb	r3, [r3, #0]
 2090 00e2 DAB2     		uxtb	r2, r3
 2091 00e4 40F20003 		movw	r3, #:lower16:cyPmBackup
 2092 00e8 C0F20003 		movt	r3, #:upper16:cyPmBackup
 2093 00ec 83F82720 		strb	r2, [r3, #39]
1965:.\Generated_Source\PSoC5/cyPm.c **** 
1966:.\Generated_Source\PSoC5/cyPm.c ****         cyPmBackup.cmpData[10u] = CY_GET_REG8(CYREG_CMP2_SW0);
 2094              		.loc 1 1966 0
 2095 00f0 45F6D023 		movw	r3, #:lower16:1073765072
 2096 00f4 C4F20003 		movt	r3, #:upper16:1073765072
 2097 00f8 1B78     		ldrb	r3, [r3, #0]
 2098 00fa DAB2     		uxtb	r2, r3
 2099 00fc 40F20003 		movw	r3, #:lower16:cyPmBackup
 2100 0100 C0F20003 		movt	r3, #:upper16:cyPmBackup
 2101 0104 83F82820 		strb	r2, [r3, #40]
1967:.\Generated_Source\PSoC5/cyPm.c ****         cyPmBackup.cmpData[11u] = CY_GET_REG8(CYREG_CMP2_SW2);
 2102              		.loc 1 1967 0
 2103 0108 45F6D223 		movw	r3, #:lower16:1073765074
 2104 010c C4F20003 		movt	r3, #:upper16:1073765074
 2105 0110 1B78     		ldrb	r3, [r3, #0]
 2106 0112 DAB2     		uxtb	r2, r3
 2107 0114 40F20003 		movw	r3, #:lower16:cyPmBackup
 2108 0118 C0F20003 		movt	r3, #:upper16:cyPmBackup
 2109 011c 83F82920 		strb	r2, [r3, #41]
1968:.\Generated_Source\PSoC5/cyPm.c ****         cyPmBackup.cmpData[12u] = CY_GET_REG8(CYREG_CMP2_SW3);
 2110              		.loc 1 1968 0
 2111 0120 45F6D323 		movw	r3, #:lower16:1073765075
 2112 0124 C4F20003 		movt	r3, #:upper16:1073765075
 2113 0128 1B78     		ldrb	r3, [r3, #0]
 2114 012a DAB2     		uxtb	r2, r3
 2115 012c 40F20003 		movw	r3, #:lower16:cyPmBackup
 2116 0130 C0F20003 		movt	r3, #:upper16:cyPmBackup
 2117 0134 83F82A20 		strb	r2, [r3, #42]
1969:.\Generated_Source\PSoC5/cyPm.c ****         cyPmBackup.cmpData[13u] = CY_GET_REG8(CYREG_CMP2_SW4);
 2118              		.loc 1 1969 0
 2119 0138 45F6D423 		movw	r3, #:lower16:1073765076
 2120 013c C4F20003 		movt	r3, #:upper16:1073765076
 2121 0140 1B78     		ldrb	r3, [r3, #0]
 2122 0142 DAB2     		uxtb	r2, r3
 2123 0144 40F20003 		movw	r3, #:lower16:cyPmBackup
ARM GAS  C:\Users\rmcgarel\AppData\Local\Temp\ccv1YA4O.s 			page 73


 2124 0148 C0F20003 		movt	r3, #:upper16:cyPmBackup
 2125 014c 83F82B20 		strb	r2, [r3, #43]
1970:.\Generated_Source\PSoC5/cyPm.c ****         cyPmBackup.cmpData[14u] = CY_GET_REG8(CYREG_CMP2_SW6);
 2126              		.loc 1 1970 0
 2127 0150 45F6D623 		movw	r3, #:lower16:1073765078
 2128 0154 C4F20003 		movt	r3, #:upper16:1073765078
 2129 0158 1B78     		ldrb	r3, [r3, #0]
 2130 015a DAB2     		uxtb	r2, r3
 2131 015c 40F20003 		movw	r3, #:lower16:cyPmBackup
 2132 0160 C0F20003 		movt	r3, #:upper16:cyPmBackup
 2133 0164 83F82C20 		strb	r2, [r3, #44]
1971:.\Generated_Source\PSoC5/cyPm.c **** 
1972:.\Generated_Source\PSoC5/cyPm.c ****         cyPmBackup.cmpData[15u] = CY_GET_REG8(CYREG_CMP3_SW0);
 2134              		.loc 1 1972 0
 2135 0168 45F6D823 		movw	r3, #:lower16:1073765080
 2136 016c C4F20003 		movt	r3, #:upper16:1073765080
 2137 0170 1B78     		ldrb	r3, [r3, #0]
 2138 0172 DAB2     		uxtb	r2, r3
 2139 0174 40F20003 		movw	r3, #:lower16:cyPmBackup
 2140 0178 C0F20003 		movt	r3, #:upper16:cyPmBackup
 2141 017c 83F82D20 		strb	r2, [r3, #45]
1973:.\Generated_Source\PSoC5/cyPm.c ****         cyPmBackup.cmpData[16u] = CY_GET_REG8(CYREG_CMP3_SW2);
 2142              		.loc 1 1973 0
 2143 0180 45F6DA23 		movw	r3, #:lower16:1073765082
 2144 0184 C4F20003 		movt	r3, #:upper16:1073765082
 2145 0188 1B78     		ldrb	r3, [r3, #0]
 2146 018a DAB2     		uxtb	r2, r3
 2147 018c 40F20003 		movw	r3, #:lower16:cyPmBackup
 2148 0190 C0F20003 		movt	r3, #:upper16:cyPmBackup
 2149 0194 83F82E20 		strb	r2, [r3, #46]
1974:.\Generated_Source\PSoC5/cyPm.c ****         cyPmBackup.cmpData[17u] = CY_GET_REG8(CYREG_CMP3_SW3);
 2150              		.loc 1 1974 0
 2151 0198 45F6DB23 		movw	r3, #:lower16:1073765083
 2152 019c C4F20003 		movt	r3, #:upper16:1073765083
 2153 01a0 1B78     		ldrb	r3, [r3, #0]
 2154 01a2 DAB2     		uxtb	r2, r3
 2155 01a4 40F20003 		movw	r3, #:lower16:cyPmBackup
 2156 01a8 C0F20003 		movt	r3, #:upper16:cyPmBackup
 2157 01ac 83F82F20 		strb	r2, [r3, #47]
1975:.\Generated_Source\PSoC5/cyPm.c ****         cyPmBackup.cmpData[18u] = CY_GET_REG8(CYREG_CMP3_SW4);
 2158              		.loc 1 1975 0
 2159 01b0 45F6DC23 		movw	r3, #:lower16:1073765084
 2160 01b4 C4F20003 		movt	r3, #:upper16:1073765084
 2161 01b8 1B78     		ldrb	r3, [r3, #0]
 2162 01ba DAB2     		uxtb	r2, r3
 2163 01bc 40F20003 		movw	r3, #:lower16:cyPmBackup
 2164 01c0 C0F20003 		movt	r3, #:upper16:cyPmBackup
 2165 01c4 83F83020 		strb	r2, [r3, #48]
1976:.\Generated_Source\PSoC5/cyPm.c ****         cyPmBackup.cmpData[19u] = CY_GET_REG8(CYREG_CMP3_SW6);
 2166              		.loc 1 1976 0
 2167 01c8 45F6DE23 		movw	r3, #:lower16:1073765086
 2168 01cc C4F20003 		movt	r3, #:upper16:1073765086
 2169 01d0 1B78     		ldrb	r3, [r3, #0]
 2170 01d2 DAB2     		uxtb	r2, r3
 2171 01d4 40F20003 		movw	r3, #:lower16:cyPmBackup
 2172 01d8 C0F20003 		movt	r3, #:upper16:cyPmBackup
 2173 01dc 83F83120 		strb	r2, [r3, #49]
ARM GAS  C:\Users\rmcgarel\AppData\Local\Temp\ccv1YA4O.s 			page 74


1977:.\Generated_Source\PSoC5/cyPm.c **** 
1978:.\Generated_Source\PSoC5/cyPm.c **** 
1979:.\Generated_Source\PSoC5/cyPm.c ****         /* Clear CMP routing registers */
1980:.\Generated_Source\PSoC5/cyPm.c ****         CY_SET_REG8(CYREG_CMP0_SW0 , 0u);
 2174              		.loc 1 1980 0
 2175 01e0 45F6C023 		movw	r3, #:lower16:1073765056
 2176 01e4 C4F20003 		movt	r3, #:upper16:1073765056
 2177 01e8 4FF00002 		mov	r2, #0
 2178 01ec 1A70     		strb	r2, [r3, #0]
1981:.\Generated_Source\PSoC5/cyPm.c ****         CY_SET_REG8(CYREG_CMP0_SW2 , 0u);
 2179              		.loc 1 1981 0
 2180 01ee 45F6C223 		movw	r3, #:lower16:1073765058
 2181 01f2 C4F20003 		movt	r3, #:upper16:1073765058
 2182 01f6 4FF00002 		mov	r2, #0
 2183 01fa 1A70     		strb	r2, [r3, #0]
1982:.\Generated_Source\PSoC5/cyPm.c ****         CY_SET_REG8(CYREG_CMP0_SW3 , 0u);
 2184              		.loc 1 1982 0
 2185 01fc 45F6C323 		movw	r3, #:lower16:1073765059
 2186 0200 C4F20003 		movt	r3, #:upper16:1073765059
 2187 0204 4FF00002 		mov	r2, #0
 2188 0208 1A70     		strb	r2, [r3, #0]
1983:.\Generated_Source\PSoC5/cyPm.c ****         CY_SET_REG8(CYREG_CMP0_SW4 , 0u);
 2189              		.loc 1 1983 0
 2190 020a 45F6C423 		movw	r3, #:lower16:1073765060
 2191 020e C4F20003 		movt	r3, #:upper16:1073765060
 2192 0212 4FF00002 		mov	r2, #0
 2193 0216 1A70     		strb	r2, [r3, #0]
1984:.\Generated_Source\PSoC5/cyPm.c ****         CY_SET_REG8(CYREG_CMP0_SW6 , 0u);
 2194              		.loc 1 1984 0
 2195 0218 45F6C623 		movw	r3, #:lower16:1073765062
 2196 021c C4F20003 		movt	r3, #:upper16:1073765062
 2197 0220 4FF00002 		mov	r2, #0
 2198 0224 1A70     		strb	r2, [r3, #0]
1985:.\Generated_Source\PSoC5/cyPm.c **** 
1986:.\Generated_Source\PSoC5/cyPm.c ****         CY_SET_REG8(CYREG_CMP1_SW0 , 0u);
 2199              		.loc 1 1986 0
 2200 0226 45F6C823 		movw	r3, #:lower16:1073765064
 2201 022a C4F20003 		movt	r3, #:upper16:1073765064
 2202 022e 4FF00002 		mov	r2, #0
 2203 0232 1A70     		strb	r2, [r3, #0]
1987:.\Generated_Source\PSoC5/cyPm.c ****         CY_SET_REG8(CYREG_CMP1_SW2 , 0u);
 2204              		.loc 1 1987 0
 2205 0234 45F6CA23 		movw	r3, #:lower16:1073765066
 2206 0238 C4F20003 		movt	r3, #:upper16:1073765066
 2207 023c 4FF00002 		mov	r2, #0
 2208 0240 1A70     		strb	r2, [r3, #0]
1988:.\Generated_Source\PSoC5/cyPm.c ****         CY_SET_REG8(CYREG_CMP1_SW3 , 0u);
 2209              		.loc 1 1988 0
 2210 0242 45F6CB23 		movw	r3, #:lower16:1073765067
 2211 0246 C4F20003 		movt	r3, #:upper16:1073765067
 2212 024a 4FF00002 		mov	r2, #0
 2213 024e 1A70     		strb	r2, [r3, #0]
1989:.\Generated_Source\PSoC5/cyPm.c ****         CY_SET_REG8(CYREG_CMP1_SW4 , 0u);
 2214              		.loc 1 1989 0
 2215 0250 45F6CC23 		movw	r3, #:lower16:1073765068
 2216 0254 C4F20003 		movt	r3, #:upper16:1073765068
 2217 0258 4FF00002 		mov	r2, #0
ARM GAS  C:\Users\rmcgarel\AppData\Local\Temp\ccv1YA4O.s 			page 75


 2218 025c 1A70     		strb	r2, [r3, #0]
1990:.\Generated_Source\PSoC5/cyPm.c ****         CY_SET_REG8(CYREG_CMP1_SW6 , 0u);
 2219              		.loc 1 1990 0
 2220 025e 45F6CE23 		movw	r3, #:lower16:1073765070
 2221 0262 C4F20003 		movt	r3, #:upper16:1073765070
 2222 0266 4FF00002 		mov	r2, #0
 2223 026a 1A70     		strb	r2, [r3, #0]
1991:.\Generated_Source\PSoC5/cyPm.c **** 
1992:.\Generated_Source\PSoC5/cyPm.c ****         CY_SET_REG8(CYREG_CMP2_SW0 , 0u);
 2224              		.loc 1 1992 0
 2225 026c 45F6D023 		movw	r3, #:lower16:1073765072
 2226 0270 C4F20003 		movt	r3, #:upper16:1073765072
 2227 0274 4FF00002 		mov	r2, #0
 2228 0278 1A70     		strb	r2, [r3, #0]
1993:.\Generated_Source\PSoC5/cyPm.c ****         CY_SET_REG8(CYREG_CMP2_SW2 , 0u);
 2229              		.loc 1 1993 0
 2230 027a 45F6D223 		movw	r3, #:lower16:1073765074
 2231 027e C4F20003 		movt	r3, #:upper16:1073765074
 2232 0282 4FF00002 		mov	r2, #0
 2233 0286 1A70     		strb	r2, [r3, #0]
1994:.\Generated_Source\PSoC5/cyPm.c ****         CY_SET_REG8(CYREG_CMP2_SW3 , 0u);
 2234              		.loc 1 1994 0
 2235 0288 45F6D323 		movw	r3, #:lower16:1073765075
 2236 028c C4F20003 		movt	r3, #:upper16:1073765075
 2237 0290 4FF00002 		mov	r2, #0
 2238 0294 1A70     		strb	r2, [r3, #0]
1995:.\Generated_Source\PSoC5/cyPm.c ****         CY_SET_REG8(CYREG_CMP2_SW4 , 0u);
 2239              		.loc 1 1995 0
 2240 0296 45F6D423 		movw	r3, #:lower16:1073765076
 2241 029a C4F20003 		movt	r3, #:upper16:1073765076
 2242 029e 4FF00002 		mov	r2, #0
 2243 02a2 1A70     		strb	r2, [r3, #0]
1996:.\Generated_Source\PSoC5/cyPm.c ****         CY_SET_REG8(CYREG_CMP2_SW6 , 0u);
 2244              		.loc 1 1996 0
 2245 02a4 45F6D623 		movw	r3, #:lower16:1073765078
 2246 02a8 C4F20003 		movt	r3, #:upper16:1073765078
 2247 02ac 4FF00002 		mov	r2, #0
 2248 02b0 1A70     		strb	r2, [r3, #0]
1997:.\Generated_Source\PSoC5/cyPm.c **** 
1998:.\Generated_Source\PSoC5/cyPm.c ****         CY_SET_REG8(CYREG_CMP3_SW0 , 0u);
 2249              		.loc 1 1998 0
 2250 02b2 45F6D823 		movw	r3, #:lower16:1073765080
 2251 02b6 C4F20003 		movt	r3, #:upper16:1073765080
 2252 02ba 4FF00002 		mov	r2, #0
 2253 02be 1A70     		strb	r2, [r3, #0]
1999:.\Generated_Source\PSoC5/cyPm.c ****         CY_SET_REG8(CYREG_CMP3_SW2 , 0u);
 2254              		.loc 1 1999 0
 2255 02c0 45F6DA23 		movw	r3, #:lower16:1073765082
 2256 02c4 C4F20003 		movt	r3, #:upper16:1073765082
 2257 02c8 4FF00002 		mov	r2, #0
 2258 02cc 1A70     		strb	r2, [r3, #0]
2000:.\Generated_Source\PSoC5/cyPm.c ****         CY_SET_REG8(CYREG_CMP3_SW3 , 0u);
 2259              		.loc 1 2000 0
 2260 02ce 45F6DB23 		movw	r3, #:lower16:1073765083
 2261 02d2 C4F20003 		movt	r3, #:upper16:1073765083
 2262 02d6 4FF00002 		mov	r2, #0
 2263 02da 1A70     		strb	r2, [r3, #0]
ARM GAS  C:\Users\rmcgarel\AppData\Local\Temp\ccv1YA4O.s 			page 76


2001:.\Generated_Source\PSoC5/cyPm.c ****         CY_SET_REG8(CYREG_CMP3_SW4 , 0u);
 2264              		.loc 1 2001 0
 2265 02dc 45F6DC23 		movw	r3, #:lower16:1073765084
 2266 02e0 C4F20003 		movt	r3, #:upper16:1073765084
 2267 02e4 4FF00002 		mov	r2, #0
 2268 02e8 1A70     		strb	r2, [r3, #0]
2002:.\Generated_Source\PSoC5/cyPm.c ****         CY_SET_REG8(CYREG_CMP3_SW6 , 0u);
 2269              		.loc 1 2002 0
 2270 02ea 45F6DE23 		movw	r3, #:lower16:1073765086
 2271 02ee C4F20003 		movt	r3, #:upper16:1073765086
 2272 02f2 4FF00002 		mov	r2, #0
 2273 02f6 1A70     		strb	r2, [r3, #0]
2003:.\Generated_Source\PSoC5/cyPm.c **** 
2004:.\Generated_Source\PSoC5/cyPm.c **** 
2005:.\Generated_Source\PSoC5/cyPm.c ****         /* Save DAC routing registers */
2006:.\Generated_Source\PSoC5/cyPm.c ****         cyPmBackup.dacData[0u]  = CY_GET_REG8(CYREG_DAC0_SW0);
 2274              		.loc 1 2006 0
 2275 02f8 45F68023 		movw	r3, #:lower16:1073764992
 2276 02fc C4F20003 		movt	r3, #:upper16:1073764992
 2277 0300 1B78     		ldrb	r3, [r3, #0]
 2278 0302 DAB2     		uxtb	r2, r3
 2279 0304 40F20003 		movw	r3, #:lower16:cyPmBackup
 2280 0308 C0F20003 		movt	r3, #:upper16:cyPmBackup
 2281 030c 83F83220 		strb	r2, [r3, #50]
2007:.\Generated_Source\PSoC5/cyPm.c ****         cyPmBackup.dacData[1u]  = CY_GET_REG8(CYREG_DAC0_SW2);
 2282              		.loc 1 2007 0
 2283 0310 45F68223 		movw	r3, #:lower16:1073764994
 2284 0314 C4F20003 		movt	r3, #:upper16:1073764994
 2285 0318 1B78     		ldrb	r3, [r3, #0]
 2286 031a DAB2     		uxtb	r2, r3
 2287 031c 40F20003 		movw	r3, #:lower16:cyPmBackup
 2288 0320 C0F20003 		movt	r3, #:upper16:cyPmBackup
 2289 0324 83F83320 		strb	r2, [r3, #51]
2008:.\Generated_Source\PSoC5/cyPm.c ****         cyPmBackup.dacData[2u]  = CY_GET_REG8(CYREG_DAC0_SW3);
 2290              		.loc 1 2008 0
 2291 0328 45F68323 		movw	r3, #:lower16:1073764995
 2292 032c C4F20003 		movt	r3, #:upper16:1073764995
 2293 0330 1B78     		ldrb	r3, [r3, #0]
 2294 0332 DAB2     		uxtb	r2, r3
 2295 0334 40F20003 		movw	r3, #:lower16:cyPmBackup
 2296 0338 C0F20003 		movt	r3, #:upper16:cyPmBackup
 2297 033c 83F83420 		strb	r2, [r3, #52]
2009:.\Generated_Source\PSoC5/cyPm.c ****         cyPmBackup.dacData[3u]  = CY_GET_REG8(CYREG_DAC0_SW4);
 2298              		.loc 1 2009 0
 2299 0340 45F68423 		movw	r3, #:lower16:1073764996
 2300 0344 C4F20003 		movt	r3, #:upper16:1073764996
 2301 0348 1B78     		ldrb	r3, [r3, #0]
 2302 034a DAB2     		uxtb	r2, r3
 2303 034c 40F20003 		movw	r3, #:lower16:cyPmBackup
 2304 0350 C0F20003 		movt	r3, #:upper16:cyPmBackup
 2305 0354 83F83520 		strb	r2, [r3, #53]
2010:.\Generated_Source\PSoC5/cyPm.c **** 
2011:.\Generated_Source\PSoC5/cyPm.c ****         cyPmBackup.dacData[4u]  = CY_GET_REG8(CYREG_DAC1_SW0);
 2306              		.loc 1 2011 0
 2307 0358 45F68823 		movw	r3, #:lower16:1073765000
 2308 035c C4F20003 		movt	r3, #:upper16:1073765000
 2309 0360 1B78     		ldrb	r3, [r3, #0]
ARM GAS  C:\Users\rmcgarel\AppData\Local\Temp\ccv1YA4O.s 			page 77


 2310 0362 DAB2     		uxtb	r2, r3
 2311 0364 40F20003 		movw	r3, #:lower16:cyPmBackup
 2312 0368 C0F20003 		movt	r3, #:upper16:cyPmBackup
 2313 036c 83F83620 		strb	r2, [r3, #54]
2012:.\Generated_Source\PSoC5/cyPm.c ****         cyPmBackup.dacData[5u]  = CY_GET_REG8(CYREG_DAC1_SW2);
 2314              		.loc 1 2012 0
 2315 0370 45F68A23 		movw	r3, #:lower16:1073765002
 2316 0374 C4F20003 		movt	r3, #:upper16:1073765002
 2317 0378 1B78     		ldrb	r3, [r3, #0]
 2318 037a DAB2     		uxtb	r2, r3
 2319 037c 40F20003 		movw	r3, #:lower16:cyPmBackup
 2320 0380 C0F20003 		movt	r3, #:upper16:cyPmBackup
 2321 0384 83F83720 		strb	r2, [r3, #55]
2013:.\Generated_Source\PSoC5/cyPm.c ****         cyPmBackup.dacData[6u]  = CY_GET_REG8(CYREG_DAC1_SW3);
 2322              		.loc 1 2013 0
 2323 0388 45F68B23 		movw	r3, #:lower16:1073765003
 2324 038c C4F20003 		movt	r3, #:upper16:1073765003
 2325 0390 1B78     		ldrb	r3, [r3, #0]
 2326 0392 DAB2     		uxtb	r2, r3
 2327 0394 40F20003 		movw	r3, #:lower16:cyPmBackup
 2328 0398 C0F20003 		movt	r3, #:upper16:cyPmBackup
 2329 039c 83F83820 		strb	r2, [r3, #56]
2014:.\Generated_Source\PSoC5/cyPm.c ****         cyPmBackup.dacData[7u]  = CY_GET_REG8(CYREG_DAC1_SW4);
 2330              		.loc 1 2014 0
 2331 03a0 45F68C23 		movw	r3, #:lower16:1073765004
 2332 03a4 C4F20003 		movt	r3, #:upper16:1073765004
 2333 03a8 1B78     		ldrb	r3, [r3, #0]
 2334 03aa DAB2     		uxtb	r2, r3
 2335 03ac 40F20003 		movw	r3, #:lower16:cyPmBackup
 2336 03b0 C0F20003 		movt	r3, #:upper16:cyPmBackup
 2337 03b4 83F83920 		strb	r2, [r3, #57]
2015:.\Generated_Source\PSoC5/cyPm.c **** 
2016:.\Generated_Source\PSoC5/cyPm.c ****         cyPmBackup.dacData[8u]  = CY_GET_REG8(CYREG_DAC2_SW0);
 2338              		.loc 1 2016 0
 2339 03b8 45F69023 		movw	r3, #:lower16:1073765008
 2340 03bc C4F20003 		movt	r3, #:upper16:1073765008
 2341 03c0 1B78     		ldrb	r3, [r3, #0]
 2342 03c2 DAB2     		uxtb	r2, r3
 2343 03c4 40F20003 		movw	r3, #:lower16:cyPmBackup
 2344 03c8 C0F20003 		movt	r3, #:upper16:cyPmBackup
 2345 03cc 83F83A20 		strb	r2, [r3, #58]
2017:.\Generated_Source\PSoC5/cyPm.c ****         cyPmBackup.dacData[9u]  = CY_GET_REG8(CYREG_DAC2_SW2);
 2346              		.loc 1 2017 0
 2347 03d0 45F69223 		movw	r3, #:lower16:1073765010
 2348 03d4 C4F20003 		movt	r3, #:upper16:1073765010
 2349 03d8 1B78     		ldrb	r3, [r3, #0]
 2350 03da DAB2     		uxtb	r2, r3
 2351 03dc 40F20003 		movw	r3, #:lower16:cyPmBackup
 2352 03e0 C0F20003 		movt	r3, #:upper16:cyPmBackup
 2353 03e4 83F83B20 		strb	r2, [r3, #59]
2018:.\Generated_Source\PSoC5/cyPm.c ****         cyPmBackup.dacData[10u] = CY_GET_REG8(CYREG_DAC2_SW3);
 2354              		.loc 1 2018 0
 2355 03e8 45F69323 		movw	r3, #:lower16:1073765011
 2356 03ec C4F20003 		movt	r3, #:upper16:1073765011
 2357 03f0 1B78     		ldrb	r3, [r3, #0]
 2358 03f2 DAB2     		uxtb	r2, r3
 2359 03f4 40F20003 		movw	r3, #:lower16:cyPmBackup
ARM GAS  C:\Users\rmcgarel\AppData\Local\Temp\ccv1YA4O.s 			page 78


 2360 03f8 C0F20003 		movt	r3, #:upper16:cyPmBackup
 2361 03fc 83F83C20 		strb	r2, [r3, #60]
2019:.\Generated_Source\PSoC5/cyPm.c ****         cyPmBackup.dacData[11u] = CY_GET_REG8(CYREG_DAC2_SW4);
 2362              		.loc 1 2019 0
 2363 0400 45F69423 		movw	r3, #:lower16:1073765012
 2364 0404 C4F20003 		movt	r3, #:upper16:1073765012
 2365 0408 1B78     		ldrb	r3, [r3, #0]
 2366 040a DAB2     		uxtb	r2, r3
 2367 040c 40F20003 		movw	r3, #:lower16:cyPmBackup
 2368 0410 C0F20003 		movt	r3, #:upper16:cyPmBackup
 2369 0414 83F83D20 		strb	r2, [r3, #61]
2020:.\Generated_Source\PSoC5/cyPm.c **** 
2021:.\Generated_Source\PSoC5/cyPm.c ****         cyPmBackup.dacData[12u] = CY_GET_REG8(CYREG_DAC3_SW0);
 2370              		.loc 1 2021 0
 2371 0418 45F69823 		movw	r3, #:lower16:1073765016
 2372 041c C4F20003 		movt	r3, #:upper16:1073765016
 2373 0420 1B78     		ldrb	r3, [r3, #0]
 2374 0422 DAB2     		uxtb	r2, r3
 2375 0424 40F20003 		movw	r3, #:lower16:cyPmBackup
 2376 0428 C0F20003 		movt	r3, #:upper16:cyPmBackup
 2377 042c 83F83E20 		strb	r2, [r3, #62]
2022:.\Generated_Source\PSoC5/cyPm.c ****         cyPmBackup.dacData[13u] = CY_GET_REG8(CYREG_DAC3_SW2);
 2378              		.loc 1 2022 0
 2379 0430 45F69A23 		movw	r3, #:lower16:1073765018
 2380 0434 C4F20003 		movt	r3, #:upper16:1073765018
 2381 0438 1B78     		ldrb	r3, [r3, #0]
 2382 043a DAB2     		uxtb	r2, r3
 2383 043c 40F20003 		movw	r3, #:lower16:cyPmBackup
 2384 0440 C0F20003 		movt	r3, #:upper16:cyPmBackup
 2385 0444 83F83F20 		strb	r2, [r3, #63]
2023:.\Generated_Source\PSoC5/cyPm.c ****         cyPmBackup.dacData[14u] = CY_GET_REG8(CYREG_DAC3_SW3);
 2386              		.loc 1 2023 0
 2387 0448 45F69B23 		movw	r3, #:lower16:1073765019
 2388 044c C4F20003 		movt	r3, #:upper16:1073765019
 2389 0450 1B78     		ldrb	r3, [r3, #0]
 2390 0452 DAB2     		uxtb	r2, r3
 2391 0454 40F20003 		movw	r3, #:lower16:cyPmBackup
 2392 0458 C0F20003 		movt	r3, #:upper16:cyPmBackup
 2393 045c 83F84020 		strb	r2, [r3, #64]
2024:.\Generated_Source\PSoC5/cyPm.c ****         cyPmBackup.dacData[15u] = CY_GET_REG8(CYREG_DAC3_SW4);
 2394              		.loc 1 2024 0
 2395 0460 45F69C23 		movw	r3, #:lower16:1073765020
 2396 0464 C4F20003 		movt	r3, #:upper16:1073765020
 2397 0468 1B78     		ldrb	r3, [r3, #0]
 2398 046a DAB2     		uxtb	r2, r3
 2399 046c 40F20003 		movw	r3, #:lower16:cyPmBackup
 2400 0470 C0F20003 		movt	r3, #:upper16:cyPmBackup
 2401 0474 83F84120 		strb	r2, [r3, #65]
2025:.\Generated_Source\PSoC5/cyPm.c **** 
2026:.\Generated_Source\PSoC5/cyPm.c ****         /* Clear DAC routing registers */
2027:.\Generated_Source\PSoC5/cyPm.c ****         CY_SET_REG8(CYREG_DAC0_SW0 , 0u);
 2402              		.loc 1 2027 0
 2403 0478 45F68023 		movw	r3, #:lower16:1073764992
 2404 047c C4F20003 		movt	r3, #:upper16:1073764992
 2405 0480 4FF00002 		mov	r2, #0
 2406 0484 1A70     		strb	r2, [r3, #0]
2028:.\Generated_Source\PSoC5/cyPm.c ****         CY_SET_REG8(CYREG_DAC0_SW2 , 0u);
ARM GAS  C:\Users\rmcgarel\AppData\Local\Temp\ccv1YA4O.s 			page 79


 2407              		.loc 1 2028 0
 2408 0486 45F68223 		movw	r3, #:lower16:1073764994
 2409 048a C4F20003 		movt	r3, #:upper16:1073764994
 2410 048e 4FF00002 		mov	r2, #0
 2411 0492 1A70     		strb	r2, [r3, #0]
2029:.\Generated_Source\PSoC5/cyPm.c ****         CY_SET_REG8(CYREG_DAC0_SW3 , 0u);
 2412              		.loc 1 2029 0
 2413 0494 45F68323 		movw	r3, #:lower16:1073764995
 2414 0498 C4F20003 		movt	r3, #:upper16:1073764995
 2415 049c 4FF00002 		mov	r2, #0
 2416 04a0 1A70     		strb	r2, [r3, #0]
2030:.\Generated_Source\PSoC5/cyPm.c ****         CY_SET_REG8(CYREG_DAC0_SW4 , 0u);
 2417              		.loc 1 2030 0
 2418 04a2 45F68423 		movw	r3, #:lower16:1073764996
 2419 04a6 C4F20003 		movt	r3, #:upper16:1073764996
 2420 04aa 4FF00002 		mov	r2, #0
 2421 04ae 1A70     		strb	r2, [r3, #0]
2031:.\Generated_Source\PSoC5/cyPm.c **** 
2032:.\Generated_Source\PSoC5/cyPm.c ****         CY_SET_REG8(CYREG_DAC1_SW0 , 0u);
 2422              		.loc 1 2032 0
 2423 04b0 45F68823 		movw	r3, #:lower16:1073765000
 2424 04b4 C4F20003 		movt	r3, #:upper16:1073765000
 2425 04b8 4FF00002 		mov	r2, #0
 2426 04bc 1A70     		strb	r2, [r3, #0]
2033:.\Generated_Source\PSoC5/cyPm.c ****         CY_SET_REG8(CYREG_DAC1_SW2 , 0u);
 2427              		.loc 1 2033 0
 2428 04be 45F68A23 		movw	r3, #:lower16:1073765002
 2429 04c2 C4F20003 		movt	r3, #:upper16:1073765002
 2430 04c6 4FF00002 		mov	r2, #0
 2431 04ca 1A70     		strb	r2, [r3, #0]
2034:.\Generated_Source\PSoC5/cyPm.c ****         CY_SET_REG8(CYREG_DAC1_SW3 , 0u);
 2432              		.loc 1 2034 0
 2433 04cc 45F68B23 		movw	r3, #:lower16:1073765003
 2434 04d0 C4F20003 		movt	r3, #:upper16:1073765003
 2435 04d4 4FF00002 		mov	r2, #0
 2436 04d8 1A70     		strb	r2, [r3, #0]
2035:.\Generated_Source\PSoC5/cyPm.c ****         CY_SET_REG8(CYREG_DAC1_SW4 , 0u);
 2437              		.loc 1 2035 0
 2438 04da 45F68C23 		movw	r3, #:lower16:1073765004
 2439 04de C4F20003 		movt	r3, #:upper16:1073765004
 2440 04e2 4FF00002 		mov	r2, #0
 2441 04e6 1A70     		strb	r2, [r3, #0]
2036:.\Generated_Source\PSoC5/cyPm.c **** 
2037:.\Generated_Source\PSoC5/cyPm.c ****         CY_SET_REG8(CYREG_DAC2_SW0 , 0u);
 2442              		.loc 1 2037 0
 2443 04e8 45F69023 		movw	r3, #:lower16:1073765008
 2444 04ec C4F20003 		movt	r3, #:upper16:1073765008
 2445 04f0 4FF00002 		mov	r2, #0
 2446 04f4 1A70     		strb	r2, [r3, #0]
2038:.\Generated_Source\PSoC5/cyPm.c ****         CY_SET_REG8(CYREG_DAC2_SW2 , 0u);
 2447              		.loc 1 2038 0
 2448 04f6 45F69223 		movw	r3, #:lower16:1073765010
 2449 04fa C4F20003 		movt	r3, #:upper16:1073765010
 2450 04fe 4FF00002 		mov	r2, #0
 2451 0502 1A70     		strb	r2, [r3, #0]
2039:.\Generated_Source\PSoC5/cyPm.c ****         CY_SET_REG8(CYREG_DAC2_SW3 , 0u);
 2452              		.loc 1 2039 0
ARM GAS  C:\Users\rmcgarel\AppData\Local\Temp\ccv1YA4O.s 			page 80


 2453 0504 45F69323 		movw	r3, #:lower16:1073765011
 2454 0508 C4F20003 		movt	r3, #:upper16:1073765011
 2455 050c 4FF00002 		mov	r2, #0
 2456 0510 1A70     		strb	r2, [r3, #0]
2040:.\Generated_Source\PSoC5/cyPm.c ****         CY_SET_REG8(CYREG_DAC2_SW4 , 0u);
 2457              		.loc 1 2040 0
 2458 0512 45F69423 		movw	r3, #:lower16:1073765012
 2459 0516 C4F20003 		movt	r3, #:upper16:1073765012
 2460 051a 4FF00002 		mov	r2, #0
 2461 051e 1A70     		strb	r2, [r3, #0]
2041:.\Generated_Source\PSoC5/cyPm.c **** 
2042:.\Generated_Source\PSoC5/cyPm.c ****         CY_SET_REG8(CYREG_DAC3_SW0 , 0u);
 2462              		.loc 1 2042 0
 2463 0520 45F69823 		movw	r3, #:lower16:1073765016
 2464 0524 C4F20003 		movt	r3, #:upper16:1073765016
 2465 0528 4FF00002 		mov	r2, #0
 2466 052c 1A70     		strb	r2, [r3, #0]
2043:.\Generated_Source\PSoC5/cyPm.c ****         CY_SET_REG8(CYREG_DAC3_SW2 , 0u);
 2467              		.loc 1 2043 0
 2468 052e 45F69A23 		movw	r3, #:lower16:1073765018
 2469 0532 C4F20003 		movt	r3, #:upper16:1073765018
 2470 0536 4FF00002 		mov	r2, #0
 2471 053a 1A70     		strb	r2, [r3, #0]
2044:.\Generated_Source\PSoC5/cyPm.c ****         CY_SET_REG8(CYREG_DAC3_SW3 , 0u);
 2472              		.loc 1 2044 0
 2473 053c 45F69B23 		movw	r3, #:lower16:1073765019
 2474 0540 C4F20003 		movt	r3, #:upper16:1073765019
 2475 0544 4FF00002 		mov	r2, #0
 2476 0548 1A70     		strb	r2, [r3, #0]
2045:.\Generated_Source\PSoC5/cyPm.c ****         CY_SET_REG8(CYREG_DAC3_SW4 , 0u);
 2477              		.loc 1 2045 0
 2478 054a 45F69C23 		movw	r3, #:lower16:1073765020
 2479 054e C4F20003 		movt	r3, #:upper16:1073765020
 2480 0552 4FF00002 		mov	r2, #0
 2481 0556 1A70     		strb	r2, [r3, #0]
2046:.\Generated_Source\PSoC5/cyPm.c **** 
2047:.\Generated_Source\PSoC5/cyPm.c **** 
2048:.\Generated_Source\PSoC5/cyPm.c ****         /* Save DSM routing registers */
2049:.\Generated_Source\PSoC5/cyPm.c ****         cyPmBackup.dsmData[0u]  = CY_GET_REG8(CYREG_DSM0_SW0);
 2482              		.loc 1 2049 0
 2483 0558 45F60033 		movw	r3, #:lower16:1073765120
 2484 055c C4F20003 		movt	r3, #:upper16:1073765120
 2485 0560 1B78     		ldrb	r3, [r3, #0]
 2486 0562 DAB2     		uxtb	r2, r3
 2487 0564 40F20003 		movw	r3, #:lower16:cyPmBackup
 2488 0568 C0F20003 		movt	r3, #:upper16:cyPmBackup
 2489 056c 83F84220 		strb	r2, [r3, #66]
2050:.\Generated_Source\PSoC5/cyPm.c ****         cyPmBackup.dsmData[1u]  = CY_GET_REG8(CYREG_DSM0_SW2);
 2490              		.loc 1 2050 0
 2491 0570 45F60233 		movw	r3, #:lower16:1073765122
 2492 0574 C4F20003 		movt	r3, #:upper16:1073765122
 2493 0578 1B78     		ldrb	r3, [r3, #0]
 2494 057a DAB2     		uxtb	r2, r3
 2495 057c 40F20003 		movw	r3, #:lower16:cyPmBackup
 2496 0580 C0F20003 		movt	r3, #:upper16:cyPmBackup
 2497 0584 83F84320 		strb	r2, [r3, #67]
2051:.\Generated_Source\PSoC5/cyPm.c ****         cyPmBackup.dsmData[2u]  = CY_GET_REG8(CYREG_DSM0_SW3);
ARM GAS  C:\Users\rmcgarel\AppData\Local\Temp\ccv1YA4O.s 			page 81


 2498              		.loc 1 2051 0
 2499 0588 45F60333 		movw	r3, #:lower16:1073765123
 2500 058c C4F20003 		movt	r3, #:upper16:1073765123
 2501 0590 1B78     		ldrb	r3, [r3, #0]
 2502 0592 DAB2     		uxtb	r2, r3
 2503 0594 40F20003 		movw	r3, #:lower16:cyPmBackup
 2504 0598 C0F20003 		movt	r3, #:upper16:cyPmBackup
 2505 059c 83F84420 		strb	r2, [r3, #68]
2052:.\Generated_Source\PSoC5/cyPm.c ****         cyPmBackup.dsmData[3u]  = CY_GET_REG8(CYREG_DSM0_SW4);
 2506              		.loc 1 2052 0
 2507 05a0 45F60433 		movw	r3, #:lower16:1073765124
 2508 05a4 C4F20003 		movt	r3, #:upper16:1073765124
 2509 05a8 1B78     		ldrb	r3, [r3, #0]
 2510 05aa DAB2     		uxtb	r2, r3
 2511 05ac 40F20003 		movw	r3, #:lower16:cyPmBackup
 2512 05b0 C0F20003 		movt	r3, #:upper16:cyPmBackup
 2513 05b4 83F84520 		strb	r2, [r3, #69]
2053:.\Generated_Source\PSoC5/cyPm.c ****         cyPmBackup.dsmData[4u]  = CY_GET_REG8(CYREG_DSM0_SW6);
 2514              		.loc 1 2053 0
 2515 05b8 45F60633 		movw	r3, #:lower16:1073765126
 2516 05bc C4F20003 		movt	r3, #:upper16:1073765126
 2517 05c0 1B78     		ldrb	r3, [r3, #0]
 2518 05c2 DAB2     		uxtb	r2, r3
 2519 05c4 40F20003 		movw	r3, #:lower16:cyPmBackup
 2520 05c8 C0F20003 		movt	r3, #:upper16:cyPmBackup
 2521 05cc 83F84620 		strb	r2, [r3, #70]
2054:.\Generated_Source\PSoC5/cyPm.c **** 
2055:.\Generated_Source\PSoC5/cyPm.c ****         /* Clear DSM routing registers */
2056:.\Generated_Source\PSoC5/cyPm.c ****         CY_SET_REG8(CYREG_DSM0_SW0 , 0u);
 2522              		.loc 1 2056 0
 2523 05d0 45F60033 		movw	r3, #:lower16:1073765120
 2524 05d4 C4F20003 		movt	r3, #:upper16:1073765120
 2525 05d8 4FF00002 		mov	r2, #0
 2526 05dc 1A70     		strb	r2, [r3, #0]
2057:.\Generated_Source\PSoC5/cyPm.c ****         CY_SET_REG8(CYREG_DSM0_SW2 , 0u);
 2527              		.loc 1 2057 0
 2528 05de 45F60233 		movw	r3, #:lower16:1073765122
 2529 05e2 C4F20003 		movt	r3, #:upper16:1073765122
 2530 05e6 4FF00002 		mov	r2, #0
 2531 05ea 1A70     		strb	r2, [r3, #0]
2058:.\Generated_Source\PSoC5/cyPm.c ****         CY_SET_REG8(CYREG_DSM0_SW3 , 0u);
 2532              		.loc 1 2058 0
 2533 05ec 45F60333 		movw	r3, #:lower16:1073765123
 2534 05f0 C4F20003 		movt	r3, #:upper16:1073765123
 2535 05f4 4FF00002 		mov	r2, #0
 2536 05f8 1A70     		strb	r2, [r3, #0]
2059:.\Generated_Source\PSoC5/cyPm.c ****         CY_SET_REG8(CYREG_DSM0_SW4 , 0u);
 2537              		.loc 1 2059 0
 2538 05fa 45F60433 		movw	r3, #:lower16:1073765124
 2539 05fe C4F20003 		movt	r3, #:upper16:1073765124
 2540 0602 4FF00002 		mov	r2, #0
 2541 0606 1A70     		strb	r2, [r3, #0]
2060:.\Generated_Source\PSoC5/cyPm.c ****         CY_SET_REG8(CYREG_DSM0_SW6 , 0u);
 2542              		.loc 1 2060 0
 2543 0608 45F60633 		movw	r3, #:lower16:1073765126
 2544 060c C4F20003 		movt	r3, #:upper16:1073765126
 2545 0610 4FF00002 		mov	r2, #0
ARM GAS  C:\Users\rmcgarel\AppData\Local\Temp\ccv1YA4O.s 			page 82


 2546 0614 1A70     		strb	r2, [r3, #0]
2061:.\Generated_Source\PSoC5/cyPm.c **** 
2062:.\Generated_Source\PSoC5/cyPm.c **** 
2063:.\Generated_Source\PSoC5/cyPm.c ****         /* Save SAR routing registers */
2064:.\Generated_Source\PSoC5/cyPm.c ****         cyPmBackup.sarData[0u]  = CY_GET_REG8(CYREG_SAR0_SW0);
 2547              		.loc 1 2064 0
 2548 0616 45F62033 		movw	r3, #:lower16:1073765152
 2549 061a C4F20003 		movt	r3, #:upper16:1073765152
 2550 061e 1B78     		ldrb	r3, [r3, #0]
 2551 0620 DAB2     		uxtb	r2, r3
 2552 0622 40F20003 		movw	r3, #:lower16:cyPmBackup
 2553 0626 C0F20003 		movt	r3, #:upper16:cyPmBackup
 2554 062a 83F84720 		strb	r2, [r3, #71]
2065:.\Generated_Source\PSoC5/cyPm.c ****         cyPmBackup.sarData[1u]  = CY_GET_REG8(CYREG_SAR0_SW2);
 2555              		.loc 1 2065 0
 2556 062e 45F62233 		movw	r3, #:lower16:1073765154
 2557 0632 C4F20003 		movt	r3, #:upper16:1073765154
 2558 0636 1B78     		ldrb	r3, [r3, #0]
 2559 0638 DAB2     		uxtb	r2, r3
 2560 063a 40F20003 		movw	r3, #:lower16:cyPmBackup
 2561 063e C0F20003 		movt	r3, #:upper16:cyPmBackup
 2562 0642 83F84820 		strb	r2, [r3, #72]
2066:.\Generated_Source\PSoC5/cyPm.c ****         cyPmBackup.sarData[2u]  = CY_GET_REG8(CYREG_SAR0_SW3);
 2563              		.loc 1 2066 0
 2564 0646 45F62333 		movw	r3, #:lower16:1073765155
 2565 064a C4F20003 		movt	r3, #:upper16:1073765155
 2566 064e 1B78     		ldrb	r3, [r3, #0]
 2567 0650 DAB2     		uxtb	r2, r3
 2568 0652 40F20003 		movw	r3, #:lower16:cyPmBackup
 2569 0656 C0F20003 		movt	r3, #:upper16:cyPmBackup
 2570 065a 83F84920 		strb	r2, [r3, #73]
2067:.\Generated_Source\PSoC5/cyPm.c ****         cyPmBackup.sarData[3u]  = CY_GET_REG8(CYREG_SAR0_SW4);
 2571              		.loc 1 2067 0
 2572 065e 45F62433 		movw	r3, #:lower16:1073765156
 2573 0662 C4F20003 		movt	r3, #:upper16:1073765156
 2574 0666 1B78     		ldrb	r3, [r3, #0]
 2575 0668 DAB2     		uxtb	r2, r3
 2576 066a 40F20003 		movw	r3, #:lower16:cyPmBackup
 2577 066e C0F20003 		movt	r3, #:upper16:cyPmBackup
 2578 0672 83F84A20 		strb	r2, [r3, #74]
2068:.\Generated_Source\PSoC5/cyPm.c ****         cyPmBackup.sarData[4u]  = CY_GET_REG8(CYREG_SAR0_SW6);
 2579              		.loc 1 2068 0
 2580 0676 45F62633 		movw	r3, #:lower16:1073765158
 2581 067a C4F20003 		movt	r3, #:upper16:1073765158
 2582 067e 1B78     		ldrb	r3, [r3, #0]
 2583 0680 DAB2     		uxtb	r2, r3
 2584 0682 40F20003 		movw	r3, #:lower16:cyPmBackup
 2585 0686 C0F20003 		movt	r3, #:upper16:cyPmBackup
 2586 068a 83F84B20 		strb	r2, [r3, #75]
2069:.\Generated_Source\PSoC5/cyPm.c **** 
2070:.\Generated_Source\PSoC5/cyPm.c ****         cyPmBackup.sarData[5u]  = CY_GET_REG8(CYREG_SAR1_SW0);
 2587              		.loc 1 2070 0
 2588 068e 45F62833 		movw	r3, #:lower16:1073765160
 2589 0692 C4F20003 		movt	r3, #:upper16:1073765160
 2590 0696 1B78     		ldrb	r3, [r3, #0]
 2591 0698 DAB2     		uxtb	r2, r3
 2592 069a 40F20003 		movw	r3, #:lower16:cyPmBackup
ARM GAS  C:\Users\rmcgarel\AppData\Local\Temp\ccv1YA4O.s 			page 83


 2593 069e C0F20003 		movt	r3, #:upper16:cyPmBackup
 2594 06a2 83F84C20 		strb	r2, [r3, #76]
2071:.\Generated_Source\PSoC5/cyPm.c ****         cyPmBackup.sarData[6u]  = CY_GET_REG8(CYREG_SAR1_SW2);
 2595              		.loc 1 2071 0
 2596 06a6 45F62A33 		movw	r3, #:lower16:1073765162
 2597 06aa C4F20003 		movt	r3, #:upper16:1073765162
 2598 06ae 1B78     		ldrb	r3, [r3, #0]
 2599 06b0 DAB2     		uxtb	r2, r3
 2600 06b2 40F20003 		movw	r3, #:lower16:cyPmBackup
 2601 06b6 C0F20003 		movt	r3, #:upper16:cyPmBackup
 2602 06ba 83F84D20 		strb	r2, [r3, #77]
2072:.\Generated_Source\PSoC5/cyPm.c ****         cyPmBackup.sarData[7u]  = CY_GET_REG8(CYREG_SAR1_SW3);
 2603              		.loc 1 2072 0
 2604 06be 45F62B33 		movw	r3, #:lower16:1073765163
 2605 06c2 C4F20003 		movt	r3, #:upper16:1073765163
 2606 06c6 1B78     		ldrb	r3, [r3, #0]
 2607 06c8 DAB2     		uxtb	r2, r3
 2608 06ca 40F20003 		movw	r3, #:lower16:cyPmBackup
 2609 06ce C0F20003 		movt	r3, #:upper16:cyPmBackup
 2610 06d2 83F84E20 		strb	r2, [r3, #78]
2073:.\Generated_Source\PSoC5/cyPm.c ****         cyPmBackup.sarData[8u]  = CY_GET_REG8(CYREG_SAR1_SW4);
 2611              		.loc 1 2073 0
 2612 06d6 45F62C33 		movw	r3, #:lower16:1073765164
 2613 06da C4F20003 		movt	r3, #:upper16:1073765164
 2614 06de 1B78     		ldrb	r3, [r3, #0]
 2615 06e0 DAB2     		uxtb	r2, r3
 2616 06e2 40F20003 		movw	r3, #:lower16:cyPmBackup
 2617 06e6 C0F20003 		movt	r3, #:upper16:cyPmBackup
 2618 06ea 83F84F20 		strb	r2, [r3, #79]
2074:.\Generated_Source\PSoC5/cyPm.c ****         cyPmBackup.sarData[9u]  = CY_GET_REG8(CYREG_SAR1_SW6);
 2619              		.loc 1 2074 0
 2620 06ee 45F62E33 		movw	r3, #:lower16:1073765166
 2621 06f2 C4F20003 		movt	r3, #:upper16:1073765166
 2622 06f6 1B78     		ldrb	r3, [r3, #0]
 2623 06f8 DAB2     		uxtb	r2, r3
 2624 06fa 40F20003 		movw	r3, #:lower16:cyPmBackup
 2625 06fe C0F20003 		movt	r3, #:upper16:cyPmBackup
 2626 0702 83F85020 		strb	r2, [r3, #80]
2075:.\Generated_Source\PSoC5/cyPm.c **** 
2076:.\Generated_Source\PSoC5/cyPm.c **** 
2077:.\Generated_Source\PSoC5/cyPm.c ****         /* Clear SAR routing registers */
2078:.\Generated_Source\PSoC5/cyPm.c ****         CY_SET_REG8(CYREG_SAR0_SW0 , 0u);
 2627              		.loc 1 2078 0
 2628 0706 45F62033 		movw	r3, #:lower16:1073765152
 2629 070a C4F20003 		movt	r3, #:upper16:1073765152
 2630 070e 4FF00002 		mov	r2, #0
 2631 0712 1A70     		strb	r2, [r3, #0]
2079:.\Generated_Source\PSoC5/cyPm.c ****         CY_SET_REG8(CYREG_SAR0_SW2 , 0u);
 2632              		.loc 1 2079 0
 2633 0714 45F62233 		movw	r3, #:lower16:1073765154
 2634 0718 C4F20003 		movt	r3, #:upper16:1073765154
 2635 071c 4FF00002 		mov	r2, #0
 2636 0720 1A70     		strb	r2, [r3, #0]
2080:.\Generated_Source\PSoC5/cyPm.c ****         CY_SET_REG8(CYREG_SAR0_SW3 , 0u);
 2637              		.loc 1 2080 0
 2638 0722 45F62333 		movw	r3, #:lower16:1073765155
 2639 0726 C4F20003 		movt	r3, #:upper16:1073765155
ARM GAS  C:\Users\rmcgarel\AppData\Local\Temp\ccv1YA4O.s 			page 84


 2640 072a 4FF00002 		mov	r2, #0
 2641 072e 1A70     		strb	r2, [r3, #0]
2081:.\Generated_Source\PSoC5/cyPm.c ****         CY_SET_REG8(CYREG_SAR0_SW4 , 0u);
 2642              		.loc 1 2081 0
 2643 0730 45F62433 		movw	r3, #:lower16:1073765156
 2644 0734 C4F20003 		movt	r3, #:upper16:1073765156
 2645 0738 4FF00002 		mov	r2, #0
 2646 073c 1A70     		strb	r2, [r3, #0]
2082:.\Generated_Source\PSoC5/cyPm.c ****         CY_SET_REG8(CYREG_SAR0_SW6 , 0u);
 2647              		.loc 1 2082 0
 2648 073e 45F62633 		movw	r3, #:lower16:1073765158
 2649 0742 C4F20003 		movt	r3, #:upper16:1073765158
 2650 0746 4FF00002 		mov	r2, #0
 2651 074a 1A70     		strb	r2, [r3, #0]
2083:.\Generated_Source\PSoC5/cyPm.c **** 
2084:.\Generated_Source\PSoC5/cyPm.c ****         CY_SET_REG8(CYREG_SAR1_SW0 , 0u);
 2652              		.loc 1 2084 0
 2653 074c 45F62833 		movw	r3, #:lower16:1073765160
 2654 0750 C4F20003 		movt	r3, #:upper16:1073765160
 2655 0754 4FF00002 		mov	r2, #0
 2656 0758 1A70     		strb	r2, [r3, #0]
2085:.\Generated_Source\PSoC5/cyPm.c ****         CY_SET_REG8(CYREG_SAR1_SW2 , 0u);
 2657              		.loc 1 2085 0
 2658 075a 45F62A33 		movw	r3, #:lower16:1073765162
 2659 075e C4F20003 		movt	r3, #:upper16:1073765162
 2660 0762 4FF00002 		mov	r2, #0
 2661 0766 1A70     		strb	r2, [r3, #0]
2086:.\Generated_Source\PSoC5/cyPm.c ****         CY_SET_REG8(CYREG_SAR1_SW3 , 0u);
 2662              		.loc 1 2086 0
 2663 0768 45F62B33 		movw	r3, #:lower16:1073765163
 2664 076c C4F20003 		movt	r3, #:upper16:1073765163
 2665 0770 4FF00002 		mov	r2, #0
 2666 0774 1A70     		strb	r2, [r3, #0]
2087:.\Generated_Source\PSoC5/cyPm.c ****         CY_SET_REG8(CYREG_SAR1_SW4 , 0u);
 2667              		.loc 1 2087 0
 2668 0776 45F62C33 		movw	r3, #:lower16:1073765164
 2669 077a C4F20003 		movt	r3, #:upper16:1073765164
 2670 077e 4FF00002 		mov	r2, #0
 2671 0782 1A70     		strb	r2, [r3, #0]
2088:.\Generated_Source\PSoC5/cyPm.c ****         CY_SET_REG8(CYREG_SAR1_SW6 , 0u);
 2672              		.loc 1 2088 0
 2673 0784 45F62E33 		movw	r3, #:lower16:1073765166
 2674 0788 C4F20003 		movt	r3, #:upper16:1073765166
 2675 078c 4FF00002 		mov	r2, #0
 2676 0790 1A70     		strb	r2, [r3, #0]
2089:.\Generated_Source\PSoC5/cyPm.c **** 
2090:.\Generated_Source\PSoC5/cyPm.c ****     #endif  /* (CY_PSOC5A) */
2091:.\Generated_Source\PSoC5/cyPm.c **** 
2092:.\Generated_Source\PSoC5/cyPm.c **** 
2093:.\Generated_Source\PSoC5/cyPm.c ****     #if(CY_PSOC3 || CY_PSOC5A || CY_PSOC5LP)
2094:.\Generated_Source\PSoC5/cyPm.c **** 
2095:.\Generated_Source\PSoC5/cyPm.c ****         /* Save SC/CT routing registers */
2096:.\Generated_Source\PSoC5/cyPm.c ****         cyPmBackup.scctData[0u]   = CY_GET_REG8(CYREG_SC0_SW0 );
 2677              		.loc 1 2096 0
 2678 0792 45F60023 		movw	r3, #:lower16:1073764864
 2679 0796 C4F20003 		movt	r3, #:upper16:1073764864
 2680 079a 1B78     		ldrb	r3, [r3, #0]
ARM GAS  C:\Users\rmcgarel\AppData\Local\Temp\ccv1YA4O.s 			page 85


 2681 079c DAB2     		uxtb	r2, r3
 2682 079e 40F20003 		movw	r3, #:lower16:cyPmBackup
 2683 07a2 C0F20003 		movt	r3, #:upper16:cyPmBackup
 2684 07a6 9A70     		strb	r2, [r3, #2]
2097:.\Generated_Source\PSoC5/cyPm.c ****         cyPmBackup.scctData[1u]   = CY_GET_REG8(CYREG_SC0_SW2 );
 2685              		.loc 1 2097 0
 2686 07a8 45F60223 		movw	r3, #:lower16:1073764866
 2687 07ac C4F20003 		movt	r3, #:upper16:1073764866
 2688 07b0 1B78     		ldrb	r3, [r3, #0]
 2689 07b2 DAB2     		uxtb	r2, r3
 2690 07b4 40F20003 		movw	r3, #:lower16:cyPmBackup
 2691 07b8 C0F20003 		movt	r3, #:upper16:cyPmBackup
 2692 07bc DA70     		strb	r2, [r3, #3]
2098:.\Generated_Source\PSoC5/cyPm.c ****         cyPmBackup.scctData[2u]   = CY_GET_REG8(CYREG_SC0_SW3 );
 2693              		.loc 1 2098 0
 2694 07be 45F60323 		movw	r3, #:lower16:1073764867
 2695 07c2 C4F20003 		movt	r3, #:upper16:1073764867
 2696 07c6 1B78     		ldrb	r3, [r3, #0]
 2697 07c8 DAB2     		uxtb	r2, r3
 2698 07ca 40F20003 		movw	r3, #:lower16:cyPmBackup
 2699 07ce C0F20003 		movt	r3, #:upper16:cyPmBackup
 2700 07d2 1A71     		strb	r2, [r3, #4]
2099:.\Generated_Source\PSoC5/cyPm.c ****         cyPmBackup.scctData[3u]   = CY_GET_REG8(CYREG_SC0_SW4 );
 2701              		.loc 1 2099 0
 2702 07d4 45F60423 		movw	r3, #:lower16:1073764868
 2703 07d8 C4F20003 		movt	r3, #:upper16:1073764868
 2704 07dc 1B78     		ldrb	r3, [r3, #0]
 2705 07de DAB2     		uxtb	r2, r3
 2706 07e0 40F20003 		movw	r3, #:lower16:cyPmBackup
 2707 07e4 C0F20003 		movt	r3, #:upper16:cyPmBackup
 2708 07e8 5A71     		strb	r2, [r3, #5]
2100:.\Generated_Source\PSoC5/cyPm.c ****         cyPmBackup.scctData[4u]   = CY_GET_REG8(CYREG_SC0_SW6 );
 2709              		.loc 1 2100 0
 2710 07ea 45F60623 		movw	r3, #:lower16:1073764870
 2711 07ee C4F20003 		movt	r3, #:upper16:1073764870
 2712 07f2 1B78     		ldrb	r3, [r3, #0]
 2713 07f4 DAB2     		uxtb	r2, r3
 2714 07f6 40F20003 		movw	r3, #:lower16:cyPmBackup
 2715 07fa C0F20003 		movt	r3, #:upper16:cyPmBackup
 2716 07fe 9A71     		strb	r2, [r3, #6]
2101:.\Generated_Source\PSoC5/cyPm.c ****         cyPmBackup.scctData[5u]   = CY_GET_REG8(CYREG_SC0_SW8 );
 2717              		.loc 1 2101 0
 2718 0800 45F60823 		movw	r3, #:lower16:1073764872
 2719 0804 C4F20003 		movt	r3, #:upper16:1073764872
 2720 0808 1B78     		ldrb	r3, [r3, #0]
 2721 080a DAB2     		uxtb	r2, r3
 2722 080c 40F20003 		movw	r3, #:lower16:cyPmBackup
 2723 0810 C0F20003 		movt	r3, #:upper16:cyPmBackup
 2724 0814 DA71     		strb	r2, [r3, #7]
2102:.\Generated_Source\PSoC5/cyPm.c ****         cyPmBackup.scctData[6u]   = CY_GET_REG8(CYREG_SC0_SW10);
 2725              		.loc 1 2102 0
 2726 0816 45F60A23 		movw	r3, #:lower16:1073764874
 2727 081a C4F20003 		movt	r3, #:upper16:1073764874
 2728 081e 1B78     		ldrb	r3, [r3, #0]
 2729 0820 DAB2     		uxtb	r2, r3
 2730 0822 40F20003 		movw	r3, #:lower16:cyPmBackup
 2731 0826 C0F20003 		movt	r3, #:upper16:cyPmBackup
ARM GAS  C:\Users\rmcgarel\AppData\Local\Temp\ccv1YA4O.s 			page 86


 2732 082a 1A72     		strb	r2, [r3, #8]
2103:.\Generated_Source\PSoC5/cyPm.c **** 
2104:.\Generated_Source\PSoC5/cyPm.c ****         cyPmBackup.scctData[7u]   = CY_GET_REG8(CYREG_SC1_SW0 );
 2733              		.loc 1 2104 0
 2734 082c 45F61023 		movw	r3, #:lower16:1073764880
 2735 0830 C4F20003 		movt	r3, #:upper16:1073764880
 2736 0834 1B78     		ldrb	r3, [r3, #0]
 2737 0836 DAB2     		uxtb	r2, r3
 2738 0838 40F20003 		movw	r3, #:lower16:cyPmBackup
 2739 083c C0F20003 		movt	r3, #:upper16:cyPmBackup
 2740 0840 5A72     		strb	r2, [r3, #9]
2105:.\Generated_Source\PSoC5/cyPm.c ****         cyPmBackup.scctData[8u]   = CY_GET_REG8(CYREG_SC1_SW2 );
 2741              		.loc 1 2105 0
 2742 0842 45F61223 		movw	r3, #:lower16:1073764882
 2743 0846 C4F20003 		movt	r3, #:upper16:1073764882
 2744 084a 1B78     		ldrb	r3, [r3, #0]
 2745 084c DAB2     		uxtb	r2, r3
 2746 084e 40F20003 		movw	r3, #:lower16:cyPmBackup
 2747 0852 C0F20003 		movt	r3, #:upper16:cyPmBackup
 2748 0856 9A72     		strb	r2, [r3, #10]
2106:.\Generated_Source\PSoC5/cyPm.c ****         cyPmBackup.scctData[9u]   = CY_GET_REG8(CYREG_SC1_SW3 );
 2749              		.loc 1 2106 0
 2750 0858 45F61323 		movw	r3, #:lower16:1073764883
 2751 085c C4F20003 		movt	r3, #:upper16:1073764883
 2752 0860 1B78     		ldrb	r3, [r3, #0]
 2753 0862 DAB2     		uxtb	r2, r3
 2754 0864 40F20003 		movw	r3, #:lower16:cyPmBackup
 2755 0868 C0F20003 		movt	r3, #:upper16:cyPmBackup
 2756 086c DA72     		strb	r2, [r3, #11]
2107:.\Generated_Source\PSoC5/cyPm.c ****         cyPmBackup.scctData[10u]  = CY_GET_REG8(CYREG_SC1_SW4 );
 2757              		.loc 1 2107 0
 2758 086e 45F61423 		movw	r3, #:lower16:1073764884
 2759 0872 C4F20003 		movt	r3, #:upper16:1073764884
 2760 0876 1B78     		ldrb	r3, [r3, #0]
 2761 0878 DAB2     		uxtb	r2, r3
 2762 087a 40F20003 		movw	r3, #:lower16:cyPmBackup
 2763 087e C0F20003 		movt	r3, #:upper16:cyPmBackup
 2764 0882 1A73     		strb	r2, [r3, #12]
2108:.\Generated_Source\PSoC5/cyPm.c ****         cyPmBackup.scctData[11u]  = CY_GET_REG8(CYREG_SC1_SW6 );
 2765              		.loc 1 2108 0
 2766 0884 45F61623 		movw	r3, #:lower16:1073764886
 2767 0888 C4F20003 		movt	r3, #:upper16:1073764886
 2768 088c 1B78     		ldrb	r3, [r3, #0]
 2769 088e DAB2     		uxtb	r2, r3
 2770 0890 40F20003 		movw	r3, #:lower16:cyPmBackup
 2771 0894 C0F20003 		movt	r3, #:upper16:cyPmBackup
 2772 0898 5A73     		strb	r2, [r3, #13]
2109:.\Generated_Source\PSoC5/cyPm.c ****         cyPmBackup.scctData[12u]  = CY_GET_REG8(CYREG_SC1_SW8 );
 2773              		.loc 1 2109 0
 2774 089a 45F61823 		movw	r3, #:lower16:1073764888
 2775 089e C4F20003 		movt	r3, #:upper16:1073764888
 2776 08a2 1B78     		ldrb	r3, [r3, #0]
 2777 08a4 DAB2     		uxtb	r2, r3
 2778 08a6 40F20003 		movw	r3, #:lower16:cyPmBackup
 2779 08aa C0F20003 		movt	r3, #:upper16:cyPmBackup
 2780 08ae 9A73     		strb	r2, [r3, #14]
2110:.\Generated_Source\PSoC5/cyPm.c ****         cyPmBackup.scctData[13u]  = CY_GET_REG8(CYREG_SC1_SW10);
ARM GAS  C:\Users\rmcgarel\AppData\Local\Temp\ccv1YA4O.s 			page 87


 2781              		.loc 1 2110 0
 2782 08b0 45F61A23 		movw	r3, #:lower16:1073764890
 2783 08b4 C4F20003 		movt	r3, #:upper16:1073764890
 2784 08b8 1B78     		ldrb	r3, [r3, #0]
 2785 08ba DAB2     		uxtb	r2, r3
 2786 08bc 40F20003 		movw	r3, #:lower16:cyPmBackup
 2787 08c0 C0F20003 		movt	r3, #:upper16:cyPmBackup
 2788 08c4 DA73     		strb	r2, [r3, #15]
2111:.\Generated_Source\PSoC5/cyPm.c **** 
2112:.\Generated_Source\PSoC5/cyPm.c ****         cyPmBackup.scctData[14u]  = CY_GET_REG8(CYREG_SC2_SW0 );
 2789              		.loc 1 2112 0
 2790 08c6 45F62023 		movw	r3, #:lower16:1073764896
 2791 08ca C4F20003 		movt	r3, #:upper16:1073764896
 2792 08ce 1B78     		ldrb	r3, [r3, #0]
 2793 08d0 DAB2     		uxtb	r2, r3
 2794 08d2 40F20003 		movw	r3, #:lower16:cyPmBackup
 2795 08d6 C0F20003 		movt	r3, #:upper16:cyPmBackup
 2796 08da 1A74     		strb	r2, [r3, #16]
2113:.\Generated_Source\PSoC5/cyPm.c ****         cyPmBackup.scctData[15u]  = CY_GET_REG8(CYREG_SC2_SW2 );
 2797              		.loc 1 2113 0
 2798 08dc 45F62223 		movw	r3, #:lower16:1073764898
 2799 08e0 C4F20003 		movt	r3, #:upper16:1073764898
 2800 08e4 1B78     		ldrb	r3, [r3, #0]
 2801 08e6 DAB2     		uxtb	r2, r3
 2802 08e8 40F20003 		movw	r3, #:lower16:cyPmBackup
 2803 08ec C0F20003 		movt	r3, #:upper16:cyPmBackup
 2804 08f0 5A74     		strb	r2, [r3, #17]
2114:.\Generated_Source\PSoC5/cyPm.c ****         cyPmBackup.scctData[16u]  = CY_GET_REG8(CYREG_SC2_SW3 );
 2805              		.loc 1 2114 0
 2806 08f2 45F62323 		movw	r3, #:lower16:1073764899
 2807 08f6 C4F20003 		movt	r3, #:upper16:1073764899
 2808 08fa 1B78     		ldrb	r3, [r3, #0]
 2809 08fc DAB2     		uxtb	r2, r3
 2810 08fe 40F20003 		movw	r3, #:lower16:cyPmBackup
 2811 0902 C0F20003 		movt	r3, #:upper16:cyPmBackup
 2812 0906 9A74     		strb	r2, [r3, #18]
2115:.\Generated_Source\PSoC5/cyPm.c ****         cyPmBackup.scctData[17u]  = CY_GET_REG8(CYREG_SC2_SW4 );
 2813              		.loc 1 2115 0
 2814 0908 45F62423 		movw	r3, #:lower16:1073764900
 2815 090c C4F20003 		movt	r3, #:upper16:1073764900
 2816 0910 1B78     		ldrb	r3, [r3, #0]
 2817 0912 DAB2     		uxtb	r2, r3
 2818 0914 40F20003 		movw	r3, #:lower16:cyPmBackup
 2819 0918 C0F20003 		movt	r3, #:upper16:cyPmBackup
 2820 091c DA74     		strb	r2, [r3, #19]
2116:.\Generated_Source\PSoC5/cyPm.c ****         cyPmBackup.scctData[18u]  = CY_GET_REG8(CYREG_SC2_SW6 );
 2821              		.loc 1 2116 0
 2822 091e 45F62623 		movw	r3, #:lower16:1073764902
 2823 0922 C4F20003 		movt	r3, #:upper16:1073764902
 2824 0926 1B78     		ldrb	r3, [r3, #0]
 2825 0928 DAB2     		uxtb	r2, r3
 2826 092a 40F20003 		movw	r3, #:lower16:cyPmBackup
 2827 092e C0F20003 		movt	r3, #:upper16:cyPmBackup
 2828 0932 1A75     		strb	r2, [r3, #20]
2117:.\Generated_Source\PSoC5/cyPm.c ****         cyPmBackup.scctData[19u]  = CY_GET_REG8(CYREG_SC2_SW8 );
 2829              		.loc 1 2117 0
 2830 0934 45F62823 		movw	r3, #:lower16:1073764904
ARM GAS  C:\Users\rmcgarel\AppData\Local\Temp\ccv1YA4O.s 			page 88


 2831 0938 C4F20003 		movt	r3, #:upper16:1073764904
 2832 093c 1B78     		ldrb	r3, [r3, #0]
 2833 093e DAB2     		uxtb	r2, r3
 2834 0940 40F20003 		movw	r3, #:lower16:cyPmBackup
 2835 0944 C0F20003 		movt	r3, #:upper16:cyPmBackup
 2836 0948 5A75     		strb	r2, [r3, #21]
2118:.\Generated_Source\PSoC5/cyPm.c ****         cyPmBackup.scctData[20u]  = CY_GET_REG8(CYREG_SC2_SW10);
 2837              		.loc 1 2118 0
 2838 094a 45F62A23 		movw	r3, #:lower16:1073764906
 2839 094e C4F20003 		movt	r3, #:upper16:1073764906
 2840 0952 1B78     		ldrb	r3, [r3, #0]
 2841 0954 DAB2     		uxtb	r2, r3
 2842 0956 40F20003 		movw	r3, #:lower16:cyPmBackup
 2843 095a C0F20003 		movt	r3, #:upper16:cyPmBackup
 2844 095e 9A75     		strb	r2, [r3, #22]
2119:.\Generated_Source\PSoC5/cyPm.c **** 
2120:.\Generated_Source\PSoC5/cyPm.c ****         cyPmBackup.scctData[21u]  = CY_GET_REG8(CYREG_SC3_SW0 );
 2845              		.loc 1 2120 0
 2846 0960 45F63023 		movw	r3, #:lower16:1073764912
 2847 0964 C4F20003 		movt	r3, #:upper16:1073764912
 2848 0968 1B78     		ldrb	r3, [r3, #0]
 2849 096a DAB2     		uxtb	r2, r3
 2850 096c 40F20003 		movw	r3, #:lower16:cyPmBackup
 2851 0970 C0F20003 		movt	r3, #:upper16:cyPmBackup
 2852 0974 DA75     		strb	r2, [r3, #23]
2121:.\Generated_Source\PSoC5/cyPm.c ****         cyPmBackup.scctData[22u]  = CY_GET_REG8(CYREG_SC3_SW2 );
 2853              		.loc 1 2121 0
 2854 0976 45F63223 		movw	r3, #:lower16:1073764914
 2855 097a C4F20003 		movt	r3, #:upper16:1073764914
 2856 097e 1B78     		ldrb	r3, [r3, #0]
 2857 0980 DAB2     		uxtb	r2, r3
 2858 0982 40F20003 		movw	r3, #:lower16:cyPmBackup
 2859 0986 C0F20003 		movt	r3, #:upper16:cyPmBackup
 2860 098a 1A76     		strb	r2, [r3, #24]
2122:.\Generated_Source\PSoC5/cyPm.c ****         cyPmBackup.scctData[23u]  = CY_GET_REG8(CYREG_SC3_SW3 );
 2861              		.loc 1 2122 0
 2862 098c 45F63323 		movw	r3, #:lower16:1073764915
 2863 0990 C4F20003 		movt	r3, #:upper16:1073764915
 2864 0994 1B78     		ldrb	r3, [r3, #0]
 2865 0996 DAB2     		uxtb	r2, r3
 2866 0998 40F20003 		movw	r3, #:lower16:cyPmBackup
 2867 099c C0F20003 		movt	r3, #:upper16:cyPmBackup
 2868 09a0 5A76     		strb	r2, [r3, #25]
2123:.\Generated_Source\PSoC5/cyPm.c ****         cyPmBackup.scctData[24u]  = CY_GET_REG8(CYREG_SC3_SW4 );
 2869              		.loc 1 2123 0
 2870 09a2 45F63423 		movw	r3, #:lower16:1073764916
 2871 09a6 C4F20003 		movt	r3, #:upper16:1073764916
 2872 09aa 1B78     		ldrb	r3, [r3, #0]
 2873 09ac DAB2     		uxtb	r2, r3
 2874 09ae 40F20003 		movw	r3, #:lower16:cyPmBackup
 2875 09b2 C0F20003 		movt	r3, #:upper16:cyPmBackup
 2876 09b6 9A76     		strb	r2, [r3, #26]
2124:.\Generated_Source\PSoC5/cyPm.c ****         cyPmBackup.scctData[25u]  = CY_GET_REG8(CYREG_SC3_SW6 );
 2877              		.loc 1 2124 0
 2878 09b8 45F63623 		movw	r3, #:lower16:1073764918
 2879 09bc C4F20003 		movt	r3, #:upper16:1073764918
 2880 09c0 1B78     		ldrb	r3, [r3, #0]
ARM GAS  C:\Users\rmcgarel\AppData\Local\Temp\ccv1YA4O.s 			page 89


 2881 09c2 DAB2     		uxtb	r2, r3
 2882 09c4 40F20003 		movw	r3, #:lower16:cyPmBackup
 2883 09c8 C0F20003 		movt	r3, #:upper16:cyPmBackup
 2884 09cc DA76     		strb	r2, [r3, #27]
2125:.\Generated_Source\PSoC5/cyPm.c ****         cyPmBackup.scctData[26u]  = CY_GET_REG8(CYREG_SC3_SW8 );
 2885              		.loc 1 2125 0
 2886 09ce 45F63823 		movw	r3, #:lower16:1073764920
 2887 09d2 C4F20003 		movt	r3, #:upper16:1073764920
 2888 09d6 1B78     		ldrb	r3, [r3, #0]
 2889 09d8 DAB2     		uxtb	r2, r3
 2890 09da 40F20003 		movw	r3, #:lower16:cyPmBackup
 2891 09de C0F20003 		movt	r3, #:upper16:cyPmBackup
 2892 09e2 1A77     		strb	r2, [r3, #28]
2126:.\Generated_Source\PSoC5/cyPm.c ****         cyPmBackup.scctData[27u]  = CY_GET_REG8(CYREG_SC3_SW10);
 2893              		.loc 1 2126 0
 2894 09e4 45F63A23 		movw	r3, #:lower16:1073764922
 2895 09e8 C4F20003 		movt	r3, #:upper16:1073764922
 2896 09ec 1B78     		ldrb	r3, [r3, #0]
 2897 09ee DAB2     		uxtb	r2, r3
 2898 09f0 40F20003 		movw	r3, #:lower16:cyPmBackup
 2899 09f4 C0F20003 		movt	r3, #:upper16:cyPmBackup
 2900 09f8 5A77     		strb	r2, [r3, #29]
2127:.\Generated_Source\PSoC5/cyPm.c **** 
2128:.\Generated_Source\PSoC5/cyPm.c ****         CY_SET_REG8(CYREG_SC0_SW0 , 0u);
 2901              		.loc 1 2128 0
 2902 09fa 45F60023 		movw	r3, #:lower16:1073764864
 2903 09fe C4F20003 		movt	r3, #:upper16:1073764864
 2904 0a02 4FF00002 		mov	r2, #0
 2905 0a06 1A70     		strb	r2, [r3, #0]
2129:.\Generated_Source\PSoC5/cyPm.c ****         CY_SET_REG8(CYREG_SC0_SW2 , 0u);
 2906              		.loc 1 2129 0
 2907 0a08 45F60223 		movw	r3, #:lower16:1073764866
 2908 0a0c C4F20003 		movt	r3, #:upper16:1073764866
 2909 0a10 4FF00002 		mov	r2, #0
 2910 0a14 1A70     		strb	r2, [r3, #0]
2130:.\Generated_Source\PSoC5/cyPm.c ****         CY_SET_REG8(CYREG_SC0_SW3 , 0u);
 2911              		.loc 1 2130 0
 2912 0a16 45F60323 		movw	r3, #:lower16:1073764867
 2913 0a1a C4F20003 		movt	r3, #:upper16:1073764867
 2914 0a1e 4FF00002 		mov	r2, #0
 2915 0a22 1A70     		strb	r2, [r3, #0]
2131:.\Generated_Source\PSoC5/cyPm.c ****         CY_SET_REG8(CYREG_SC0_SW4 , 0u);
 2916              		.loc 1 2131 0
 2917 0a24 45F60423 		movw	r3, #:lower16:1073764868
 2918 0a28 C4F20003 		movt	r3, #:upper16:1073764868
 2919 0a2c 4FF00002 		mov	r2, #0
 2920 0a30 1A70     		strb	r2, [r3, #0]
2132:.\Generated_Source\PSoC5/cyPm.c ****         CY_SET_REG8(CYREG_SC0_SW6 , 0u);
 2921              		.loc 1 2132 0
 2922 0a32 45F60623 		movw	r3, #:lower16:1073764870
 2923 0a36 C4F20003 		movt	r3, #:upper16:1073764870
 2924 0a3a 4FF00002 		mov	r2, #0
 2925 0a3e 1A70     		strb	r2, [r3, #0]
2133:.\Generated_Source\PSoC5/cyPm.c ****         CY_SET_REG8(CYREG_SC0_SW8 , 0u);
 2926              		.loc 1 2133 0
 2927 0a40 45F60823 		movw	r3, #:lower16:1073764872
 2928 0a44 C4F20003 		movt	r3, #:upper16:1073764872
ARM GAS  C:\Users\rmcgarel\AppData\Local\Temp\ccv1YA4O.s 			page 90


 2929 0a48 4FF00002 		mov	r2, #0
 2930 0a4c 1A70     		strb	r2, [r3, #0]
2134:.\Generated_Source\PSoC5/cyPm.c ****         CY_SET_REG8(CYREG_SC0_SW10, 0u);
 2931              		.loc 1 2134 0
 2932 0a4e 45F60A23 		movw	r3, #:lower16:1073764874
 2933 0a52 C4F20003 		movt	r3, #:upper16:1073764874
 2934 0a56 4FF00002 		mov	r2, #0
 2935 0a5a 1A70     		strb	r2, [r3, #0]
2135:.\Generated_Source\PSoC5/cyPm.c **** 
2136:.\Generated_Source\PSoC5/cyPm.c ****         CY_SET_REG8(CYREG_SC1_SW0 , 0u);
 2936              		.loc 1 2136 0
 2937 0a5c 45F61023 		movw	r3, #:lower16:1073764880
 2938 0a60 C4F20003 		movt	r3, #:upper16:1073764880
 2939 0a64 4FF00002 		mov	r2, #0
 2940 0a68 1A70     		strb	r2, [r3, #0]
2137:.\Generated_Source\PSoC5/cyPm.c ****         CY_SET_REG8(CYREG_SC1_SW2 , 0u);
 2941              		.loc 1 2137 0
 2942 0a6a 45F61223 		movw	r3, #:lower16:1073764882
 2943 0a6e C4F20003 		movt	r3, #:upper16:1073764882
 2944 0a72 4FF00002 		mov	r2, #0
 2945 0a76 1A70     		strb	r2, [r3, #0]
2138:.\Generated_Source\PSoC5/cyPm.c ****         CY_SET_REG8(CYREG_SC1_SW3 , 0u);
 2946              		.loc 1 2138 0
 2947 0a78 45F61323 		movw	r3, #:lower16:1073764883
 2948 0a7c C4F20003 		movt	r3, #:upper16:1073764883
 2949 0a80 4FF00002 		mov	r2, #0
 2950 0a84 1A70     		strb	r2, [r3, #0]
2139:.\Generated_Source\PSoC5/cyPm.c ****         CY_SET_REG8(CYREG_SC1_SW4 , 0u);
 2951              		.loc 1 2139 0
 2952 0a86 45F61423 		movw	r3, #:lower16:1073764884
 2953 0a8a C4F20003 		movt	r3, #:upper16:1073764884
 2954 0a8e 4FF00002 		mov	r2, #0
 2955 0a92 1A70     		strb	r2, [r3, #0]
2140:.\Generated_Source\PSoC5/cyPm.c ****         CY_SET_REG8(CYREG_SC1_SW6 , 0u);
 2956              		.loc 1 2140 0
 2957 0a94 45F61623 		movw	r3, #:lower16:1073764886
 2958 0a98 C4F20003 		movt	r3, #:upper16:1073764886
 2959 0a9c 4FF00002 		mov	r2, #0
 2960 0aa0 1A70     		strb	r2, [r3, #0]
2141:.\Generated_Source\PSoC5/cyPm.c ****         CY_SET_REG8(CYREG_SC1_SW8 , 0u);
 2961              		.loc 1 2141 0
 2962 0aa2 45F61823 		movw	r3, #:lower16:1073764888
 2963 0aa6 C4F20003 		movt	r3, #:upper16:1073764888
 2964 0aaa 4FF00002 		mov	r2, #0
 2965 0aae 1A70     		strb	r2, [r3, #0]
2142:.\Generated_Source\PSoC5/cyPm.c ****         CY_SET_REG8(CYREG_SC1_SW10, 0u);
 2966              		.loc 1 2142 0
 2967 0ab0 45F61A23 		movw	r3, #:lower16:1073764890
 2968 0ab4 C4F20003 		movt	r3, #:upper16:1073764890
 2969 0ab8 4FF00002 		mov	r2, #0
 2970 0abc 1A70     		strb	r2, [r3, #0]
2143:.\Generated_Source\PSoC5/cyPm.c **** 
2144:.\Generated_Source\PSoC5/cyPm.c ****         CY_SET_REG8(CYREG_SC2_SW0 , 0u);
 2971              		.loc 1 2144 0
 2972 0abe 45F62023 		movw	r3, #:lower16:1073764896
 2973 0ac2 C4F20003 		movt	r3, #:upper16:1073764896
 2974 0ac6 4FF00002 		mov	r2, #0
ARM GAS  C:\Users\rmcgarel\AppData\Local\Temp\ccv1YA4O.s 			page 91


 2975 0aca 1A70     		strb	r2, [r3, #0]
2145:.\Generated_Source\PSoC5/cyPm.c ****         CY_SET_REG8(CYREG_SC2_SW2 , 0u);
 2976              		.loc 1 2145 0
 2977 0acc 45F62223 		movw	r3, #:lower16:1073764898
 2978 0ad0 C4F20003 		movt	r3, #:upper16:1073764898
 2979 0ad4 4FF00002 		mov	r2, #0
 2980 0ad8 1A70     		strb	r2, [r3, #0]
2146:.\Generated_Source\PSoC5/cyPm.c ****         CY_SET_REG8(CYREG_SC2_SW3 , 0u);
 2981              		.loc 1 2146 0
 2982 0ada 45F62323 		movw	r3, #:lower16:1073764899
 2983 0ade C4F20003 		movt	r3, #:upper16:1073764899
 2984 0ae2 4FF00002 		mov	r2, #0
 2985 0ae6 1A70     		strb	r2, [r3, #0]
2147:.\Generated_Source\PSoC5/cyPm.c ****         CY_SET_REG8(CYREG_SC2_SW4 , 0u);
 2986              		.loc 1 2147 0
 2987 0ae8 45F62423 		movw	r3, #:lower16:1073764900
 2988 0aec C4F20003 		movt	r3, #:upper16:1073764900
 2989 0af0 4FF00002 		mov	r2, #0
 2990 0af4 1A70     		strb	r2, [r3, #0]
2148:.\Generated_Source\PSoC5/cyPm.c ****         CY_SET_REG8(CYREG_SC2_SW6 , 0u);
 2991              		.loc 1 2148 0
 2992 0af6 45F62623 		movw	r3, #:lower16:1073764902
 2993 0afa C4F20003 		movt	r3, #:upper16:1073764902
 2994 0afe 4FF00002 		mov	r2, #0
 2995 0b02 1A70     		strb	r2, [r3, #0]
2149:.\Generated_Source\PSoC5/cyPm.c ****         CY_SET_REG8(CYREG_SC2_SW8 , 0u);
 2996              		.loc 1 2149 0
 2997 0b04 45F62823 		movw	r3, #:lower16:1073764904
 2998 0b08 C4F20003 		movt	r3, #:upper16:1073764904
 2999 0b0c 4FF00002 		mov	r2, #0
 3000 0b10 1A70     		strb	r2, [r3, #0]
2150:.\Generated_Source\PSoC5/cyPm.c ****         CY_SET_REG8(CYREG_SC2_SW10, 0u);
 3001              		.loc 1 2150 0
 3002 0b12 45F62A23 		movw	r3, #:lower16:1073764906
 3003 0b16 C4F20003 		movt	r3, #:upper16:1073764906
 3004 0b1a 4FF00002 		mov	r2, #0
 3005 0b1e 1A70     		strb	r2, [r3, #0]
2151:.\Generated_Source\PSoC5/cyPm.c **** 
2152:.\Generated_Source\PSoC5/cyPm.c ****         CY_SET_REG8(CYREG_SC3_SW0 , 0u);
 3006              		.loc 1 2152 0
 3007 0b20 45F63023 		movw	r3, #:lower16:1073764912
 3008 0b24 C4F20003 		movt	r3, #:upper16:1073764912
 3009 0b28 4FF00002 		mov	r2, #0
 3010 0b2c 1A70     		strb	r2, [r3, #0]
2153:.\Generated_Source\PSoC5/cyPm.c ****         CY_SET_REG8(CYREG_SC3_SW2 , 0u);
 3011              		.loc 1 2153 0
 3012 0b2e 45F63223 		movw	r3, #:lower16:1073764914
 3013 0b32 C4F20003 		movt	r3, #:upper16:1073764914
 3014 0b36 4FF00002 		mov	r2, #0
 3015 0b3a 1A70     		strb	r2, [r3, #0]
2154:.\Generated_Source\PSoC5/cyPm.c ****         CY_SET_REG8(CYREG_SC3_SW3 , 0u);
 3016              		.loc 1 2154 0
 3017 0b3c 45F63323 		movw	r3, #:lower16:1073764915
 3018 0b40 C4F20003 		movt	r3, #:upper16:1073764915
 3019 0b44 4FF00002 		mov	r2, #0
 3020 0b48 1A70     		strb	r2, [r3, #0]
2155:.\Generated_Source\PSoC5/cyPm.c ****         CY_SET_REG8(CYREG_SC3_SW4 , 0u);
ARM GAS  C:\Users\rmcgarel\AppData\Local\Temp\ccv1YA4O.s 			page 92


 3021              		.loc 1 2155 0
 3022 0b4a 45F63423 		movw	r3, #:lower16:1073764916
 3023 0b4e C4F20003 		movt	r3, #:upper16:1073764916
 3024 0b52 4FF00002 		mov	r2, #0
 3025 0b56 1A70     		strb	r2, [r3, #0]
2156:.\Generated_Source\PSoC5/cyPm.c ****         CY_SET_REG8(CYREG_SC3_SW6 , 0u);
 3026              		.loc 1 2156 0
 3027 0b58 45F63623 		movw	r3, #:lower16:1073764918
 3028 0b5c C4F20003 		movt	r3, #:upper16:1073764918
 3029 0b60 4FF00002 		mov	r2, #0
 3030 0b64 1A70     		strb	r2, [r3, #0]
2157:.\Generated_Source\PSoC5/cyPm.c ****         CY_SET_REG8(CYREG_SC3_SW8 , 0u);
 3031              		.loc 1 2157 0
 3032 0b66 45F63823 		movw	r3, #:lower16:1073764920
 3033 0b6a C4F20003 		movt	r3, #:upper16:1073764920
 3034 0b6e 4FF00002 		mov	r2, #0
 3035 0b72 1A70     		strb	r2, [r3, #0]
2158:.\Generated_Source\PSoC5/cyPm.c ****         CY_SET_REG8(CYREG_SC3_SW10, 0u);
 3036              		.loc 1 2158 0
 3037 0b74 45F63A23 		movw	r3, #:lower16:1073764922
 3038 0b78 C4F20003 		movt	r3, #:upper16:1073764922
 3039 0b7c 4FF00002 		mov	r2, #0
 3040 0b80 1A70     		strb	r2, [r3, #0]
2159:.\Generated_Source\PSoC5/cyPm.c **** 
2160:.\Generated_Source\PSoC5/cyPm.c ****     #endif  /* (CY_PSOC3 || CY_PSOC5A || CY_PSOC5LP) */
2161:.\Generated_Source\PSoC5/cyPm.c **** 
2162:.\Generated_Source\PSoC5/cyPm.c **** 
2163:.\Generated_Source\PSoC5/cyPm.c ****     #if(CY_PSOC3)
2164:.\Generated_Source\PSoC5/cyPm.c **** 
2165:.\Generated_Source\PSoC5/cyPm.c ****         /* Serial Wire Viewer (SWV) workaround */
2166:.\Generated_Source\PSoC5/cyPm.c **** 
2167:.\Generated_Source\PSoC5/cyPm.c ****         /* Disable SWV before entering low power mode */
2168:.\Generated_Source\PSoC5/cyPm.c ****         if(0u != (CY_PM_MLOGIC_DBG_REG & CY_PM_MLOGIC_DBG_SWV_CLK_EN))
2169:.\Generated_Source\PSoC5/cyPm.c ****         {
2170:.\Generated_Source\PSoC5/cyPm.c ****             /* Save SWV clock enabled state */
2171:.\Generated_Source\PSoC5/cyPm.c ****             cyPmBackup.swvClkEnabled = CY_PM_ENABLED;
2172:.\Generated_Source\PSoC5/cyPm.c **** 
2173:.\Generated_Source\PSoC5/cyPm.c ****             /* Save current ports drive mode settings */
2174:.\Generated_Source\PSoC5/cyPm.c ****             cyPmBackup.prt1Dm = CY_PM_PRT1_PC3_REG & ((uint8)(~CY_PM_PRT1_PC3_DM_MASK));
2175:.\Generated_Source\PSoC5/cyPm.c **** 
2176:.\Generated_Source\PSoC5/cyPm.c ****             /* Set drive mode to strong output */
2177:.\Generated_Source\PSoC5/cyPm.c ****             CY_PM_PRT1_PC3_REG = (CY_PM_PRT1_PC3_REG & CY_PM_PRT1_PC3_DM_MASK) |
2178:.\Generated_Source\PSoC5/cyPm.c ****                                 CY_PM_PRT1_PC3_DM_STRONG;
2179:.\Generated_Source\PSoC5/cyPm.c **** 
2180:.\Generated_Source\PSoC5/cyPm.c ****             /* Disable SWV clocks */
2181:.\Generated_Source\PSoC5/cyPm.c ****             CY_PM_MLOGIC_DBG_REG &= ((uint8)(~CY_PM_MLOGIC_DBG_SWV_CLK_EN));
2182:.\Generated_Source\PSoC5/cyPm.c ****         }
2183:.\Generated_Source\PSoC5/cyPm.c ****         else
2184:.\Generated_Source\PSoC5/cyPm.c ****         {
2185:.\Generated_Source\PSoC5/cyPm.c ****             /* Save SWV clock disabled state */
2186:.\Generated_Source\PSoC5/cyPm.c ****             cyPmBackup.swvClkEnabled = CY_PM_DISABLED;
2187:.\Generated_Source\PSoC5/cyPm.c ****         }
2188:.\Generated_Source\PSoC5/cyPm.c **** 
2189:.\Generated_Source\PSoC5/cyPm.c ****     #endif  /* (CY_PSOC3) */
2190:.\Generated_Source\PSoC5/cyPm.c **** 
2191:.\Generated_Source\PSoC5/cyPm.c **** 
2192:.\Generated_Source\PSoC5/cyPm.c ****     /***************************************************************************
ARM GAS  C:\Users\rmcgarel\AppData\Local\Temp\ccv1YA4O.s 			page 93


2193:.\Generated_Source\PSoC5/cyPm.c ****     * Save boost reference and set it to boost's internal by clearing the bit.
2194:.\Generated_Source\PSoC5/cyPm.c ****     * External (chip bandgap) reference is not available in Sleep and Hibernate.
2195:.\Generated_Source\PSoC5/cyPm.c ****     ***************************************************************************/
2196:.\Generated_Source\PSoC5/cyPm.c ****     if(0u != (CY_PM_BOOST_CR2_REG & CY_PM_BOOST_CR2_EREFSEL_EXT))
 3041              		.loc 1 2196 0
 3042 0b82 44F22233 		movw	r3, #:lower16:1073759010
 3043 0b86 C4F20003 		movt	r3, #:upper16:1073759010
 3044 0b8a 1B78     		ldrb	r3, [r3, #0]
 3045 0b8c DBB2     		uxtb	r3, r3
 3046 0b8e 03F00803 		and	r3, r3, #8
 3047 0b92 002B     		cmp	r3, #0
 3048 0b94 15D0     		beq	.L98
2197:.\Generated_Source\PSoC5/cyPm.c ****     {
2198:.\Generated_Source\PSoC5/cyPm.c ****         cyPmBackup.boostRefExt = CY_PM_ENABLED;
 3049              		.loc 1 2198 0
 3050 0b96 40F20003 		movw	r3, #:lower16:cyPmBackup
 3051 0b9a C0F20003 		movt	r3, #:upper16:cyPmBackup
 3052 0b9e 4FF00102 		mov	r2, #1
 3053 0ba2 83F8A520 		strb	r2, [r3, #165]
2199:.\Generated_Source\PSoC5/cyPm.c ****         CY_PM_BOOST_CR2_REG &= ((uint8)(~CY_PM_BOOST_CR2_EREFSEL_EXT));
 3054              		.loc 1 2199 0
 3055 0ba6 44F22233 		movw	r3, #:lower16:1073759010
 3056 0baa C4F20003 		movt	r3, #:upper16:1073759010
 3057 0bae 44F22232 		movw	r2, #:lower16:1073759010
 3058 0bb2 C4F20002 		movt	r2, #:upper16:1073759010
 3059 0bb6 1278     		ldrb	r2, [r2, #0]
 3060 0bb8 D2B2     		uxtb	r2, r2
 3061 0bba 02F0F702 		and	r2, r2, #247
 3062 0bbe 1A70     		strb	r2, [r3, #0]
 3063 0bc0 07E0     		b	.L100
 3064              	.L98:
2200:.\Generated_Source\PSoC5/cyPm.c ****     }
2201:.\Generated_Source\PSoC5/cyPm.c ****     else
2202:.\Generated_Source\PSoC5/cyPm.c ****     {
2203:.\Generated_Source\PSoC5/cyPm.c ****         cyPmBackup.boostRefExt = CY_PM_DISABLED;
 3065              		.loc 1 2203 0
 3066 0bc2 40F20003 		movw	r3, #:lower16:cyPmBackup
 3067 0bc6 C0F20003 		movt	r3, #:upper16:cyPmBackup
 3068 0bca 4FF00002 		mov	r2, #0
 3069 0bce 83F8A520 		strb	r2, [r3, #165]
 3070              	.L100:
2204:.\Generated_Source\PSoC5/cyPm.c ****     }
2205:.\Generated_Source\PSoC5/cyPm.c **** }
 3071              		.loc 1 2205 0
 3072 0bd2 BD46     		mov	sp, r7
 3073 0bd4 80BC     		pop	{r7}
 3074 0bd6 7047     		bx	lr
 3075              		.cfi_endproc
 3076              	.LFE16:
 3077              		.size	CyPmHibSlpSaveSet, .-CyPmHibSlpSaveSet
 3078              		.section	.text.CyPmHibSlpRestore,"ax",%progbits
 3079              		.align	2
 3080              		.thumb
 3081              		.thumb_func
 3082              		.type	CyPmHibSlpRestore, %function
 3083              	CyPmHibSlpRestore:
 3084              	.LFB17:
ARM GAS  C:\Users\rmcgarel\AppData\Local\Temp\ccv1YA4O.s 			page 94


2206:.\Generated_Source\PSoC5/cyPm.c **** 
2207:.\Generated_Source\PSoC5/cyPm.c **** 
2208:.\Generated_Source\PSoC5/cyPm.c **** /*******************************************************************************
2209:.\Generated_Source\PSoC5/cyPm.c **** * Function Name: CyPmHibSlpRestore
2210:.\Generated_Source\PSoC5/cyPm.c **** ********************************************************************************
2211:.\Generated_Source\PSoC5/cyPm.c **** *
2212:.\Generated_Source\PSoC5/cyPm.c **** * Summary:
2213:.\Generated_Source\PSoC5/cyPm.c **** *  This API is used for restoring device configurations after wakeup from Sleep
2214:.\Generated_Source\PSoC5/cyPm.c **** *  and Hibernate low power modes:
2215:.\Generated_Source\PSoC5/cyPm.c **** *  - Restores COMP, VIDAC, DSM and SAR routing connections (PSoC 5)
2216:.\Generated_Source\PSoC5/cyPm.c **** *  - Restores SC/CT routing connections (PSoC 3/5/5LP)
2217:.\Generated_Source\PSoC5/cyPm.c **** *  - Restores enable state of Serial Wire Viewer (SWV) (PSoC 3)
2218:.\Generated_Source\PSoC5/cyPm.c **** *  - Restores initial buzz rate (PSoC 5)
2219:.\Generated_Source\PSoC5/cyPm.c **** *  - Restore boost reference selection
2220:.\Generated_Source\PSoC5/cyPm.c **** *
2221:.\Generated_Source\PSoC5/cyPm.c **** * Parameters:
2222:.\Generated_Source\PSoC5/cyPm.c **** *  None
2223:.\Generated_Source\PSoC5/cyPm.c **** *
2224:.\Generated_Source\PSoC5/cyPm.c **** * Return:
2225:.\Generated_Source\PSoC5/cyPm.c **** *  None
2226:.\Generated_Source\PSoC5/cyPm.c **** *
2227:.\Generated_Source\PSoC5/cyPm.c **** *******************************************************************************/
2228:.\Generated_Source\PSoC5/cyPm.c **** static void CyPmHibSlpRestore(void) 
2229:.\Generated_Source\PSoC5/cyPm.c **** {
 3085              		.loc 1 2229 0
 3086              		.cfi_startproc
 3087              		@ args = 0, pretend = 0, frame = 0
 3088              		@ frame_needed = 1, uses_anonymous_args = 0
 3089              		@ link register save eliminated.
 3090 0000 80B4     		push	{r7}
 3091              	.LCFI41:
 3092              		.cfi_def_cfa_offset 4
 3093 0002 00AF     		add	r7, sp, #0
 3094              		.cfi_offset 7, -4
 3095              	.LCFI42:
 3096              		.cfi_def_cfa_register 7
2230:.\Generated_Source\PSoC5/cyPm.c ****     #if(CY_PSOC5A)
2231:.\Generated_Source\PSoC5/cyPm.c **** 
2232:.\Generated_Source\PSoC5/cyPm.c ****         /* Restore COMP routing registers */
2233:.\Generated_Source\PSoC5/cyPm.c ****         CY_SET_REG8(CYREG_CMP0_SW0 , cyPmBackup.cmpData[0u] );
 3097              		.loc 1 2233 0
 3098 0004 45F6C023 		movw	r3, #:lower16:1073765056
 3099 0008 C4F20003 		movt	r3, #:upper16:1073765056
 3100 000c 40F20002 		movw	r2, #:lower16:cyPmBackup
 3101 0010 C0F20002 		movt	r2, #:upper16:cyPmBackup
 3102 0014 927F     		ldrb	r2, [r2, #30]	@ zero_extendqisi2
 3103 0016 1A70     		strb	r2, [r3, #0]
2234:.\Generated_Source\PSoC5/cyPm.c ****         CY_SET_REG8(CYREG_CMP0_SW2 , cyPmBackup.cmpData[1u] );
 3104              		.loc 1 2234 0
 3105 0018 45F6C223 		movw	r3, #:lower16:1073765058
 3106 001c C4F20003 		movt	r3, #:upper16:1073765058
 3107 0020 40F20002 		movw	r2, #:lower16:cyPmBackup
 3108 0024 C0F20002 		movt	r2, #:upper16:cyPmBackup
 3109 0028 D27F     		ldrb	r2, [r2, #31]	@ zero_extendqisi2
 3110 002a 1A70     		strb	r2, [r3, #0]
2235:.\Generated_Source\PSoC5/cyPm.c ****         CY_SET_REG8(CYREG_CMP0_SW3 , cyPmBackup.cmpData[2u] );
 3111              		.loc 1 2235 0
ARM GAS  C:\Users\rmcgarel\AppData\Local\Temp\ccv1YA4O.s 			page 95


 3112 002c 45F6C323 		movw	r3, #:lower16:1073765059
 3113 0030 C4F20003 		movt	r3, #:upper16:1073765059
 3114 0034 40F20002 		movw	r2, #:lower16:cyPmBackup
 3115 0038 C0F20002 		movt	r2, #:upper16:cyPmBackup
 3116 003c 92F82020 		ldrb	r2, [r2, #32]	@ zero_extendqisi2
 3117 0040 1A70     		strb	r2, [r3, #0]
2236:.\Generated_Source\PSoC5/cyPm.c ****         CY_SET_REG8(CYREG_CMP0_SW4 , cyPmBackup.cmpData[3u] );
 3118              		.loc 1 2236 0
 3119 0042 45F6C423 		movw	r3, #:lower16:1073765060
 3120 0046 C4F20003 		movt	r3, #:upper16:1073765060
 3121 004a 40F20002 		movw	r2, #:lower16:cyPmBackup
 3122 004e C0F20002 		movt	r2, #:upper16:cyPmBackup
 3123 0052 92F82120 		ldrb	r2, [r2, #33]	@ zero_extendqisi2
 3124 0056 1A70     		strb	r2, [r3, #0]
2237:.\Generated_Source\PSoC5/cyPm.c ****         CY_SET_REG8(CYREG_CMP0_SW6 , cyPmBackup.cmpData[4u] );
 3125              		.loc 1 2237 0
 3126 0058 45F6C623 		movw	r3, #:lower16:1073765062
 3127 005c C4F20003 		movt	r3, #:upper16:1073765062
 3128 0060 40F20002 		movw	r2, #:lower16:cyPmBackup
 3129 0064 C0F20002 		movt	r2, #:upper16:cyPmBackup
 3130 0068 92F82220 		ldrb	r2, [r2, #34]	@ zero_extendqisi2
 3131 006c 1A70     		strb	r2, [r3, #0]
2238:.\Generated_Source\PSoC5/cyPm.c **** 
2239:.\Generated_Source\PSoC5/cyPm.c ****         CY_SET_REG8(CYREG_CMP1_SW0 , cyPmBackup.cmpData[5u] );
 3132              		.loc 1 2239 0
 3133 006e 45F6C823 		movw	r3, #:lower16:1073765064
 3134 0072 C4F20003 		movt	r3, #:upper16:1073765064
 3135 0076 40F20002 		movw	r2, #:lower16:cyPmBackup
 3136 007a C0F20002 		movt	r2, #:upper16:cyPmBackup
 3137 007e 92F82320 		ldrb	r2, [r2, #35]	@ zero_extendqisi2
 3138 0082 1A70     		strb	r2, [r3, #0]
2240:.\Generated_Source\PSoC5/cyPm.c ****         CY_SET_REG8(CYREG_CMP1_SW2 , cyPmBackup.cmpData[6u] );
 3139              		.loc 1 2240 0
 3140 0084 45F6CA23 		movw	r3, #:lower16:1073765066
 3141 0088 C4F20003 		movt	r3, #:upper16:1073765066
 3142 008c 40F20002 		movw	r2, #:lower16:cyPmBackup
 3143 0090 C0F20002 		movt	r2, #:upper16:cyPmBackup
 3144 0094 92F82420 		ldrb	r2, [r2, #36]	@ zero_extendqisi2
 3145 0098 1A70     		strb	r2, [r3, #0]
2241:.\Generated_Source\PSoC5/cyPm.c ****         CY_SET_REG8(CYREG_CMP1_SW3 , cyPmBackup.cmpData[7u] );
 3146              		.loc 1 2241 0
 3147 009a 45F6CB23 		movw	r3, #:lower16:1073765067
 3148 009e C4F20003 		movt	r3, #:upper16:1073765067
 3149 00a2 40F20002 		movw	r2, #:lower16:cyPmBackup
 3150 00a6 C0F20002 		movt	r2, #:upper16:cyPmBackup
 3151 00aa 92F82520 		ldrb	r2, [r2, #37]	@ zero_extendqisi2
 3152 00ae 1A70     		strb	r2, [r3, #0]
2242:.\Generated_Source\PSoC5/cyPm.c ****         CY_SET_REG8(CYREG_CMP1_SW4 , cyPmBackup.cmpData[8u] );
 3153              		.loc 1 2242 0
 3154 00b0 45F6CC23 		movw	r3, #:lower16:1073765068
 3155 00b4 C4F20003 		movt	r3, #:upper16:1073765068
 3156 00b8 40F20002 		movw	r2, #:lower16:cyPmBackup
 3157 00bc C0F20002 		movt	r2, #:upper16:cyPmBackup
 3158 00c0 92F82620 		ldrb	r2, [r2, #38]	@ zero_extendqisi2
 3159 00c4 1A70     		strb	r2, [r3, #0]
2243:.\Generated_Source\PSoC5/cyPm.c ****         CY_SET_REG8(CYREG_CMP1_SW6 , cyPmBackup.cmpData[9u] );
 3160              		.loc 1 2243 0
ARM GAS  C:\Users\rmcgarel\AppData\Local\Temp\ccv1YA4O.s 			page 96


 3161 00c6 45F6CE23 		movw	r3, #:lower16:1073765070
 3162 00ca C4F20003 		movt	r3, #:upper16:1073765070
 3163 00ce 40F20002 		movw	r2, #:lower16:cyPmBackup
 3164 00d2 C0F20002 		movt	r2, #:upper16:cyPmBackup
 3165 00d6 92F82720 		ldrb	r2, [r2, #39]	@ zero_extendqisi2
 3166 00da 1A70     		strb	r2, [r3, #0]
2244:.\Generated_Source\PSoC5/cyPm.c **** 
2245:.\Generated_Source\PSoC5/cyPm.c ****         CY_SET_REG8(CYREG_CMP2_SW0 , cyPmBackup.cmpData[10u]);
 3167              		.loc 1 2245 0
 3168 00dc 45F6D023 		movw	r3, #:lower16:1073765072
 3169 00e0 C4F20003 		movt	r3, #:upper16:1073765072
 3170 00e4 40F20002 		movw	r2, #:lower16:cyPmBackup
 3171 00e8 C0F20002 		movt	r2, #:upper16:cyPmBackup
 3172 00ec 92F82820 		ldrb	r2, [r2, #40]	@ zero_extendqisi2
 3173 00f0 1A70     		strb	r2, [r3, #0]
2246:.\Generated_Source\PSoC5/cyPm.c ****         CY_SET_REG8(CYREG_CMP2_SW2 , cyPmBackup.cmpData[11u]);
 3174              		.loc 1 2246 0
 3175 00f2 45F6D223 		movw	r3, #:lower16:1073765074
 3176 00f6 C4F20003 		movt	r3, #:upper16:1073765074
 3177 00fa 40F20002 		movw	r2, #:lower16:cyPmBackup
 3178 00fe C0F20002 		movt	r2, #:upper16:cyPmBackup
 3179 0102 92F82920 		ldrb	r2, [r2, #41]	@ zero_extendqisi2
 3180 0106 1A70     		strb	r2, [r3, #0]
2247:.\Generated_Source\PSoC5/cyPm.c ****         CY_SET_REG8(CYREG_CMP2_SW3 , cyPmBackup.cmpData[12u]);
 3181              		.loc 1 2247 0
 3182 0108 45F6D323 		movw	r3, #:lower16:1073765075
 3183 010c C4F20003 		movt	r3, #:upper16:1073765075
 3184 0110 40F20002 		movw	r2, #:lower16:cyPmBackup
 3185 0114 C0F20002 		movt	r2, #:upper16:cyPmBackup
 3186 0118 92F82A20 		ldrb	r2, [r2, #42]	@ zero_extendqisi2
 3187 011c 1A70     		strb	r2, [r3, #0]
2248:.\Generated_Source\PSoC5/cyPm.c ****         CY_SET_REG8(CYREG_CMP2_SW4 , cyPmBackup.cmpData[13u]);
 3188              		.loc 1 2248 0
 3189 011e 45F6D423 		movw	r3, #:lower16:1073765076
 3190 0122 C4F20003 		movt	r3, #:upper16:1073765076
 3191 0126 40F20002 		movw	r2, #:lower16:cyPmBackup
 3192 012a C0F20002 		movt	r2, #:upper16:cyPmBackup
 3193 012e 92F82B20 		ldrb	r2, [r2, #43]	@ zero_extendqisi2
 3194 0132 1A70     		strb	r2, [r3, #0]
2249:.\Generated_Source\PSoC5/cyPm.c ****         CY_SET_REG8(CYREG_CMP2_SW6 , cyPmBackup.cmpData[14u]);
 3195              		.loc 1 2249 0
 3196 0134 45F6D623 		movw	r3, #:lower16:1073765078
 3197 0138 C4F20003 		movt	r3, #:upper16:1073765078
 3198 013c 40F20002 		movw	r2, #:lower16:cyPmBackup
 3199 0140 C0F20002 		movt	r2, #:upper16:cyPmBackup
 3200 0144 92F82C20 		ldrb	r2, [r2, #44]	@ zero_extendqisi2
 3201 0148 1A70     		strb	r2, [r3, #0]
2250:.\Generated_Source\PSoC5/cyPm.c **** 
2251:.\Generated_Source\PSoC5/cyPm.c ****         CY_SET_REG8(CYREG_CMP3_SW0 , cyPmBackup.cmpData[15u]);
 3202              		.loc 1 2251 0
 3203 014a 45F6D823 		movw	r3, #:lower16:1073765080
 3204 014e C4F20003 		movt	r3, #:upper16:1073765080
 3205 0152 40F20002 		movw	r2, #:lower16:cyPmBackup
 3206 0156 C0F20002 		movt	r2, #:upper16:cyPmBackup
 3207 015a 92F82D20 		ldrb	r2, [r2, #45]	@ zero_extendqisi2
 3208 015e 1A70     		strb	r2, [r3, #0]
2252:.\Generated_Source\PSoC5/cyPm.c ****         CY_SET_REG8(CYREG_CMP3_SW2 , cyPmBackup.cmpData[16u]);
ARM GAS  C:\Users\rmcgarel\AppData\Local\Temp\ccv1YA4O.s 			page 97


 3209              		.loc 1 2252 0
 3210 0160 45F6DA23 		movw	r3, #:lower16:1073765082
 3211 0164 C4F20003 		movt	r3, #:upper16:1073765082
 3212 0168 40F20002 		movw	r2, #:lower16:cyPmBackup
 3213 016c C0F20002 		movt	r2, #:upper16:cyPmBackup
 3214 0170 92F82E20 		ldrb	r2, [r2, #46]	@ zero_extendqisi2
 3215 0174 1A70     		strb	r2, [r3, #0]
2253:.\Generated_Source\PSoC5/cyPm.c ****         CY_SET_REG8(CYREG_CMP3_SW3 , cyPmBackup.cmpData[17u]);
 3216              		.loc 1 2253 0
 3217 0176 45F6DB23 		movw	r3, #:lower16:1073765083
 3218 017a C4F20003 		movt	r3, #:upper16:1073765083
 3219 017e 40F20002 		movw	r2, #:lower16:cyPmBackup
 3220 0182 C0F20002 		movt	r2, #:upper16:cyPmBackup
 3221 0186 92F82F20 		ldrb	r2, [r2, #47]	@ zero_extendqisi2
 3222 018a 1A70     		strb	r2, [r3, #0]
2254:.\Generated_Source\PSoC5/cyPm.c ****         CY_SET_REG8(CYREG_CMP3_SW4 , cyPmBackup.cmpData[18u]);
 3223              		.loc 1 2254 0
 3224 018c 45F6DC23 		movw	r3, #:lower16:1073765084
 3225 0190 C4F20003 		movt	r3, #:upper16:1073765084
 3226 0194 40F20002 		movw	r2, #:lower16:cyPmBackup
 3227 0198 C0F20002 		movt	r2, #:upper16:cyPmBackup
 3228 019c 92F83020 		ldrb	r2, [r2, #48]	@ zero_extendqisi2
 3229 01a0 1A70     		strb	r2, [r3, #0]
2255:.\Generated_Source\PSoC5/cyPm.c ****         CY_SET_REG8(CYREG_CMP3_SW6 , cyPmBackup.cmpData[19u]);
 3230              		.loc 1 2255 0
 3231 01a2 45F6DE23 		movw	r3, #:lower16:1073765086
 3232 01a6 C4F20003 		movt	r3, #:upper16:1073765086
 3233 01aa 40F20002 		movw	r2, #:lower16:cyPmBackup
 3234 01ae C0F20002 		movt	r2, #:upper16:cyPmBackup
 3235 01b2 92F83120 		ldrb	r2, [r2, #49]	@ zero_extendqisi2
 3236 01b6 1A70     		strb	r2, [r3, #0]
2256:.\Generated_Source\PSoC5/cyPm.c **** 
2257:.\Generated_Source\PSoC5/cyPm.c ****         /* Restore DAC routing registers */
2258:.\Generated_Source\PSoC5/cyPm.c ****         CY_SET_REG8(CYREG_DAC0_SW0 , cyPmBackup.dacData[0u] );
 3237              		.loc 1 2258 0
 3238 01b8 45F68023 		movw	r3, #:lower16:1073764992
 3239 01bc C4F20003 		movt	r3, #:upper16:1073764992
 3240 01c0 40F20002 		movw	r2, #:lower16:cyPmBackup
 3241 01c4 C0F20002 		movt	r2, #:upper16:cyPmBackup
 3242 01c8 92F83220 		ldrb	r2, [r2, #50]	@ zero_extendqisi2
 3243 01cc 1A70     		strb	r2, [r3, #0]
2259:.\Generated_Source\PSoC5/cyPm.c ****         CY_SET_REG8(CYREG_DAC0_SW2 , cyPmBackup.dacData[1u] );
 3244              		.loc 1 2259 0
 3245 01ce 45F68223 		movw	r3, #:lower16:1073764994
 3246 01d2 C4F20003 		movt	r3, #:upper16:1073764994
 3247 01d6 40F20002 		movw	r2, #:lower16:cyPmBackup
 3248 01da C0F20002 		movt	r2, #:upper16:cyPmBackup
 3249 01de 92F83320 		ldrb	r2, [r2, #51]	@ zero_extendqisi2
 3250 01e2 1A70     		strb	r2, [r3, #0]
2260:.\Generated_Source\PSoC5/cyPm.c ****         CY_SET_REG8(CYREG_DAC0_SW3 , cyPmBackup.dacData[2u] );
 3251              		.loc 1 2260 0
 3252 01e4 45F68323 		movw	r3, #:lower16:1073764995
 3253 01e8 C4F20003 		movt	r3, #:upper16:1073764995
 3254 01ec 40F20002 		movw	r2, #:lower16:cyPmBackup
 3255 01f0 C0F20002 		movt	r2, #:upper16:cyPmBackup
 3256 01f4 92F83420 		ldrb	r2, [r2, #52]	@ zero_extendqisi2
 3257 01f8 1A70     		strb	r2, [r3, #0]
ARM GAS  C:\Users\rmcgarel\AppData\Local\Temp\ccv1YA4O.s 			page 98


2261:.\Generated_Source\PSoC5/cyPm.c ****         CY_SET_REG8(CYREG_DAC0_SW4 , cyPmBackup.dacData[3u] );
 3258              		.loc 1 2261 0
 3259 01fa 45F68423 		movw	r3, #:lower16:1073764996
 3260 01fe C4F20003 		movt	r3, #:upper16:1073764996
 3261 0202 40F20002 		movw	r2, #:lower16:cyPmBackup
 3262 0206 C0F20002 		movt	r2, #:upper16:cyPmBackup
 3263 020a 92F83520 		ldrb	r2, [r2, #53]	@ zero_extendqisi2
 3264 020e 1A70     		strb	r2, [r3, #0]
2262:.\Generated_Source\PSoC5/cyPm.c **** 
2263:.\Generated_Source\PSoC5/cyPm.c ****         CY_SET_REG8(CYREG_DAC1_SW0 , cyPmBackup.dacData[4u] );
 3265              		.loc 1 2263 0
 3266 0210 45F68823 		movw	r3, #:lower16:1073765000
 3267 0214 C4F20003 		movt	r3, #:upper16:1073765000
 3268 0218 40F20002 		movw	r2, #:lower16:cyPmBackup
 3269 021c C0F20002 		movt	r2, #:upper16:cyPmBackup
 3270 0220 92F83620 		ldrb	r2, [r2, #54]	@ zero_extendqisi2
 3271 0224 1A70     		strb	r2, [r3, #0]
2264:.\Generated_Source\PSoC5/cyPm.c ****         CY_SET_REG8(CYREG_DAC1_SW2 , cyPmBackup.dacData[5u] );
 3272              		.loc 1 2264 0
 3273 0226 45F68A23 		movw	r3, #:lower16:1073765002
 3274 022a C4F20003 		movt	r3, #:upper16:1073765002
 3275 022e 40F20002 		movw	r2, #:lower16:cyPmBackup
 3276 0232 C0F20002 		movt	r2, #:upper16:cyPmBackup
 3277 0236 92F83720 		ldrb	r2, [r2, #55]	@ zero_extendqisi2
 3278 023a 1A70     		strb	r2, [r3, #0]
2265:.\Generated_Source\PSoC5/cyPm.c ****         CY_SET_REG8(CYREG_DAC1_SW3 , cyPmBackup.dacData[6u] );
 3279              		.loc 1 2265 0
 3280 023c 45F68B23 		movw	r3, #:lower16:1073765003
 3281 0240 C4F20003 		movt	r3, #:upper16:1073765003
 3282 0244 40F20002 		movw	r2, #:lower16:cyPmBackup
 3283 0248 C0F20002 		movt	r2, #:upper16:cyPmBackup
 3284 024c 92F83820 		ldrb	r2, [r2, #56]	@ zero_extendqisi2
 3285 0250 1A70     		strb	r2, [r3, #0]
2266:.\Generated_Source\PSoC5/cyPm.c ****         CY_SET_REG8(CYREG_DAC1_SW4 , cyPmBackup.dacData[7u] );
 3286              		.loc 1 2266 0
 3287 0252 45F68C23 		movw	r3, #:lower16:1073765004
 3288 0256 C4F20003 		movt	r3, #:upper16:1073765004
 3289 025a 40F20002 		movw	r2, #:lower16:cyPmBackup
 3290 025e C0F20002 		movt	r2, #:upper16:cyPmBackup
 3291 0262 92F83920 		ldrb	r2, [r2, #57]	@ zero_extendqisi2
 3292 0266 1A70     		strb	r2, [r3, #0]
2267:.\Generated_Source\PSoC5/cyPm.c **** 
2268:.\Generated_Source\PSoC5/cyPm.c ****         CY_SET_REG8(CYREG_DAC2_SW0 , cyPmBackup.dacData[8u] );
 3293              		.loc 1 2268 0
 3294 0268 45F69023 		movw	r3, #:lower16:1073765008
 3295 026c C4F20003 		movt	r3, #:upper16:1073765008
 3296 0270 40F20002 		movw	r2, #:lower16:cyPmBackup
 3297 0274 C0F20002 		movt	r2, #:upper16:cyPmBackup
 3298 0278 92F83A20 		ldrb	r2, [r2, #58]	@ zero_extendqisi2
 3299 027c 1A70     		strb	r2, [r3, #0]
2269:.\Generated_Source\PSoC5/cyPm.c ****         CY_SET_REG8(CYREG_DAC2_SW2 , cyPmBackup.dacData[9u] );
 3300              		.loc 1 2269 0
 3301 027e 45F69223 		movw	r3, #:lower16:1073765010
 3302 0282 C4F20003 		movt	r3, #:upper16:1073765010
 3303 0286 40F20002 		movw	r2, #:lower16:cyPmBackup
 3304 028a C0F20002 		movt	r2, #:upper16:cyPmBackup
 3305 028e 92F83B20 		ldrb	r2, [r2, #59]	@ zero_extendqisi2
ARM GAS  C:\Users\rmcgarel\AppData\Local\Temp\ccv1YA4O.s 			page 99


 3306 0292 1A70     		strb	r2, [r3, #0]
2270:.\Generated_Source\PSoC5/cyPm.c ****         CY_SET_REG8(CYREG_DAC2_SW3 , cyPmBackup.dacData[10u]);
 3307              		.loc 1 2270 0
 3308 0294 45F69323 		movw	r3, #:lower16:1073765011
 3309 0298 C4F20003 		movt	r3, #:upper16:1073765011
 3310 029c 40F20002 		movw	r2, #:lower16:cyPmBackup
 3311 02a0 C0F20002 		movt	r2, #:upper16:cyPmBackup
 3312 02a4 92F83C20 		ldrb	r2, [r2, #60]	@ zero_extendqisi2
 3313 02a8 1A70     		strb	r2, [r3, #0]
2271:.\Generated_Source\PSoC5/cyPm.c ****         CY_SET_REG8(CYREG_DAC2_SW4 , cyPmBackup.dacData[11u]);
 3314              		.loc 1 2271 0
 3315 02aa 45F69423 		movw	r3, #:lower16:1073765012
 3316 02ae C4F20003 		movt	r3, #:upper16:1073765012
 3317 02b2 40F20002 		movw	r2, #:lower16:cyPmBackup
 3318 02b6 C0F20002 		movt	r2, #:upper16:cyPmBackup
 3319 02ba 92F83D20 		ldrb	r2, [r2, #61]	@ zero_extendqisi2
 3320 02be 1A70     		strb	r2, [r3, #0]
2272:.\Generated_Source\PSoC5/cyPm.c **** 
2273:.\Generated_Source\PSoC5/cyPm.c ****         CY_SET_REG8(CYREG_DAC3_SW0 , cyPmBackup.dacData[12u]);
 3321              		.loc 1 2273 0
 3322 02c0 45F69823 		movw	r3, #:lower16:1073765016
 3323 02c4 C4F20003 		movt	r3, #:upper16:1073765016
 3324 02c8 40F20002 		movw	r2, #:lower16:cyPmBackup
 3325 02cc C0F20002 		movt	r2, #:upper16:cyPmBackup
 3326 02d0 92F83E20 		ldrb	r2, [r2, #62]	@ zero_extendqisi2
 3327 02d4 1A70     		strb	r2, [r3, #0]
2274:.\Generated_Source\PSoC5/cyPm.c ****         CY_SET_REG8(CYREG_DAC3_SW2 , cyPmBackup.dacData[13u]);
 3328              		.loc 1 2274 0
 3329 02d6 45F69A23 		movw	r3, #:lower16:1073765018
 3330 02da C4F20003 		movt	r3, #:upper16:1073765018
 3331 02de 40F20002 		movw	r2, #:lower16:cyPmBackup
 3332 02e2 C0F20002 		movt	r2, #:upper16:cyPmBackup
 3333 02e6 92F83F20 		ldrb	r2, [r2, #63]	@ zero_extendqisi2
 3334 02ea 1A70     		strb	r2, [r3, #0]
2275:.\Generated_Source\PSoC5/cyPm.c ****         CY_SET_REG8(CYREG_DAC3_SW3 , cyPmBackup.dacData[14u]);
 3335              		.loc 1 2275 0
 3336 02ec 45F69B23 		movw	r3, #:lower16:1073765019
 3337 02f0 C4F20003 		movt	r3, #:upper16:1073765019
 3338 02f4 40F20002 		movw	r2, #:lower16:cyPmBackup
 3339 02f8 C0F20002 		movt	r2, #:upper16:cyPmBackup
 3340 02fc 92F84020 		ldrb	r2, [r2, #64]	@ zero_extendqisi2
 3341 0300 1A70     		strb	r2, [r3, #0]
2276:.\Generated_Source\PSoC5/cyPm.c ****         CY_SET_REG8(CYREG_DAC3_SW4 , cyPmBackup.dacData[15u]);
 3342              		.loc 1 2276 0
 3343 0302 45F69C23 		movw	r3, #:lower16:1073765020
 3344 0306 C4F20003 		movt	r3, #:upper16:1073765020
 3345 030a 40F20002 		movw	r2, #:lower16:cyPmBackup
 3346 030e C0F20002 		movt	r2, #:upper16:cyPmBackup
 3347 0312 92F84120 		ldrb	r2, [r2, #65]	@ zero_extendqisi2
 3348 0316 1A70     		strb	r2, [r3, #0]
2277:.\Generated_Source\PSoC5/cyPm.c **** 
2278:.\Generated_Source\PSoC5/cyPm.c **** 
2279:.\Generated_Source\PSoC5/cyPm.c ****         /* Restore DSM routing registers */
2280:.\Generated_Source\PSoC5/cyPm.c ****         CY_SET_REG8(CYREG_DSM0_SW0 , cyPmBackup.dsmData[0u]);
 3349              		.loc 1 2280 0
 3350 0318 45F60033 		movw	r3, #:lower16:1073765120
 3351 031c C4F20003 		movt	r3, #:upper16:1073765120
ARM GAS  C:\Users\rmcgarel\AppData\Local\Temp\ccv1YA4O.s 			page 100


 3352 0320 40F20002 		movw	r2, #:lower16:cyPmBackup
 3353 0324 C0F20002 		movt	r2, #:upper16:cyPmBackup
 3354 0328 92F84220 		ldrb	r2, [r2, #66]	@ zero_extendqisi2
 3355 032c 1A70     		strb	r2, [r3, #0]
2281:.\Generated_Source\PSoC5/cyPm.c ****         CY_SET_REG8(CYREG_DSM0_SW2 , cyPmBackup.dsmData[1u]);
 3356              		.loc 1 2281 0
 3357 032e 45F60233 		movw	r3, #:lower16:1073765122
 3358 0332 C4F20003 		movt	r3, #:upper16:1073765122
 3359 0336 40F20002 		movw	r2, #:lower16:cyPmBackup
 3360 033a C0F20002 		movt	r2, #:upper16:cyPmBackup
 3361 033e 92F84320 		ldrb	r2, [r2, #67]	@ zero_extendqisi2
 3362 0342 1A70     		strb	r2, [r3, #0]
2282:.\Generated_Source\PSoC5/cyPm.c ****         CY_SET_REG8(CYREG_DSM0_SW3 , cyPmBackup.dsmData[2u]);
 3363              		.loc 1 2282 0
 3364 0344 45F60333 		movw	r3, #:lower16:1073765123
 3365 0348 C4F20003 		movt	r3, #:upper16:1073765123
 3366 034c 40F20002 		movw	r2, #:lower16:cyPmBackup
 3367 0350 C0F20002 		movt	r2, #:upper16:cyPmBackup
 3368 0354 92F84420 		ldrb	r2, [r2, #68]	@ zero_extendqisi2
 3369 0358 1A70     		strb	r2, [r3, #0]
2283:.\Generated_Source\PSoC5/cyPm.c ****         CY_SET_REG8(CYREG_DSM0_SW4 , cyPmBackup.dsmData[3u]);
 3370              		.loc 1 2283 0
 3371 035a 45F60433 		movw	r3, #:lower16:1073765124
 3372 035e C4F20003 		movt	r3, #:upper16:1073765124
 3373 0362 40F20002 		movw	r2, #:lower16:cyPmBackup
 3374 0366 C0F20002 		movt	r2, #:upper16:cyPmBackup
 3375 036a 92F84520 		ldrb	r2, [r2, #69]	@ zero_extendqisi2
 3376 036e 1A70     		strb	r2, [r3, #0]
2284:.\Generated_Source\PSoC5/cyPm.c ****         CY_SET_REG8(CYREG_DSM0_SW6 , cyPmBackup.dsmData[4u]);
 3377              		.loc 1 2284 0
 3378 0370 45F60633 		movw	r3, #:lower16:1073765126
 3379 0374 C4F20003 		movt	r3, #:upper16:1073765126
 3380 0378 40F20002 		movw	r2, #:lower16:cyPmBackup
 3381 037c C0F20002 		movt	r2, #:upper16:cyPmBackup
 3382 0380 92F84620 		ldrb	r2, [r2, #70]	@ zero_extendqisi2
 3383 0384 1A70     		strb	r2, [r3, #0]
2285:.\Generated_Source\PSoC5/cyPm.c **** 
2286:.\Generated_Source\PSoC5/cyPm.c **** 
2287:.\Generated_Source\PSoC5/cyPm.c ****         /* Restore SAR routing registers */
2288:.\Generated_Source\PSoC5/cyPm.c ****         CY_SET_REG8(CYREG_SAR0_SW0 , cyPmBackup.sarData[0u]);
 3384              		.loc 1 2288 0
 3385 0386 45F62033 		movw	r3, #:lower16:1073765152
 3386 038a C4F20003 		movt	r3, #:upper16:1073765152
 3387 038e 40F20002 		movw	r2, #:lower16:cyPmBackup
 3388 0392 C0F20002 		movt	r2, #:upper16:cyPmBackup
 3389 0396 92F84720 		ldrb	r2, [r2, #71]	@ zero_extendqisi2
 3390 039a 1A70     		strb	r2, [r3, #0]
2289:.\Generated_Source\PSoC5/cyPm.c ****         CY_SET_REG8(CYREG_SAR0_SW2 , cyPmBackup.sarData[1u]);
 3391              		.loc 1 2289 0
 3392 039c 45F62233 		movw	r3, #:lower16:1073765154
 3393 03a0 C4F20003 		movt	r3, #:upper16:1073765154
 3394 03a4 40F20002 		movw	r2, #:lower16:cyPmBackup
 3395 03a8 C0F20002 		movt	r2, #:upper16:cyPmBackup
 3396 03ac 92F84820 		ldrb	r2, [r2, #72]	@ zero_extendqisi2
 3397 03b0 1A70     		strb	r2, [r3, #0]
2290:.\Generated_Source\PSoC5/cyPm.c ****         CY_SET_REG8(CYREG_SAR0_SW3 , cyPmBackup.sarData[2u]);
 3398              		.loc 1 2290 0
ARM GAS  C:\Users\rmcgarel\AppData\Local\Temp\ccv1YA4O.s 			page 101


 3399 03b2 45F62333 		movw	r3, #:lower16:1073765155
 3400 03b6 C4F20003 		movt	r3, #:upper16:1073765155
 3401 03ba 40F20002 		movw	r2, #:lower16:cyPmBackup
 3402 03be C0F20002 		movt	r2, #:upper16:cyPmBackup
 3403 03c2 92F84920 		ldrb	r2, [r2, #73]	@ zero_extendqisi2
 3404 03c6 1A70     		strb	r2, [r3, #0]
2291:.\Generated_Source\PSoC5/cyPm.c ****         CY_SET_REG8(CYREG_SAR0_SW4 , cyPmBackup.sarData[3u]);
 3405              		.loc 1 2291 0
 3406 03c8 45F62433 		movw	r3, #:lower16:1073765156
 3407 03cc C4F20003 		movt	r3, #:upper16:1073765156
 3408 03d0 40F20002 		movw	r2, #:lower16:cyPmBackup
 3409 03d4 C0F20002 		movt	r2, #:upper16:cyPmBackup
 3410 03d8 92F84A20 		ldrb	r2, [r2, #74]	@ zero_extendqisi2
 3411 03dc 1A70     		strb	r2, [r3, #0]
2292:.\Generated_Source\PSoC5/cyPm.c ****         CY_SET_REG8(CYREG_SAR0_SW6 , cyPmBackup.sarData[4u]);
 3412              		.loc 1 2292 0
 3413 03de 45F62633 		movw	r3, #:lower16:1073765158
 3414 03e2 C4F20003 		movt	r3, #:upper16:1073765158
 3415 03e6 40F20002 		movw	r2, #:lower16:cyPmBackup
 3416 03ea C0F20002 		movt	r2, #:upper16:cyPmBackup
 3417 03ee 92F84B20 		ldrb	r2, [r2, #75]	@ zero_extendqisi2
 3418 03f2 1A70     		strb	r2, [r3, #0]
2293:.\Generated_Source\PSoC5/cyPm.c **** 
2294:.\Generated_Source\PSoC5/cyPm.c ****         CY_SET_REG8(CYREG_SAR1_SW0 , cyPmBackup.sarData[5u]);
 3419              		.loc 1 2294 0
 3420 03f4 45F62833 		movw	r3, #:lower16:1073765160
 3421 03f8 C4F20003 		movt	r3, #:upper16:1073765160
 3422 03fc 40F20002 		movw	r2, #:lower16:cyPmBackup
 3423 0400 C0F20002 		movt	r2, #:upper16:cyPmBackup
 3424 0404 92F84C20 		ldrb	r2, [r2, #76]	@ zero_extendqisi2
 3425 0408 1A70     		strb	r2, [r3, #0]
2295:.\Generated_Source\PSoC5/cyPm.c ****         CY_SET_REG8(CYREG_SAR1_SW2 , cyPmBackup.sarData[6u]);
 3426              		.loc 1 2295 0
 3427 040a 45F62A33 		movw	r3, #:lower16:1073765162
 3428 040e C4F20003 		movt	r3, #:upper16:1073765162
 3429 0412 40F20002 		movw	r2, #:lower16:cyPmBackup
 3430 0416 C0F20002 		movt	r2, #:upper16:cyPmBackup
 3431 041a 92F84D20 		ldrb	r2, [r2, #77]	@ zero_extendqisi2
 3432 041e 1A70     		strb	r2, [r3, #0]
2296:.\Generated_Source\PSoC5/cyPm.c ****         CY_SET_REG8(CYREG_SAR1_SW3 , cyPmBackup.sarData[7u]);
 3433              		.loc 1 2296 0
 3434 0420 45F62B33 		movw	r3, #:lower16:1073765163
 3435 0424 C4F20003 		movt	r3, #:upper16:1073765163
 3436 0428 40F20002 		movw	r2, #:lower16:cyPmBackup
 3437 042c C0F20002 		movt	r2, #:upper16:cyPmBackup
 3438 0430 92F84E20 		ldrb	r2, [r2, #78]	@ zero_extendqisi2
 3439 0434 1A70     		strb	r2, [r3, #0]
2297:.\Generated_Source\PSoC5/cyPm.c ****         CY_SET_REG8(CYREG_SAR1_SW4 , cyPmBackup.sarData[8u]);
 3440              		.loc 1 2297 0
 3441 0436 45F62C33 		movw	r3, #:lower16:1073765164
 3442 043a C4F20003 		movt	r3, #:upper16:1073765164
 3443 043e 40F20002 		movw	r2, #:lower16:cyPmBackup
 3444 0442 C0F20002 		movt	r2, #:upper16:cyPmBackup
 3445 0446 92F84F20 		ldrb	r2, [r2, #79]	@ zero_extendqisi2
 3446 044a 1A70     		strb	r2, [r3, #0]
2298:.\Generated_Source\PSoC5/cyPm.c ****         CY_SET_REG8(CYREG_SAR1_SW6 , cyPmBackup.sarData[9u]);
 3447              		.loc 1 2298 0
ARM GAS  C:\Users\rmcgarel\AppData\Local\Temp\ccv1YA4O.s 			page 102


 3448 044c 45F62E33 		movw	r3, #:lower16:1073765166
 3449 0450 C4F20003 		movt	r3, #:upper16:1073765166
 3450 0454 40F20002 		movw	r2, #:lower16:cyPmBackup
 3451 0458 C0F20002 		movt	r2, #:upper16:cyPmBackup
 3452 045c 92F85020 		ldrb	r2, [r2, #80]	@ zero_extendqisi2
 3453 0460 1A70     		strb	r2, [r3, #0]
2299:.\Generated_Source\PSoC5/cyPm.c **** 
2300:.\Generated_Source\PSoC5/cyPm.c ****     #endif  /* (CY_PSOC5A) */
2301:.\Generated_Source\PSoC5/cyPm.c **** 
2302:.\Generated_Source\PSoC5/cyPm.c ****     #if(CY_PSOC3 || CY_PSOC5A || CY_PSOC5LP)
2303:.\Generated_Source\PSoC5/cyPm.c **** 
2304:.\Generated_Source\PSoC5/cyPm.c ****         /* Restore SC/CT routing registers */
2305:.\Generated_Source\PSoC5/cyPm.c ****         CY_SET_REG8(CYREG_SC0_SW0 , cyPmBackup.scctData[0u] );
 3454              		.loc 1 2305 0
 3455 0462 45F60023 		movw	r3, #:lower16:1073764864
 3456 0466 C4F20003 		movt	r3, #:upper16:1073764864
 3457 046a 40F20002 		movw	r2, #:lower16:cyPmBackup
 3458 046e C0F20002 		movt	r2, #:upper16:cyPmBackup
 3459 0472 9278     		ldrb	r2, [r2, #2]	@ zero_extendqisi2
 3460 0474 1A70     		strb	r2, [r3, #0]
2306:.\Generated_Source\PSoC5/cyPm.c ****         CY_SET_REG8(CYREG_SC0_SW2 , cyPmBackup.scctData[1u] );
 3461              		.loc 1 2306 0
 3462 0476 45F60223 		movw	r3, #:lower16:1073764866
 3463 047a C4F20003 		movt	r3, #:upper16:1073764866
 3464 047e 40F20002 		movw	r2, #:lower16:cyPmBackup
 3465 0482 C0F20002 		movt	r2, #:upper16:cyPmBackup
 3466 0486 D278     		ldrb	r2, [r2, #3]	@ zero_extendqisi2
 3467 0488 1A70     		strb	r2, [r3, #0]
2307:.\Generated_Source\PSoC5/cyPm.c ****         CY_SET_REG8(CYREG_SC0_SW3 , cyPmBackup.scctData[2u] );
 3468              		.loc 1 2307 0
 3469 048a 45F60323 		movw	r3, #:lower16:1073764867
 3470 048e C4F20003 		movt	r3, #:upper16:1073764867
 3471 0492 40F20002 		movw	r2, #:lower16:cyPmBackup
 3472 0496 C0F20002 		movt	r2, #:upper16:cyPmBackup
 3473 049a 1279     		ldrb	r2, [r2, #4]	@ zero_extendqisi2
 3474 049c 1A70     		strb	r2, [r3, #0]
2308:.\Generated_Source\PSoC5/cyPm.c ****         CY_SET_REG8(CYREG_SC0_SW4 , cyPmBackup.scctData[3u] );
 3475              		.loc 1 2308 0
 3476 049e 45F60423 		movw	r3, #:lower16:1073764868
 3477 04a2 C4F20003 		movt	r3, #:upper16:1073764868
 3478 04a6 40F20002 		movw	r2, #:lower16:cyPmBackup
 3479 04aa C0F20002 		movt	r2, #:upper16:cyPmBackup
 3480 04ae 5279     		ldrb	r2, [r2, #5]	@ zero_extendqisi2
 3481 04b0 1A70     		strb	r2, [r3, #0]
2309:.\Generated_Source\PSoC5/cyPm.c ****         CY_SET_REG8(CYREG_SC0_SW6 , cyPmBackup.scctData[4u] );
 3482              		.loc 1 2309 0
 3483 04b2 45F60623 		movw	r3, #:lower16:1073764870
 3484 04b6 C4F20003 		movt	r3, #:upper16:1073764870
 3485 04ba 40F20002 		movw	r2, #:lower16:cyPmBackup
 3486 04be C0F20002 		movt	r2, #:upper16:cyPmBackup
 3487 04c2 9279     		ldrb	r2, [r2, #6]	@ zero_extendqisi2
 3488 04c4 1A70     		strb	r2, [r3, #0]
2310:.\Generated_Source\PSoC5/cyPm.c ****         CY_SET_REG8(CYREG_SC0_SW8 , cyPmBackup.scctData[5u] );
 3489              		.loc 1 2310 0
 3490 04c6 45F60823 		movw	r3, #:lower16:1073764872
 3491 04ca C4F20003 		movt	r3, #:upper16:1073764872
 3492 04ce 40F20002 		movw	r2, #:lower16:cyPmBackup
ARM GAS  C:\Users\rmcgarel\AppData\Local\Temp\ccv1YA4O.s 			page 103


 3493 04d2 C0F20002 		movt	r2, #:upper16:cyPmBackup
 3494 04d6 D279     		ldrb	r2, [r2, #7]	@ zero_extendqisi2
 3495 04d8 1A70     		strb	r2, [r3, #0]
2311:.\Generated_Source\PSoC5/cyPm.c ****         CY_SET_REG8(CYREG_SC0_SW10, cyPmBackup.scctData[6u] );
 3496              		.loc 1 2311 0
 3497 04da 45F60A23 		movw	r3, #:lower16:1073764874
 3498 04de C4F20003 		movt	r3, #:upper16:1073764874
 3499 04e2 40F20002 		movw	r2, #:lower16:cyPmBackup
 3500 04e6 C0F20002 		movt	r2, #:upper16:cyPmBackup
 3501 04ea 127A     		ldrb	r2, [r2, #8]	@ zero_extendqisi2
 3502 04ec 1A70     		strb	r2, [r3, #0]
2312:.\Generated_Source\PSoC5/cyPm.c **** 
2313:.\Generated_Source\PSoC5/cyPm.c ****         CY_SET_REG8(CYREG_SC1_SW0 , cyPmBackup.scctData[7u] );
 3503              		.loc 1 2313 0
 3504 04ee 45F61023 		movw	r3, #:lower16:1073764880
 3505 04f2 C4F20003 		movt	r3, #:upper16:1073764880
 3506 04f6 40F20002 		movw	r2, #:lower16:cyPmBackup
 3507 04fa C0F20002 		movt	r2, #:upper16:cyPmBackup
 3508 04fe 527A     		ldrb	r2, [r2, #9]	@ zero_extendqisi2
 3509 0500 1A70     		strb	r2, [r3, #0]
2314:.\Generated_Source\PSoC5/cyPm.c ****         CY_SET_REG8(CYREG_SC1_SW2 , cyPmBackup.scctData[8u] );
 3510              		.loc 1 2314 0
 3511 0502 45F61223 		movw	r3, #:lower16:1073764882
 3512 0506 C4F20003 		movt	r3, #:upper16:1073764882
 3513 050a 40F20002 		movw	r2, #:lower16:cyPmBackup
 3514 050e C0F20002 		movt	r2, #:upper16:cyPmBackup
 3515 0512 927A     		ldrb	r2, [r2, #10]	@ zero_extendqisi2
 3516 0514 1A70     		strb	r2, [r3, #0]
2315:.\Generated_Source\PSoC5/cyPm.c ****         CY_SET_REG8(CYREG_SC1_SW3 , cyPmBackup.scctData[9u] );
 3517              		.loc 1 2315 0
 3518 0516 45F61323 		movw	r3, #:lower16:1073764883
 3519 051a C4F20003 		movt	r3, #:upper16:1073764883
 3520 051e 40F20002 		movw	r2, #:lower16:cyPmBackup
 3521 0522 C0F20002 		movt	r2, #:upper16:cyPmBackup
 3522 0526 D27A     		ldrb	r2, [r2, #11]	@ zero_extendqisi2
 3523 0528 1A70     		strb	r2, [r3, #0]
2316:.\Generated_Source\PSoC5/cyPm.c ****         CY_SET_REG8(CYREG_SC1_SW4 , cyPmBackup.scctData[10u]);
 3524              		.loc 1 2316 0
 3525 052a 45F61423 		movw	r3, #:lower16:1073764884
 3526 052e C4F20003 		movt	r3, #:upper16:1073764884
 3527 0532 40F20002 		movw	r2, #:lower16:cyPmBackup
 3528 0536 C0F20002 		movt	r2, #:upper16:cyPmBackup
 3529 053a 127B     		ldrb	r2, [r2, #12]	@ zero_extendqisi2
 3530 053c 1A70     		strb	r2, [r3, #0]
2317:.\Generated_Source\PSoC5/cyPm.c ****         CY_SET_REG8(CYREG_SC1_SW6 , cyPmBackup.scctData[11u]);
 3531              		.loc 1 2317 0
 3532 053e 45F61623 		movw	r3, #:lower16:1073764886
 3533 0542 C4F20003 		movt	r3, #:upper16:1073764886
 3534 0546 40F20002 		movw	r2, #:lower16:cyPmBackup
 3535 054a C0F20002 		movt	r2, #:upper16:cyPmBackup
 3536 054e 527B     		ldrb	r2, [r2, #13]	@ zero_extendqisi2
 3537 0550 1A70     		strb	r2, [r3, #0]
2318:.\Generated_Source\PSoC5/cyPm.c ****         CY_SET_REG8(CYREG_SC1_SW8 , cyPmBackup.scctData[12u]);
 3538              		.loc 1 2318 0
 3539 0552 45F61823 		movw	r3, #:lower16:1073764888
 3540 0556 C4F20003 		movt	r3, #:upper16:1073764888
 3541 055a 40F20002 		movw	r2, #:lower16:cyPmBackup
ARM GAS  C:\Users\rmcgarel\AppData\Local\Temp\ccv1YA4O.s 			page 104


 3542 055e C0F20002 		movt	r2, #:upper16:cyPmBackup
 3543 0562 927B     		ldrb	r2, [r2, #14]	@ zero_extendqisi2
 3544 0564 1A70     		strb	r2, [r3, #0]
2319:.\Generated_Source\PSoC5/cyPm.c ****         CY_SET_REG8(CYREG_SC1_SW10, cyPmBackup.scctData[13u]);
 3545              		.loc 1 2319 0
 3546 0566 45F61A23 		movw	r3, #:lower16:1073764890
 3547 056a C4F20003 		movt	r3, #:upper16:1073764890
 3548 056e 40F20002 		movw	r2, #:lower16:cyPmBackup
 3549 0572 C0F20002 		movt	r2, #:upper16:cyPmBackup
 3550 0576 D27B     		ldrb	r2, [r2, #15]	@ zero_extendqisi2
 3551 0578 1A70     		strb	r2, [r3, #0]
2320:.\Generated_Source\PSoC5/cyPm.c **** 
2321:.\Generated_Source\PSoC5/cyPm.c ****         CY_SET_REG8(CYREG_SC2_SW0 , cyPmBackup.scctData[14u]);
 3552              		.loc 1 2321 0
 3553 057a 45F62023 		movw	r3, #:lower16:1073764896
 3554 057e C4F20003 		movt	r3, #:upper16:1073764896
 3555 0582 40F20002 		movw	r2, #:lower16:cyPmBackup
 3556 0586 C0F20002 		movt	r2, #:upper16:cyPmBackup
 3557 058a 127C     		ldrb	r2, [r2, #16]	@ zero_extendqisi2
 3558 058c 1A70     		strb	r2, [r3, #0]
2322:.\Generated_Source\PSoC5/cyPm.c ****         CY_SET_REG8(CYREG_SC2_SW2 , cyPmBackup.scctData[15u]);
 3559              		.loc 1 2322 0
 3560 058e 45F62223 		movw	r3, #:lower16:1073764898
 3561 0592 C4F20003 		movt	r3, #:upper16:1073764898
 3562 0596 40F20002 		movw	r2, #:lower16:cyPmBackup
 3563 059a C0F20002 		movt	r2, #:upper16:cyPmBackup
 3564 059e 527C     		ldrb	r2, [r2, #17]	@ zero_extendqisi2
 3565 05a0 1A70     		strb	r2, [r3, #0]
2323:.\Generated_Source\PSoC5/cyPm.c ****         CY_SET_REG8(CYREG_SC2_SW3 , cyPmBackup.scctData[16u]);
 3566              		.loc 1 2323 0
 3567 05a2 45F62323 		movw	r3, #:lower16:1073764899
 3568 05a6 C4F20003 		movt	r3, #:upper16:1073764899
 3569 05aa 40F20002 		movw	r2, #:lower16:cyPmBackup
 3570 05ae C0F20002 		movt	r2, #:upper16:cyPmBackup
 3571 05b2 927C     		ldrb	r2, [r2, #18]	@ zero_extendqisi2
 3572 05b4 1A70     		strb	r2, [r3, #0]
2324:.\Generated_Source\PSoC5/cyPm.c ****         CY_SET_REG8(CYREG_SC2_SW4 , cyPmBackup.scctData[17u]);
 3573              		.loc 1 2324 0
 3574 05b6 45F62423 		movw	r3, #:lower16:1073764900
 3575 05ba C4F20003 		movt	r3, #:upper16:1073764900
 3576 05be 40F20002 		movw	r2, #:lower16:cyPmBackup
 3577 05c2 C0F20002 		movt	r2, #:upper16:cyPmBackup
 3578 05c6 D27C     		ldrb	r2, [r2, #19]	@ zero_extendqisi2
 3579 05c8 1A70     		strb	r2, [r3, #0]
2325:.\Generated_Source\PSoC5/cyPm.c ****         CY_SET_REG8(CYREG_SC2_SW6 , cyPmBackup.scctData[18u]);
 3580              		.loc 1 2325 0
 3581 05ca 45F62623 		movw	r3, #:lower16:1073764902
 3582 05ce C4F20003 		movt	r3, #:upper16:1073764902
 3583 05d2 40F20002 		movw	r2, #:lower16:cyPmBackup
 3584 05d6 C0F20002 		movt	r2, #:upper16:cyPmBackup
 3585 05da 127D     		ldrb	r2, [r2, #20]	@ zero_extendqisi2
 3586 05dc 1A70     		strb	r2, [r3, #0]
2326:.\Generated_Source\PSoC5/cyPm.c ****         CY_SET_REG8(CYREG_SC2_SW8 , cyPmBackup.scctData[19u]);
 3587              		.loc 1 2326 0
 3588 05de 45F62823 		movw	r3, #:lower16:1073764904
 3589 05e2 C4F20003 		movt	r3, #:upper16:1073764904
 3590 05e6 40F20002 		movw	r2, #:lower16:cyPmBackup
ARM GAS  C:\Users\rmcgarel\AppData\Local\Temp\ccv1YA4O.s 			page 105


 3591 05ea C0F20002 		movt	r2, #:upper16:cyPmBackup
 3592 05ee 527D     		ldrb	r2, [r2, #21]	@ zero_extendqisi2
 3593 05f0 1A70     		strb	r2, [r3, #0]
2327:.\Generated_Source\PSoC5/cyPm.c ****         CY_SET_REG8(CYREG_SC2_SW10, cyPmBackup.scctData[20u]);
 3594              		.loc 1 2327 0
 3595 05f2 45F62A23 		movw	r3, #:lower16:1073764906
 3596 05f6 C4F20003 		movt	r3, #:upper16:1073764906
 3597 05fa 40F20002 		movw	r2, #:lower16:cyPmBackup
 3598 05fe C0F20002 		movt	r2, #:upper16:cyPmBackup
 3599 0602 927D     		ldrb	r2, [r2, #22]	@ zero_extendqisi2
 3600 0604 1A70     		strb	r2, [r3, #0]
2328:.\Generated_Source\PSoC5/cyPm.c **** 
2329:.\Generated_Source\PSoC5/cyPm.c ****         CY_SET_REG8(CYREG_SC3_SW0 , cyPmBackup.scctData[21u]);
 3601              		.loc 1 2329 0
 3602 0606 45F63023 		movw	r3, #:lower16:1073764912
 3603 060a C4F20003 		movt	r3, #:upper16:1073764912
 3604 060e 40F20002 		movw	r2, #:lower16:cyPmBackup
 3605 0612 C0F20002 		movt	r2, #:upper16:cyPmBackup
 3606 0616 D27D     		ldrb	r2, [r2, #23]	@ zero_extendqisi2
 3607 0618 1A70     		strb	r2, [r3, #0]
2330:.\Generated_Source\PSoC5/cyPm.c ****         CY_SET_REG8(CYREG_SC3_SW2 , cyPmBackup.scctData[22u]);
 3608              		.loc 1 2330 0
 3609 061a 45F63223 		movw	r3, #:lower16:1073764914
 3610 061e C4F20003 		movt	r3, #:upper16:1073764914
 3611 0622 40F20002 		movw	r2, #:lower16:cyPmBackup
 3612 0626 C0F20002 		movt	r2, #:upper16:cyPmBackup
 3613 062a 127E     		ldrb	r2, [r2, #24]	@ zero_extendqisi2
 3614 062c 1A70     		strb	r2, [r3, #0]
2331:.\Generated_Source\PSoC5/cyPm.c ****         CY_SET_REG8(CYREG_SC3_SW3 , cyPmBackup.scctData[23u]);
 3615              		.loc 1 2331 0
 3616 062e 45F63323 		movw	r3, #:lower16:1073764915
 3617 0632 C4F20003 		movt	r3, #:upper16:1073764915
 3618 0636 40F20002 		movw	r2, #:lower16:cyPmBackup
 3619 063a C0F20002 		movt	r2, #:upper16:cyPmBackup
 3620 063e 527E     		ldrb	r2, [r2, #25]	@ zero_extendqisi2
 3621 0640 1A70     		strb	r2, [r3, #0]
2332:.\Generated_Source\PSoC5/cyPm.c ****         CY_SET_REG8(CYREG_SC3_SW4 , cyPmBackup.scctData[24u]);
 3622              		.loc 1 2332 0
 3623 0642 45F63423 		movw	r3, #:lower16:1073764916
 3624 0646 C4F20003 		movt	r3, #:upper16:1073764916
 3625 064a 40F20002 		movw	r2, #:lower16:cyPmBackup
 3626 064e C0F20002 		movt	r2, #:upper16:cyPmBackup
 3627 0652 927E     		ldrb	r2, [r2, #26]	@ zero_extendqisi2
 3628 0654 1A70     		strb	r2, [r3, #0]
2333:.\Generated_Source\PSoC5/cyPm.c ****         CY_SET_REG8(CYREG_SC3_SW6 , cyPmBackup.scctData[25u]);
 3629              		.loc 1 2333 0
 3630 0656 45F63623 		movw	r3, #:lower16:1073764918
 3631 065a C4F20003 		movt	r3, #:upper16:1073764918
 3632 065e 40F20002 		movw	r2, #:lower16:cyPmBackup
 3633 0662 C0F20002 		movt	r2, #:upper16:cyPmBackup
 3634 0666 D27E     		ldrb	r2, [r2, #27]	@ zero_extendqisi2
 3635 0668 1A70     		strb	r2, [r3, #0]
2334:.\Generated_Source\PSoC5/cyPm.c ****         CY_SET_REG8(CYREG_SC3_SW8 , cyPmBackup.scctData[26u]);
 3636              		.loc 1 2334 0
 3637 066a 45F63823 		movw	r3, #:lower16:1073764920
 3638 066e C4F20003 		movt	r3, #:upper16:1073764920
 3639 0672 40F20002 		movw	r2, #:lower16:cyPmBackup
ARM GAS  C:\Users\rmcgarel\AppData\Local\Temp\ccv1YA4O.s 			page 106


 3640 0676 C0F20002 		movt	r2, #:upper16:cyPmBackup
 3641 067a 127F     		ldrb	r2, [r2, #28]	@ zero_extendqisi2
 3642 067c 1A70     		strb	r2, [r3, #0]
2335:.\Generated_Source\PSoC5/cyPm.c ****         CY_SET_REG8(CYREG_SC3_SW10, cyPmBackup.scctData[27u]);
 3643              		.loc 1 2335 0
 3644 067e 45F63A23 		movw	r3, #:lower16:1073764922
 3645 0682 C4F20003 		movt	r3, #:upper16:1073764922
 3646 0686 40F20002 		movw	r2, #:lower16:cyPmBackup
 3647 068a C0F20002 		movt	r2, #:upper16:cyPmBackup
 3648 068e 527F     		ldrb	r2, [r2, #29]	@ zero_extendqisi2
 3649 0690 1A70     		strb	r2, [r3, #0]
2336:.\Generated_Source\PSoC5/cyPm.c **** 
2337:.\Generated_Source\PSoC5/cyPm.c ****     #endif  /* (CY_PSOC3 || CY_PSOC5A || CY_PSOC5LP) */
2338:.\Generated_Source\PSoC5/cyPm.c **** 
2339:.\Generated_Source\PSoC5/cyPm.c **** 
2340:.\Generated_Source\PSoC5/cyPm.c ****     #if(CY_PSOC3)
2341:.\Generated_Source\PSoC5/cyPm.c **** 
2342:.\Generated_Source\PSoC5/cyPm.c ****         /* Serial Wire Viewer (SWV) workaround */
2343:.\Generated_Source\PSoC5/cyPm.c ****         if(CY_PM_ENABLED == cyPmBackup.swvClkEnabled)
2344:.\Generated_Source\PSoC5/cyPm.c ****         {
2345:.\Generated_Source\PSoC5/cyPm.c ****             /* Restore ports drive mode */
2346:.\Generated_Source\PSoC5/cyPm.c ****             CY_PM_PRT1_PC3_REG = (CY_PM_PRT1_PC3_REG & CY_PM_PRT1_PC3_DM_MASK) |
2347:.\Generated_Source\PSoC5/cyPm.c ****                                     cyPmBackup.prt1Dm;
2348:.\Generated_Source\PSoC5/cyPm.c **** 
2349:.\Generated_Source\PSoC5/cyPm.c ****             /* Enable SWV clocks */
2350:.\Generated_Source\PSoC5/cyPm.c ****             CY_PM_MLOGIC_DBG_REG |= CY_PM_MLOGIC_DBG_SWV_CLK_EN;
2351:.\Generated_Source\PSoC5/cyPm.c ****         }
2352:.\Generated_Source\PSoC5/cyPm.c **** 
2353:.\Generated_Source\PSoC5/cyPm.c ****     #endif /* (CY_PSOC3) */
2354:.\Generated_Source\PSoC5/cyPm.c **** 
2355:.\Generated_Source\PSoC5/cyPm.c **** 
2356:.\Generated_Source\PSoC5/cyPm.c ****     #if(CY_PSOC5A)
2357:.\Generated_Source\PSoC5/cyPm.c **** 
2358:.\Generated_Source\PSoC5/cyPm.c ****         /* Restore buzz sleep trim value */
2359:.\Generated_Source\PSoC5/cyPm.c ****         CY_PM_PWRSYS_BUZZ_TR_REG = cyPmBackup.buzzSleepTrim | \
 3650              		.loc 1 2359 0
 3651 0692 44F28463 		movw	r3, #:lower16:1073759876
 3652 0696 C4F20003 		movt	r3, #:upper16:1073759876
 3653 069a 40F20002 		movw	r2, #:lower16:cyPmBackup
 3654 069e C0F20002 		movt	r2, #:upper16:cyPmBackup
 3655 06a2 5178     		ldrb	r1, [r2, #1]	@ zero_extendqisi2
2360:.\Generated_Source\PSoC5/cyPm.c ****                                   (CY_PM_PWRSYS_BUZZ_TR_REG & CY_PM_PWRSYS_BUZZ_TR_MASK);
 3656              		.loc 1 2360 0
 3657 06a4 44F28462 		movw	r2, #:lower16:1073759876
 3658 06a8 C4F20002 		movt	r2, #:upper16:1073759876
 3659 06ac 1278     		ldrb	r2, [r2, #0]
 3660 06ae D2B2     		uxtb	r2, r2
 3661              		.loc 1 2359 0
 3662 06b0 02F0F002 		and	r2, r2, #240
 3663 06b4 41EA0202 		orr	r2, r1, r2
 3664 06b8 D2B2     		uxtb	r2, r2
 3665 06ba 1A70     		strb	r2, [r3, #0]
2361:.\Generated_Source\PSoC5/cyPm.c **** 
2362:.\Generated_Source\PSoC5/cyPm.c ****     #endif  /* (CY_PSOC5A) */
2363:.\Generated_Source\PSoC5/cyPm.c **** 
2364:.\Generated_Source\PSoC5/cyPm.c **** 
2365:.\Generated_Source\PSoC5/cyPm.c ****     /* Restore boost reference */
ARM GAS  C:\Users\rmcgarel\AppData\Local\Temp\ccv1YA4O.s 			page 107


2366:.\Generated_Source\PSoC5/cyPm.c ****     if(CY_PM_ENABLED == cyPmBackup.boostRefExt)
 3666              		.loc 1 2366 0
 3667 06bc 40F20003 		movw	r3, #:lower16:cyPmBackup
 3668 06c0 C0F20003 		movt	r3, #:upper16:cyPmBackup
 3669 06c4 93F8A530 		ldrb	r3, [r3, #165]	@ zero_extendqisi2
 3670 06c8 012B     		cmp	r3, #1
 3671 06ca 0DD1     		bne	.L103
2367:.\Generated_Source\PSoC5/cyPm.c ****     {
2368:.\Generated_Source\PSoC5/cyPm.c ****         CY_PM_BOOST_CR2_REG |= CY_PM_BOOST_CR2_EREFSEL_EXT;
 3672              		.loc 1 2368 0
 3673 06cc 44F22233 		movw	r3, #:lower16:1073759010
 3674 06d0 C4F20003 		movt	r3, #:upper16:1073759010
 3675 06d4 44F22232 		movw	r2, #:lower16:1073759010
 3676 06d8 C4F20002 		movt	r2, #:upper16:1073759010
 3677 06dc 1278     		ldrb	r2, [r2, #0]
 3678 06de D2B2     		uxtb	r2, r2
 3679 06e0 42F00802 		orr	r2, r2, #8
 3680 06e4 D2B2     		uxtb	r2, r2
 3681 06e6 1A70     		strb	r2, [r3, #0]
 3682              	.L103:
2369:.\Generated_Source\PSoC5/cyPm.c ****     }
2370:.\Generated_Source\PSoC5/cyPm.c **** }
 3683              		.loc 1 2370 0
 3684 06e8 BD46     		mov	sp, r7
 3685 06ea 80BC     		pop	{r7}
 3686 06ec 7047     		bx	lr
 3687              		.cfi_endproc
 3688              	.LFE17:
 3689              		.size	CyPmHibSlpRestore, .-CyPmHibSlpRestore
 3690 06ee 00BF     		.section	.text.CyPmHviLviSaveDisable,"ax",%progbits
 3691              		.align	2
 3692              		.thumb
 3693              		.thumb_func
 3694              		.type	CyPmHviLviSaveDisable, %function
 3695              	CyPmHviLviSaveDisable:
 3696              	.LFB18:
2371:.\Generated_Source\PSoC5/cyPm.c **** 
2372:.\Generated_Source\PSoC5/cyPm.c **** 
2373:.\Generated_Source\PSoC5/cyPm.c **** /*******************************************************************************
2374:.\Generated_Source\PSoC5/cyPm.c **** * Function Name: CyPmHviLviSaveDisable
2375:.\Generated_Source\PSoC5/cyPm.c **** ********************************************************************************
2376:.\Generated_Source\PSoC5/cyPm.c **** *
2377:.\Generated_Source\PSoC5/cyPm.c **** * Summary:
2378:.\Generated_Source\PSoC5/cyPm.c **** *  Saves analog and digital LVI and HVI configuration and disables them.
2379:.\Generated_Source\PSoC5/cyPm.c **** *
2380:.\Generated_Source\PSoC5/cyPm.c **** * Parameters:
2381:.\Generated_Source\PSoC5/cyPm.c **** *  None
2382:.\Generated_Source\PSoC5/cyPm.c **** *
2383:.\Generated_Source\PSoC5/cyPm.c **** * Return:
2384:.\Generated_Source\PSoC5/cyPm.c **** *  None
2385:.\Generated_Source\PSoC5/cyPm.c **** *
2386:.\Generated_Source\PSoC5/cyPm.c **** * Reentrant:
2387:.\Generated_Source\PSoC5/cyPm.c **** *  No
2388:.\Generated_Source\PSoC5/cyPm.c **** *
2389:.\Generated_Source\PSoC5/cyPm.c **** *******************************************************************************/
2390:.\Generated_Source\PSoC5/cyPm.c **** static void CyPmHviLviSaveDisable(void) 
2391:.\Generated_Source\PSoC5/cyPm.c **** {
ARM GAS  C:\Users\rmcgarel\AppData\Local\Temp\ccv1YA4O.s 			page 108


 3697              		.loc 1 2391 0
 3698              		.cfi_startproc
 3699              		@ args = 0, pretend = 0, frame = 0
 3700              		@ frame_needed = 1, uses_anonymous_args = 0
 3701 0000 80B5     		push	{r7, lr}
 3702              	.LCFI43:
 3703              		.cfi_def_cfa_offset 8
 3704 0002 00AF     		add	r7, sp, #0
 3705              		.cfi_offset 14, -4
 3706              		.cfi_offset 7, -8
 3707              	.LCFI44:
 3708              		.cfi_def_cfa_register 7
2392:.\Generated_Source\PSoC5/cyPm.c ****     if(0u != (CY_VD_LVI_HVI_CONTROL_REG & CY_VD_LVID_EN))
 3709              		.loc 1 2392 0
 3710 0004 44F2F563 		movw	r3, #:lower16:1073759989
 3711 0008 C4F20003 		movt	r3, #:upper16:1073759989
 3712 000c 1B78     		ldrb	r3, [r3, #0]
 3713 000e DBB2     		uxtb	r3, r3
 3714 0010 03F00103 		and	r3, r3, #1
 3715 0014 DBB2     		uxtb	r3, r3
 3716 0016 002B     		cmp	r3, #0
 3717 0018 21D0     		beq	.L105
2393:.\Generated_Source\PSoC5/cyPm.c ****     {
2394:.\Generated_Source\PSoC5/cyPm.c ****         cyPmBackup.lvidEn = CY_PM_ENABLED;
 3718              		.loc 1 2394 0
 3719 001a 40F20003 		movw	r3, #:lower16:cyPmBackup
 3720 001e C0F20003 		movt	r3, #:upper16:cyPmBackup
 3721 0022 4FF00102 		mov	r2, #1
 3722 0026 83F89C20 		strb	r2, [r3, #156]
2395:.\Generated_Source\PSoC5/cyPm.c ****         cyPmBackup.lvidTrip = CY_VD_LVI_TRIP_REG & CY_VD_LVI_TRIP_LVID_MASK;
 3723              		.loc 1 2395 0
 3724 002a 44F2F463 		movw	r3, #:lower16:1073759988
 3725 002e C4F20003 		movt	r3, #:upper16:1073759988
 3726 0032 1B78     		ldrb	r3, [r3, #0]
 3727 0034 DBB2     		uxtb	r3, r3
 3728 0036 1A46     		mov	r2, r3
 3729 0038 02F00F02 		and	r2, r2, #15
 3730 003c 40F20003 		movw	r3, #:lower16:cyPmBackup
 3731 0040 C0F20003 		movt	r3, #:upper16:cyPmBackup
 3732 0044 83F89D20 		strb	r2, [r3, #157]
2396:.\Generated_Source\PSoC5/cyPm.c **** 
2397:.\Generated_Source\PSoC5/cyPm.c ****         /* Save state of reset device at a specified Vddd threshold */
2398:.\Generated_Source\PSoC5/cyPm.c ****         #if(CY_PSOC5A)
2399:.\Generated_Source\PSoC5/cyPm.c **** 
2400:.\Generated_Source\PSoC5/cyPm.c ****             /* Not applicable PSoC 5 */
2401:.\Generated_Source\PSoC5/cyPm.c ****             cyPmBackup.lvidRst = CY_PM_DISABLED;
 3733              		.loc 1 2401 0
 3734 0048 40F20003 		movw	r3, #:lower16:cyPmBackup
 3735 004c C0F20003 		movt	r3, #:upper16:cyPmBackup
 3736 0050 4FF00002 		mov	r2, #0
 3737 0054 83F8A120 		strb	r2, [r3, #161]
2402:.\Generated_Source\PSoC5/cyPm.c **** 
2403:.\Generated_Source\PSoC5/cyPm.c ****         #else
2404:.\Generated_Source\PSoC5/cyPm.c **** 
2405:.\Generated_Source\PSoC5/cyPm.c ****             cyPmBackup.lvidRst = (0u == (CY_VD_PRES_CONTROL_REG & CY_VD_PRESD_EN)) ? \
2406:.\Generated_Source\PSoC5/cyPm.c ****                                     CY_PM_DISABLED : CY_PM_ENABLED;
2407:.\Generated_Source\PSoC5/cyPm.c **** 
ARM GAS  C:\Users\rmcgarel\AppData\Local\Temp\ccv1YA4O.s 			page 109


2408:.\Generated_Source\PSoC5/cyPm.c ****         #endif  /* (CY_PSOC5A) */
2409:.\Generated_Source\PSoC5/cyPm.c **** 
2410:.\Generated_Source\PSoC5/cyPm.c ****         CyVdLvDigitDisable();
 3738              		.loc 1 2410 0
 3739 0058 FFF7FEFF 		bl	CyVdLvDigitDisable
 3740 005c 07E0     		b	.L106
 3741              	.L105:
2411:.\Generated_Source\PSoC5/cyPm.c ****     }
2412:.\Generated_Source\PSoC5/cyPm.c ****     else
2413:.\Generated_Source\PSoC5/cyPm.c ****     {
2414:.\Generated_Source\PSoC5/cyPm.c ****         cyPmBackup.lvidEn = CY_PM_DISABLED;
 3742              		.loc 1 2414 0
 3743 005e 40F20003 		movw	r3, #:lower16:cyPmBackup
 3744 0062 C0F20003 		movt	r3, #:upper16:cyPmBackup
 3745 0066 4FF00002 		mov	r2, #0
 3746 006a 83F89C20 		strb	r2, [r3, #156]
 3747              	.L106:
2415:.\Generated_Source\PSoC5/cyPm.c ****     }
2416:.\Generated_Source\PSoC5/cyPm.c **** 
2417:.\Generated_Source\PSoC5/cyPm.c ****     if(0u != (CY_VD_LVI_HVI_CONTROL_REG & CY_VD_LVIA_EN))
 3748              		.loc 1 2417 0
 3749 006e 44F2F563 		movw	r3, #:lower16:1073759989
 3750 0072 C4F20003 		movt	r3, #:upper16:1073759989
 3751 0076 1B78     		ldrb	r3, [r3, #0]
 3752 0078 DBB2     		uxtb	r3, r3
 3753 007a 03F00203 		and	r3, r3, #2
 3754 007e 002B     		cmp	r3, #0
 3755 0080 21D0     		beq	.L107
2418:.\Generated_Source\PSoC5/cyPm.c ****     {
2419:.\Generated_Source\PSoC5/cyPm.c ****         cyPmBackup.lviaEn = CY_PM_ENABLED;
 3756              		.loc 1 2419 0
 3757 0082 40F20003 		movw	r3, #:lower16:cyPmBackup
 3758 0086 C0F20003 		movt	r3, #:upper16:cyPmBackup
 3759 008a 4FF00102 		mov	r2, #1
 3760 008e 83F89E20 		strb	r2, [r3, #158]
2420:.\Generated_Source\PSoC5/cyPm.c ****         cyPmBackup.lviaTrip = CY_VD_LVI_TRIP_REG >> 4u;
 3761              		.loc 1 2420 0
 3762 0092 44F2F463 		movw	r3, #:lower16:1073759988
 3763 0096 C4F20003 		movt	r3, #:upper16:1073759988
 3764 009a 1B78     		ldrb	r3, [r3, #0]
 3765 009c DBB2     		uxtb	r3, r3
 3766 009e 4FEA1313 		lsr	r3, r3, #4
 3767 00a2 DAB2     		uxtb	r2, r3
 3768 00a4 40F20003 		movw	r3, #:lower16:cyPmBackup
 3769 00a8 C0F20003 		movt	r3, #:upper16:cyPmBackup
 3770 00ac 83F89F20 		strb	r2, [r3, #159]
2421:.\Generated_Source\PSoC5/cyPm.c **** 
2422:.\Generated_Source\PSoC5/cyPm.c ****         /* Save state of reset device at a specified Vdda threshold */
2423:.\Generated_Source\PSoC5/cyPm.c ****         #if(CY_PSOC5A)
2424:.\Generated_Source\PSoC5/cyPm.c **** 
2425:.\Generated_Source\PSoC5/cyPm.c ****             /* Not applicable PSoC 5 */
2426:.\Generated_Source\PSoC5/cyPm.c ****             cyPmBackup.lviaRst = CY_PM_DISABLED;
 3771              		.loc 1 2426 0
 3772 00b0 40F20003 		movw	r3, #:lower16:cyPmBackup
 3773 00b4 C0F20003 		movt	r3, #:upper16:cyPmBackup
 3774 00b8 4FF00002 		mov	r2, #0
 3775 00bc 83F8A220 		strb	r2, [r3, #162]
ARM GAS  C:\Users\rmcgarel\AppData\Local\Temp\ccv1YA4O.s 			page 110


2427:.\Generated_Source\PSoC5/cyPm.c **** 
2428:.\Generated_Source\PSoC5/cyPm.c ****         #else
2429:.\Generated_Source\PSoC5/cyPm.c **** 
2430:.\Generated_Source\PSoC5/cyPm.c ****             cyPmBackup.lviaRst = (0u == (CY_VD_PRES_CONTROL_REG & CY_VD_PRESA_EN)) ? \
2431:.\Generated_Source\PSoC5/cyPm.c ****                                     CY_PM_DISABLED : CY_PM_ENABLED;
2432:.\Generated_Source\PSoC5/cyPm.c **** 
2433:.\Generated_Source\PSoC5/cyPm.c ****         #endif  /* (CY_PSOC5A) */
2434:.\Generated_Source\PSoC5/cyPm.c **** 
2435:.\Generated_Source\PSoC5/cyPm.c ****         CyVdLvAnalogDisable();
 3776              		.loc 1 2435 0
 3777 00c0 FFF7FEFF 		bl	CyVdLvAnalogDisable
 3778 00c4 07E0     		b	.L108
 3779              	.L107:
2436:.\Generated_Source\PSoC5/cyPm.c ****     }
2437:.\Generated_Source\PSoC5/cyPm.c ****     else
2438:.\Generated_Source\PSoC5/cyPm.c ****     {
2439:.\Generated_Source\PSoC5/cyPm.c ****         cyPmBackup.lviaEn = CY_PM_DISABLED;
 3780              		.loc 1 2439 0
 3781 00c6 40F20003 		movw	r3, #:lower16:cyPmBackup
 3782 00ca C0F20003 		movt	r3, #:upper16:cyPmBackup
 3783 00ce 4FF00002 		mov	r2, #0
 3784 00d2 83F89E20 		strb	r2, [r3, #158]
 3785              	.L108:
2440:.\Generated_Source\PSoC5/cyPm.c ****     }
2441:.\Generated_Source\PSoC5/cyPm.c **** 
2442:.\Generated_Source\PSoC5/cyPm.c ****     if(0u != (CY_VD_LVI_HVI_CONTROL_REG & CY_VD_HVIA_EN))
 3786              		.loc 1 2442 0
 3787 00d6 44F2F563 		movw	r3, #:lower16:1073759989
 3788 00da C4F20003 		movt	r3, #:upper16:1073759989
 3789 00de 1B78     		ldrb	r3, [r3, #0]
 3790 00e0 DBB2     		uxtb	r3, r3
 3791 00e2 03F00403 		and	r3, r3, #4
 3792 00e6 002B     		cmp	r3, #0
 3793 00e8 0AD0     		beq	.L109
2443:.\Generated_Source\PSoC5/cyPm.c ****     {
2444:.\Generated_Source\PSoC5/cyPm.c ****         cyPmBackup.hviaEn = CY_PM_ENABLED;
 3794              		.loc 1 2444 0
 3795 00ea 40F20003 		movw	r3, #:lower16:cyPmBackup
 3796 00ee C0F20003 		movt	r3, #:upper16:cyPmBackup
 3797 00f2 4FF00102 		mov	r2, #1
 3798 00f6 83F8A020 		strb	r2, [r3, #160]
2445:.\Generated_Source\PSoC5/cyPm.c ****         CyVdHvAnalogDisable();
 3799              		.loc 1 2445 0
 3800 00fa FFF7FEFF 		bl	CyVdHvAnalogDisable
 3801 00fe 07E0     		b	.L111
 3802              	.L109:
2446:.\Generated_Source\PSoC5/cyPm.c ****     }
2447:.\Generated_Source\PSoC5/cyPm.c ****     else
2448:.\Generated_Source\PSoC5/cyPm.c ****     {
2449:.\Generated_Source\PSoC5/cyPm.c ****         cyPmBackup.hviaEn = CY_PM_DISABLED;
 3803              		.loc 1 2449 0
 3804 0100 40F20003 		movw	r3, #:lower16:cyPmBackup
 3805 0104 C0F20003 		movt	r3, #:upper16:cyPmBackup
 3806 0108 4FF00002 		mov	r2, #0
 3807 010c 83F8A020 		strb	r2, [r3, #160]
 3808              	.L111:
2450:.\Generated_Source\PSoC5/cyPm.c ****     }
ARM GAS  C:\Users\rmcgarel\AppData\Local\Temp\ccv1YA4O.s 			page 111


2451:.\Generated_Source\PSoC5/cyPm.c **** }
 3809              		.loc 1 2451 0
 3810 0110 80BD     		pop	{r7, pc}
 3811              		.cfi_endproc
 3812              	.LFE18:
 3813              		.size	CyPmHviLviSaveDisable, .-CyPmHviLviSaveDisable
 3814 0112 00BF     		.section	.text.CyPmHviLviRestore,"ax",%progbits
 3815              		.align	2
 3816              		.thumb
 3817              		.thumb_func
 3818              		.type	CyPmHviLviRestore, %function
 3819              	CyPmHviLviRestore:
 3820              	.LFB19:
2452:.\Generated_Source\PSoC5/cyPm.c **** 
2453:.\Generated_Source\PSoC5/cyPm.c **** 
2454:.\Generated_Source\PSoC5/cyPm.c **** /*******************************************************************************
2455:.\Generated_Source\PSoC5/cyPm.c **** * Function Name: CyPmHviLviRestore
2456:.\Generated_Source\PSoC5/cyPm.c **** ********************************************************************************
2457:.\Generated_Source\PSoC5/cyPm.c **** *
2458:.\Generated_Source\PSoC5/cyPm.c **** * Summary:
2459:.\Generated_Source\PSoC5/cyPm.c **** *  Restores analog and digital LVI and HVI configuration.
2460:.\Generated_Source\PSoC5/cyPm.c **** *
2461:.\Generated_Source\PSoC5/cyPm.c **** * Parameters:
2462:.\Generated_Source\PSoC5/cyPm.c **** *  None
2463:.\Generated_Source\PSoC5/cyPm.c **** *
2464:.\Generated_Source\PSoC5/cyPm.c **** * Return:
2465:.\Generated_Source\PSoC5/cyPm.c **** *  None
2466:.\Generated_Source\PSoC5/cyPm.c **** *
2467:.\Generated_Source\PSoC5/cyPm.c **** * Reentrant:
2468:.\Generated_Source\PSoC5/cyPm.c **** *  No
2469:.\Generated_Source\PSoC5/cyPm.c **** *
2470:.\Generated_Source\PSoC5/cyPm.c **** *******************************************************************************/
2471:.\Generated_Source\PSoC5/cyPm.c **** static void CyPmHviLviRestore(void) 
2472:.\Generated_Source\PSoC5/cyPm.c **** {
 3821              		.loc 1 2472 0
 3822              		.cfi_startproc
 3823              		@ args = 0, pretend = 0, frame = 0
 3824              		@ frame_needed = 1, uses_anonymous_args = 0
 3825 0000 80B5     		push	{r7, lr}
 3826              	.LCFI45:
 3827              		.cfi_def_cfa_offset 8
 3828 0002 00AF     		add	r7, sp, #0
 3829              		.cfi_offset 14, -4
 3830              		.cfi_offset 7, -8
 3831              	.LCFI46:
 3832              		.cfi_def_cfa_register 7
2473:.\Generated_Source\PSoC5/cyPm.c ****     /* Restore LVI/HVI configuration */
2474:.\Generated_Source\PSoC5/cyPm.c ****     if(CY_PM_ENABLED == cyPmBackup.lvidEn)
 3833              		.loc 1 2474 0
 3834 0004 40F20003 		movw	r3, #:lower16:cyPmBackup
 3835 0008 C0F20003 		movt	r3, #:upper16:cyPmBackup
 3836 000c 93F89C30 		ldrb	r3, [r3, #156]	@ zero_extendqisi2
 3837 0010 012B     		cmp	r3, #1
 3838 0012 0FD1     		bne	.L113
2475:.\Generated_Source\PSoC5/cyPm.c ****     {
2476:.\Generated_Source\PSoC5/cyPm.c ****         CyVdLvDigitEnable(cyPmBackup.lvidRst, cyPmBackup.lvidTrip);
 3839              		.loc 1 2476 0
ARM GAS  C:\Users\rmcgarel\AppData\Local\Temp\ccv1YA4O.s 			page 112


 3840 0014 40F20003 		movw	r3, #:lower16:cyPmBackup
 3841 0018 C0F20003 		movt	r3, #:upper16:cyPmBackup
 3842 001c 93F8A120 		ldrb	r2, [r3, #161]	@ zero_extendqisi2
 3843 0020 40F20003 		movw	r3, #:lower16:cyPmBackup
 3844 0024 C0F20003 		movt	r3, #:upper16:cyPmBackup
 3845 0028 93F89D30 		ldrb	r3, [r3, #157]	@ zero_extendqisi2
 3846 002c 1046     		mov	r0, r2
 3847 002e 1946     		mov	r1, r3
 3848 0030 FFF7FEFF 		bl	CyVdLvDigitEnable
 3849              	.L113:
2477:.\Generated_Source\PSoC5/cyPm.c ****     }
2478:.\Generated_Source\PSoC5/cyPm.c **** 
2479:.\Generated_Source\PSoC5/cyPm.c ****     if(CY_PM_ENABLED == cyPmBackup.lviaEn)
 3850              		.loc 1 2479 0
 3851 0034 40F20003 		movw	r3, #:lower16:cyPmBackup
 3852 0038 C0F20003 		movt	r3, #:upper16:cyPmBackup
 3853 003c 93F89E30 		ldrb	r3, [r3, #158]	@ zero_extendqisi2
 3854 0040 012B     		cmp	r3, #1
 3855 0042 0FD1     		bne	.L114
2480:.\Generated_Source\PSoC5/cyPm.c ****     {
2481:.\Generated_Source\PSoC5/cyPm.c ****         CyVdLvAnalogEnable(cyPmBackup.lviaRst, cyPmBackup.lviaTrip);
 3856              		.loc 1 2481 0
 3857 0044 40F20003 		movw	r3, #:lower16:cyPmBackup
 3858 0048 C0F20003 		movt	r3, #:upper16:cyPmBackup
 3859 004c 93F8A220 		ldrb	r2, [r3, #162]	@ zero_extendqisi2
 3860 0050 40F20003 		movw	r3, #:lower16:cyPmBackup
 3861 0054 C0F20003 		movt	r3, #:upper16:cyPmBackup
 3862 0058 93F89F30 		ldrb	r3, [r3, #159]	@ zero_extendqisi2
 3863 005c 1046     		mov	r0, r2
 3864 005e 1946     		mov	r1, r3
 3865 0060 FFF7FEFF 		bl	CyVdLvAnalogEnable
 3866              	.L114:
2482:.\Generated_Source\PSoC5/cyPm.c ****     }
2483:.\Generated_Source\PSoC5/cyPm.c **** 
2484:.\Generated_Source\PSoC5/cyPm.c ****     if(CY_PM_ENABLED == cyPmBackup.hviaEn)
 3867              		.loc 1 2484 0
 3868 0064 40F20003 		movw	r3, #:lower16:cyPmBackup
 3869 0068 C0F20003 		movt	r3, #:upper16:cyPmBackup
 3870 006c 93F8A030 		ldrb	r3, [r3, #160]	@ zero_extendqisi2
 3871 0070 012B     		cmp	r3, #1
 3872 0072 01D1     		bne	.L116
2485:.\Generated_Source\PSoC5/cyPm.c ****     {
2486:.\Generated_Source\PSoC5/cyPm.c ****         CyVdHvAnalogEnable();
 3873              		.loc 1 2486 0
 3874 0074 FFF7FEFF 		bl	CyVdHvAnalogEnable
 3875              	.L116:
2487:.\Generated_Source\PSoC5/cyPm.c ****     }
2488:.\Generated_Source\PSoC5/cyPm.c **** }
 3876              		.loc 1 2488 0
 3877 0078 80BD     		pop	{r7, pc}
 3878              		.cfi_endproc
 3879              	.LFE19:
 3880              		.size	CyPmHviLviRestore, .-CyPmHviLviRestore
 3881 007a 00BF     		.bss
 3882              	interruptStatus.2339:
 3883 00ba 00       		.space	1
 3884 00bb 00       		.section	.rodata
ARM GAS  C:\Users\rmcgarel\AppData\Local\Temp\ccv1YA4O.s 			page 113


 3885 0007 00       		.align	2
 3886              		.type	C.2.2081, %object
 3887              		.size	C.2.2081, 7
 3888              	C.2.2081:
 3889 0008 02       		.byte	2
 3890 0009 01       		.byte	1
 3891 000a 03       		.byte	3
 3892 000b 00       		.byte	0
 3893 000c 04       		.byte	4
 3894 000d 05       		.byte	5
 3895 000e 06       		.byte	6
 3896 000f 00       		.text
 3897              	.Letext0:
 3898              		.section	.debug_loc,"",%progbits
 3899              	.Ldebug_loc0:
 3900              	.LLST0:
 3901 0000 00000000 		.4byte	.LFB0
 3902 0004 02000000 		.4byte	.LCFI0
 3903 0008 0100     		.2byte	0x1
 3904 000a 5D       		.byte	0x5d
 3905 000b 02000000 		.4byte	.LCFI0
 3906 000f 04000000 		.4byte	.LCFI1
 3907 0013 0200     		.2byte	0x2
 3908 0015 7D       		.byte	0x7d
 3909 0016 08       		.sleb128 8
 3910 0017 04000000 		.4byte	.LCFI1
 3911 001b 50030000 		.4byte	.LFE0
 3912 001f 0200     		.2byte	0x2
 3913 0021 77       		.byte	0x77
 3914 0022 08       		.sleb128 8
 3915 0023 00000000 		.4byte	0x0
 3916 0027 00000000 		.4byte	0x0
 3917              	.LLST1:
 3918 002b 00000000 		.4byte	.LFB1
 3919 002f 02000000 		.4byte	.LCFI2
 3920 0033 0100     		.2byte	0x1
 3921 0035 5D       		.byte	0x5d
 3922 0036 02000000 		.4byte	.LCFI2
 3923 003a 04000000 		.4byte	.LCFI3
 3924 003e 0200     		.2byte	0x2
 3925 0040 7D       		.byte	0x7d
 3926 0041 08       		.sleb128 8
 3927 0042 04000000 		.4byte	.LCFI3
 3928 0046 06000000 		.4byte	.LCFI4
 3929 004a 0200     		.2byte	0x2
 3930 004c 7D       		.byte	0x7d
 3931 004d 10       		.sleb128 16
 3932 004e 06000000 		.4byte	.LCFI4
 3933 0052 BA030000 		.4byte	.LFE1
 3934 0056 0200     		.2byte	0x2
 3935 0058 77       		.byte	0x77
 3936 0059 10       		.sleb128 16
 3937 005a 00000000 		.4byte	0x0
 3938 005e 00000000 		.4byte	0x0
 3939              	.LLST2:
 3940 0062 00000000 		.4byte	.LFB2
 3941 0066 02000000 		.4byte	.LCFI5
ARM GAS  C:\Users\rmcgarel\AppData\Local\Temp\ccv1YA4O.s 			page 114


 3942 006a 0100     		.2byte	0x1
 3943 006c 5D       		.byte	0x5d
 3944 006d 02000000 		.4byte	.LCFI5
 3945 0071 04000000 		.4byte	.LCFI6
 3946 0075 0200     		.2byte	0x2
 3947 0077 7D       		.byte	0x7d
 3948 0078 08       		.sleb128 8
 3949 0079 04000000 		.4byte	.LCFI6
 3950 007d 06000000 		.4byte	.LCFI7
 3951 0081 0200     		.2byte	0x2
 3952 0083 7D       		.byte	0x7d
 3953 0084 10       		.sleb128 16
 3954 0085 06000000 		.4byte	.LCFI7
 3955 0089 62000000 		.4byte	.LFE2
 3956 008d 0200     		.2byte	0x2
 3957 008f 77       		.byte	0x77
 3958 0090 10       		.sleb128 16
 3959 0091 00000000 		.4byte	0x0
 3960 0095 00000000 		.4byte	0x0
 3961              	.LLST3:
 3962 0099 00000000 		.4byte	.LFB3
 3963 009d 02000000 		.4byte	.LCFI8
 3964 00a1 0100     		.2byte	0x1
 3965 00a3 5D       		.byte	0x5d
 3966 00a4 02000000 		.4byte	.LCFI8
 3967 00a8 04000000 		.4byte	.LCFI9
 3968 00ac 0200     		.2byte	0x2
 3969 00ae 7D       		.byte	0x7d
 3970 00af 08       		.sleb128 8
 3971 00b0 04000000 		.4byte	.LCFI9
 3972 00b4 06000000 		.4byte	.LCFI10
 3973 00b8 0200     		.2byte	0x2
 3974 00ba 7D       		.byte	0x7d
 3975 00bb 18       		.sleb128 24
 3976 00bc 06000000 		.4byte	.LCFI10
 3977 00c0 2E010000 		.4byte	.LFE3
 3978 00c4 0200     		.2byte	0x2
 3979 00c6 77       		.byte	0x77
 3980 00c7 18       		.sleb128 24
 3981 00c8 00000000 		.4byte	0x0
 3982 00cc 00000000 		.4byte	0x0
 3983              	.LLST4:
 3984 00d0 00000000 		.4byte	.LFB4
 3985 00d4 02000000 		.4byte	.LCFI11
 3986 00d8 0100     		.2byte	0x1
 3987 00da 5D       		.byte	0x5d
 3988 00db 02000000 		.4byte	.LCFI11
 3989 00df 04000000 		.4byte	.LCFI12
 3990 00e3 0200     		.2byte	0x2
 3991 00e5 7D       		.byte	0x7d
 3992 00e6 08       		.sleb128 8
 3993 00e7 04000000 		.4byte	.LCFI12
 3994 00eb 06000000 		.4byte	.LCFI13
 3995 00ef 0200     		.2byte	0x2
 3996 00f1 7D       		.byte	0x7d
 3997 00f2 10       		.sleb128 16
 3998 00f3 06000000 		.4byte	.LCFI13
ARM GAS  C:\Users\rmcgarel\AppData\Local\Temp\ccv1YA4O.s 			page 115


 3999 00f7 0A010000 		.4byte	.LFE4
 4000 00fb 0200     		.2byte	0x2
 4001 00fd 77       		.byte	0x77
 4002 00fe 10       		.sleb128 16
 4003 00ff 00000000 		.4byte	0x0
 4004 0103 00000000 		.4byte	0x0
 4005              	.LLST5:
 4006 0107 00000000 		.4byte	.LFB5
 4007 010b 02000000 		.4byte	.LCFI14
 4008 010f 0100     		.2byte	0x1
 4009 0111 5D       		.byte	0x5d
 4010 0112 02000000 		.4byte	.LCFI14
 4011 0116 04000000 		.4byte	.LCFI15
 4012 011a 0200     		.2byte	0x2
 4013 011c 7D       		.byte	0x7d
 4014 011d 08       		.sleb128 8
 4015 011e 04000000 		.4byte	.LCFI15
 4016 0122 06000000 		.4byte	.LCFI16
 4017 0126 0200     		.2byte	0x2
 4018 0128 7D       		.byte	0x7d
 4019 0129 18       		.sleb128 24
 4020 012a 06000000 		.4byte	.LCFI16
 4021 012e 7A000000 		.4byte	.LFE5
 4022 0132 0200     		.2byte	0x2
 4023 0134 77       		.byte	0x77
 4024 0135 18       		.sleb128 24
 4025 0136 00000000 		.4byte	0x0
 4026 013a 00000000 		.4byte	0x0
 4027              	.LLST6:
 4028 013e 00000000 		.4byte	.LFB6
 4029 0142 02000000 		.4byte	.LCFI17
 4030 0146 0100     		.2byte	0x1
 4031 0148 5D       		.byte	0x5d
 4032 0149 02000000 		.4byte	.LCFI17
 4033 014d 04000000 		.4byte	.LCFI18
 4034 0151 0200     		.2byte	0x2
 4035 0153 7D       		.byte	0x7d
 4036 0154 08       		.sleb128 8
 4037 0155 04000000 		.4byte	.LCFI18
 4038 0159 5E000000 		.4byte	.LFE6
 4039 015d 0200     		.2byte	0x2
 4040 015f 77       		.byte	0x77
 4041 0160 08       		.sleb128 8
 4042 0161 00000000 		.4byte	0x0
 4043 0165 00000000 		.4byte	0x0
 4044              	.LLST7:
 4045 0169 00000000 		.4byte	.LFB7
 4046 016d 02000000 		.4byte	.LCFI19
 4047 0171 0100     		.2byte	0x1
 4048 0173 5D       		.byte	0x5d
 4049 0174 02000000 		.4byte	.LCFI19
 4050 0178 04000000 		.4byte	.LCFI20
 4051 017c 0200     		.2byte	0x2
 4052 017e 7D       		.byte	0x7d
 4053 017f 08       		.sleb128 8
 4054 0180 04000000 		.4byte	.LCFI20
 4055 0184 38000000 		.4byte	.LFE7
ARM GAS  C:\Users\rmcgarel\AppData\Local\Temp\ccv1YA4O.s 			page 116


 4056 0188 0200     		.2byte	0x2
 4057 018a 77       		.byte	0x77
 4058 018b 08       		.sleb128 8
 4059 018c 00000000 		.4byte	0x0
 4060 0190 00000000 		.4byte	0x0
 4061              	.LLST8:
 4062 0194 00000000 		.4byte	.LFB8
 4063 0198 02000000 		.4byte	.LCFI21
 4064 019c 0100     		.2byte	0x1
 4065 019e 5D       		.byte	0x5d
 4066 019f 02000000 		.4byte	.LCFI21
 4067 01a3 04000000 		.4byte	.LCFI22
 4068 01a7 0200     		.2byte	0x2
 4069 01a9 7D       		.byte	0x7d
 4070 01aa 08       		.sleb128 8
 4071 01ab 04000000 		.4byte	.LCFI22
 4072 01af 06000000 		.4byte	.LCFI23
 4073 01b3 0200     		.2byte	0x2
 4074 01b5 7D       		.byte	0x7d
 4075 01b6 10       		.sleb128 16
 4076 01b7 06000000 		.4byte	.LCFI23
 4077 01bb D8000000 		.4byte	.LFE8
 4078 01bf 0200     		.2byte	0x2
 4079 01c1 77       		.byte	0x77
 4080 01c2 10       		.sleb128 16
 4081 01c3 00000000 		.4byte	0x0
 4082 01c7 00000000 		.4byte	0x0
 4083              	.LLST9:
 4084 01cb 00000000 		.4byte	.LFB9
 4085 01cf 02000000 		.4byte	.LCFI24
 4086 01d3 0100     		.2byte	0x1
 4087 01d5 5D       		.byte	0x5d
 4088 01d6 02000000 		.4byte	.LCFI24
 4089 01da 04000000 		.4byte	.LCFI25
 4090 01de 0200     		.2byte	0x2
 4091 01e0 7D       		.byte	0x7d
 4092 01e1 08       		.sleb128 8
 4093 01e2 04000000 		.4byte	.LCFI25
 4094 01e6 54000000 		.4byte	.LFE9
 4095 01ea 0200     		.2byte	0x2
 4096 01ec 77       		.byte	0x77
 4097 01ed 08       		.sleb128 8
 4098 01ee 00000000 		.4byte	0x0
 4099 01f2 00000000 		.4byte	0x0
 4100              	.LLST10:
 4101 01f6 00000000 		.4byte	.LFB10
 4102 01fa 02000000 		.4byte	.LCFI26
 4103 01fe 0100     		.2byte	0x1
 4104 0200 5D       		.byte	0x5d
 4105 0201 02000000 		.4byte	.LCFI26
 4106 0205 04000000 		.4byte	.LCFI27
 4107 0209 0200     		.2byte	0x2
 4108 020b 7D       		.byte	0x7d
 4109 020c 08       		.sleb128 8
 4110 020d 04000000 		.4byte	.LCFI27
 4111 0211 06000000 		.4byte	.LCFI28
 4112 0215 0200     		.2byte	0x2
ARM GAS  C:\Users\rmcgarel\AppData\Local\Temp\ccv1YA4O.s 			page 117


 4113 0217 7D       		.byte	0x7d
 4114 0218 10       		.sleb128 16
 4115 0219 06000000 		.4byte	.LCFI28
 4116 021d DA000000 		.4byte	.LFE10
 4117 0221 0200     		.2byte	0x2
 4118 0223 77       		.byte	0x77
 4119 0224 10       		.sleb128 16
 4120 0225 00000000 		.4byte	0x0
 4121 0229 00000000 		.4byte	0x0
 4122              	.LLST11:
 4123 022d 00000000 		.4byte	.LFB11
 4124 0231 02000000 		.4byte	.LCFI29
 4125 0235 0100     		.2byte	0x1
 4126 0237 5D       		.byte	0x5d
 4127 0238 02000000 		.4byte	.LCFI29
 4128 023c 04000000 		.4byte	.LCFI30
 4129 0240 0200     		.2byte	0x2
 4130 0242 7D       		.byte	0x7d
 4131 0243 08       		.sleb128 8
 4132 0244 04000000 		.4byte	.LCFI30
 4133 0248 4C000000 		.4byte	.LFE11
 4134 024c 0200     		.2byte	0x2
 4135 024e 77       		.byte	0x77
 4136 024f 08       		.sleb128 8
 4137 0250 00000000 		.4byte	0x0
 4138 0254 00000000 		.4byte	0x0
 4139              	.LLST12:
 4140 0258 00000000 		.4byte	.LFB12
 4141 025c 02000000 		.4byte	.LCFI31
 4142 0260 0100     		.2byte	0x1
 4143 0262 5D       		.byte	0x5d
 4144 0263 02000000 		.4byte	.LCFI31
 4145 0267 04000000 		.4byte	.LCFI32
 4146 026b 0200     		.2byte	0x2
 4147 026d 7D       		.byte	0x7d
 4148 026e 08       		.sleb128 8
 4149 026f 04000000 		.4byte	.LCFI32
 4150 0273 42000000 		.4byte	.LFE12
 4151 0277 0200     		.2byte	0x2
 4152 0279 77       		.byte	0x77
 4153 027a 08       		.sleb128 8
 4154 027b 00000000 		.4byte	0x0
 4155 027f 00000000 		.4byte	0x0
 4156              	.LLST13:
 4157 0283 00000000 		.4byte	.LFB13
 4158 0287 02000000 		.4byte	.LCFI33
 4159 028b 0100     		.2byte	0x1
 4160 028d 5D       		.byte	0x5d
 4161 028e 02000000 		.4byte	.LCFI33
 4162 0292 04000000 		.4byte	.LCFI34
 4163 0296 0200     		.2byte	0x2
 4164 0298 7D       		.byte	0x7d
 4165 0299 08       		.sleb128 8
 4166 029a 04000000 		.4byte	.LCFI34
 4167 029e 4C000000 		.4byte	.LFE13
 4168 02a2 0200     		.2byte	0x2
 4169 02a4 77       		.byte	0x77
ARM GAS  C:\Users\rmcgarel\AppData\Local\Temp\ccv1YA4O.s 			page 118


 4170 02a5 08       		.sleb128 8
 4171 02a6 00000000 		.4byte	0x0
 4172 02aa 00000000 		.4byte	0x0
 4173              	.LLST14:
 4174 02ae 00000000 		.4byte	.LFB14
 4175 02b2 02000000 		.4byte	.LCFI35
 4176 02b6 0100     		.2byte	0x1
 4177 02b8 5D       		.byte	0x5d
 4178 02b9 02000000 		.4byte	.LCFI35
 4179 02bd 04000000 		.4byte	.LCFI36
 4180 02c1 0200     		.2byte	0x2
 4181 02c3 7D       		.byte	0x7d
 4182 02c4 08       		.sleb128 8
 4183 02c5 04000000 		.4byte	.LCFI36
 4184 02c9 2E010000 		.4byte	.LFE14
 4185 02cd 0200     		.2byte	0x2
 4186 02cf 77       		.byte	0x77
 4187 02d0 08       		.sleb128 8
 4188 02d1 00000000 		.4byte	0x0
 4189 02d5 00000000 		.4byte	0x0
 4190              	.LLST15:
 4191 02d9 00000000 		.4byte	.LFB15
 4192 02dd 02000000 		.4byte	.LCFI37
 4193 02e1 0100     		.2byte	0x1
 4194 02e3 5D       		.byte	0x5d
 4195 02e4 02000000 		.4byte	.LCFI37
 4196 02e8 04000000 		.4byte	.LCFI38
 4197 02ec 0200     		.2byte	0x2
 4198 02ee 7D       		.byte	0x7d
 4199 02ef 08       		.sleb128 8
 4200 02f0 04000000 		.4byte	.LCFI38
 4201 02f4 A2000000 		.4byte	.LFE15
 4202 02f8 0200     		.2byte	0x2
 4203 02fa 77       		.byte	0x77
 4204 02fb 08       		.sleb128 8
 4205 02fc 00000000 		.4byte	0x0
 4206 0300 00000000 		.4byte	0x0
 4207              	.LLST16:
 4208 0304 00000000 		.4byte	.LFB16
 4209 0308 02000000 		.4byte	.LCFI39
 4210 030c 0100     		.2byte	0x1
 4211 030e 5D       		.byte	0x5d
 4212 030f 02000000 		.4byte	.LCFI39
 4213 0313 04000000 		.4byte	.LCFI40
 4214 0317 0200     		.2byte	0x2
 4215 0319 7D       		.byte	0x7d
 4216 031a 04       		.sleb128 4
 4217 031b 04000000 		.4byte	.LCFI40
 4218 031f D80B0000 		.4byte	.LFE16
 4219 0323 0200     		.2byte	0x2
 4220 0325 77       		.byte	0x77
 4221 0326 04       		.sleb128 4
 4222 0327 00000000 		.4byte	0x0
 4223 032b 00000000 		.4byte	0x0
 4224              	.LLST17:
 4225 032f 00000000 		.4byte	.LFB17
 4226 0333 02000000 		.4byte	.LCFI41
ARM GAS  C:\Users\rmcgarel\AppData\Local\Temp\ccv1YA4O.s 			page 119


 4227 0337 0100     		.2byte	0x1
 4228 0339 5D       		.byte	0x5d
 4229 033a 02000000 		.4byte	.LCFI41
 4230 033e 04000000 		.4byte	.LCFI42
 4231 0342 0200     		.2byte	0x2
 4232 0344 7D       		.byte	0x7d
 4233 0345 04       		.sleb128 4
 4234 0346 04000000 		.4byte	.LCFI42
 4235 034a EE060000 		.4byte	.LFE17
 4236 034e 0200     		.2byte	0x2
 4237 0350 77       		.byte	0x77
 4238 0351 04       		.sleb128 4
 4239 0352 00000000 		.4byte	0x0
 4240 0356 00000000 		.4byte	0x0
 4241              	.LLST18:
 4242 035a 00000000 		.4byte	.LFB18
 4243 035e 02000000 		.4byte	.LCFI43
 4244 0362 0100     		.2byte	0x1
 4245 0364 5D       		.byte	0x5d
 4246 0365 02000000 		.4byte	.LCFI43
 4247 0369 04000000 		.4byte	.LCFI44
 4248 036d 0200     		.2byte	0x2
 4249 036f 7D       		.byte	0x7d
 4250 0370 08       		.sleb128 8
 4251 0371 04000000 		.4byte	.LCFI44
 4252 0375 12010000 		.4byte	.LFE18
 4253 0379 0200     		.2byte	0x2
 4254 037b 77       		.byte	0x77
 4255 037c 08       		.sleb128 8
 4256 037d 00000000 		.4byte	0x0
 4257 0381 00000000 		.4byte	0x0
 4258              	.LLST19:
 4259 0385 00000000 		.4byte	.LFB19
 4260 0389 02000000 		.4byte	.LCFI45
 4261 038d 0100     		.2byte	0x1
 4262 038f 5D       		.byte	0x5d
 4263 0390 02000000 		.4byte	.LCFI45
 4264 0394 04000000 		.4byte	.LCFI46
 4265 0398 0200     		.2byte	0x2
 4266 039a 7D       		.byte	0x7d
 4267 039b 08       		.sleb128 8
 4268 039c 04000000 		.4byte	.LCFI46
 4269 03a0 7A000000 		.4byte	.LFE19
 4270 03a4 0200     		.2byte	0x2
 4271 03a6 77       		.byte	0x77
 4272 03a7 08       		.sleb128 8
 4273 03a8 00000000 		.4byte	0x0
 4274 03ac 00000000 		.4byte	0x0
 4275              		.file 2 ".\\Generated_Source\\PSoC5\\/cytypes.h"
 4276              		.file 3 ".\\Generated_Source\\PSoC5\\/cyPm.h"
 4277              		.section	.debug_info
 4278 0000 3A060000 		.4byte	0x63a
 4279 0004 0200     		.2byte	0x2
 4280 0006 00000000 		.4byte	.Ldebug_abbrev0
 4281 000a 04       		.byte	0x4
 4282 000b 01       		.uleb128 0x1
 4283 000c C4000000 		.4byte	.LASF85
ARM GAS  C:\Users\rmcgarel\AppData\Local\Temp\ccv1YA4O.s 			page 120


 4284 0010 01       		.byte	0x1
 4285 0011 4B010000 		.4byte	.LASF86
 4286 0015 2A040000 		.4byte	.LASF87
 4287 0019 00000000 		.4byte	0x0
 4288 001d 00000000 		.4byte	0x0
 4289 0021 00000000 		.4byte	.Ldebug_ranges0+0x0
 4290 0025 00000000 		.4byte	.Ldebug_line0
 4291 0029 02       		.uleb128 0x2
 4292 002a 01       		.byte	0x1
 4293 002b 06       		.byte	0x6
 4294 002c F8000000 		.4byte	.LASF0
 4295 0030 02       		.uleb128 0x2
 4296 0031 01       		.byte	0x1
 4297 0032 08       		.byte	0x8
 4298 0033 DF020000 		.4byte	.LASF1
 4299 0037 02       		.uleb128 0x2
 4300 0038 02       		.byte	0x2
 4301 0039 05       		.byte	0x5
 4302 003a 0C030000 		.4byte	.LASF2
 4303 003e 02       		.uleb128 0x2
 4304 003f 02       		.byte	0x2
 4305 0040 07       		.byte	0x7
 4306 0041 10020000 		.4byte	.LASF3
 4307 0045 02       		.uleb128 0x2
 4308 0046 04       		.byte	0x4
 4309 0047 05       		.byte	0x5
 4310 0048 23010000 		.4byte	.LASF4
 4311 004c 02       		.uleb128 0x2
 4312 004d 04       		.byte	0x4
 4313 004e 07       		.byte	0x7
 4314 004f B6010000 		.4byte	.LASF5
 4315 0053 02       		.uleb128 0x2
 4316 0054 08       		.byte	0x8
 4317 0055 05       		.byte	0x5
 4318 0056 EA000000 		.4byte	.LASF6
 4319 005a 02       		.uleb128 0x2
 4320 005b 08       		.byte	0x8
 4321 005c 07       		.byte	0x7
 4322 005d 7A000000 		.4byte	.LASF7
 4323 0061 03       		.uleb128 0x3
 4324 0062 04       		.byte	0x4
 4325 0063 05       		.byte	0x5
 4326 0064 696E7400 		.ascii	"int\000"
 4327 0068 02       		.uleb128 0x2
 4328 0069 04       		.byte	0x4
 4329 006a 07       		.byte	0x7
 4330 006b A0010000 		.4byte	.LASF8
 4331 006f 04       		.uleb128 0x4
 4332 0070 3E010000 		.4byte	.LASF9
 4333 0074 02       		.byte	0x2
 4334 0075 4C       		.byte	0x4c
 4335 0076 30000000 		.4byte	0x30
 4336 007a 04       		.uleb128 0x4
 4337 007b 00000000 		.4byte	.LASF10
 4338 007f 02       		.byte	0x2
 4339 0080 4D       		.byte	0x4d
 4340 0081 3E000000 		.4byte	0x3e
ARM GAS  C:\Users\rmcgarel\AppData\Local\Temp\ccv1YA4O.s 			page 121


 4341 0085 02       		.uleb128 0x2
 4342 0086 04       		.byte	0x4
 4343 0087 04       		.byte	0x4
 4344 0088 B0020000 		.4byte	.LASF11
 4345 008c 02       		.uleb128 0x2
 4346 008d 08       		.byte	0x8
 4347 008e 04       		.byte	0x4
 4348 008f 44010000 		.4byte	.LASF12
 4349 0093 02       		.uleb128 0x2
 4350 0094 01       		.byte	0x1
 4351 0095 08       		.byte	0x8
 4352 0096 44030000 		.4byte	.LASF13
 4353 009a 05       		.uleb128 0x5
 4354 009b 04       		.byte	0x4
 4355 009c 07       		.byte	0x7
 4356 009d 06       		.uleb128 0x6
 4357 009e CF010000 		.4byte	.LASF30
 4358 00a2 12       		.byte	0x12
 4359 00a3 03       		.byte	0x3
 4360 00a4 FD       		.byte	0xfd
 4361 00a5 8A010000 		.4byte	0x18a
 4362 00a9 07       		.uleb128 0x7
 4363 00aa 8B020000 		.4byte	.LASF14
 4364 00ae 03       		.byte	0x3
 4365 00af FF       		.byte	0xff
 4366 00b0 6F000000 		.4byte	0x6f
 4367 00b4 02       		.byte	0x2
 4368 00b5 23       		.byte	0x23
 4369 00b6 00       		.uleb128 0x0
 4370 00b7 08       		.uleb128 0x8
 4371 00b8 92020000 		.4byte	.LASF15
 4372 00bc 03       		.byte	0x3
 4373 00bd 0001     		.2byte	0x100
 4374 00bf 6F000000 		.4byte	0x6f
 4375 00c3 02       		.byte	0x2
 4376 00c4 23       		.byte	0x23
 4377 00c5 01       		.uleb128 0x1
 4378 00c6 08       		.uleb128 0x8
 4379 00c7 33000000 		.4byte	.LASF16
 4380 00cb 03       		.byte	0x3
 4381 00cc 0101     		.2byte	0x101
 4382 00ce 6F000000 		.4byte	0x6f
 4383 00d2 02       		.byte	0x2
 4384 00d3 23       		.byte	0x23
 4385 00d4 02       		.uleb128 0x2
 4386 00d5 08       		.uleb128 0x8
 4387 00d6 62020000 		.4byte	.LASF17
 4388 00da 03       		.byte	0x3
 4389 00db 0201     		.2byte	0x102
 4390 00dd 6F000000 		.4byte	0x6f
 4391 00e1 02       		.byte	0x2
 4392 00e2 23       		.byte	0x23
 4393 00e3 03       		.uleb128 0x3
 4394 00e4 08       		.uleb128 0x8
 4395 00e5 BA000000 		.4byte	.LASF18
 4396 00e9 03       		.byte	0x3
 4397 00ea 0301     		.2byte	0x103
ARM GAS  C:\Users\rmcgarel\AppData\Local\Temp\ccv1YA4O.s 			page 122


 4398 00ec 6F000000 		.4byte	0x6f
 4399 00f0 02       		.byte	0x2
 4400 00f1 23       		.byte	0x23
 4401 00f2 04       		.uleb128 0x4
 4402 00f3 08       		.uleb128 0x8
 4403 00f4 5D040000 		.4byte	.LASF19
 4404 00f8 03       		.byte	0x3
 4405 00f9 0401     		.2byte	0x104
 4406 00fb 6F000000 		.4byte	0x6f
 4407 00ff 02       		.byte	0x2
 4408 0100 23       		.byte	0x23
 4409 0101 05       		.uleb128 0x5
 4410 0102 08       		.uleb128 0x8
 4411 0103 99040000 		.4byte	.LASF20
 4412 0107 03       		.byte	0x3
 4413 0108 0501     		.2byte	0x105
 4414 010a 6F000000 		.4byte	0x6f
 4415 010e 02       		.byte	0x2
 4416 010f 23       		.byte	0x23
 4417 0110 06       		.uleb128 0x6
 4418 0111 08       		.uleb128 0x8
 4419 0112 A6020000 		.4byte	.LASF21
 4420 0116 03       		.byte	0x3
 4421 0117 0601     		.2byte	0x106
 4422 0119 6F000000 		.4byte	0x6f
 4423 011d 02       		.byte	0x2
 4424 011e 23       		.byte	0x23
 4425 011f 07       		.uleb128 0x7
 4426 0120 08       		.uleb128 0x8
 4427 0121 43020000 		.4byte	.LASF22
 4428 0125 03       		.byte	0x3
 4429 0126 0701     		.2byte	0x107
 4430 0128 6F000000 		.4byte	0x6f
 4431 012c 02       		.byte	0x2
 4432 012d 23       		.byte	0x23
 4433 012e 08       		.uleb128 0x8
 4434 012f 08       		.uleb128 0x8
 4435 0130 1D010000 		.4byte	.LASF23
 4436 0134 03       		.byte	0x3
 4437 0135 0801     		.2byte	0x108
 4438 0137 6F000000 		.4byte	0x6f
 4439 013b 02       		.byte	0x2
 4440 013c 23       		.byte	0x23
 4441 013d 09       		.uleb128 0x9
 4442 013e 08       		.uleb128 0x8
 4443 013f 5D000000 		.4byte	.LASF24
 4444 0143 03       		.byte	0x3
 4445 0144 0901     		.2byte	0x109
 4446 0146 6F000000 		.4byte	0x6f
 4447 014a 02       		.byte	0x2
 4448 014b 23       		.byte	0x23
 4449 014c 0A       		.uleb128 0xa
 4450 014d 08       		.uleb128 0x8
 4451 014e 04010000 		.4byte	.LASF25
 4452 0152 03       		.byte	0x3
 4453 0153 0A01     		.2byte	0x10a
 4454 0155 7A000000 		.4byte	0x7a
ARM GAS  C:\Users\rmcgarel\AppData\Local\Temp\ccv1YA4O.s 			page 123


 4455 0159 02       		.byte	0x2
 4456 015a 23       		.byte	0x23
 4457 015b 0C       		.uleb128 0xc
 4458 015c 08       		.uleb128 0x8
 4459 015d FD020000 		.4byte	.LASF26
 4460 0161 03       		.byte	0x3
 4461 0162 0B01     		.2byte	0x10b
 4462 0164 6F000000 		.4byte	0x6f
 4463 0168 02       		.byte	0x2
 4464 0169 23       		.byte	0x23
 4465 016a 0E       		.uleb128 0xe
 4466 016b 08       		.uleb128 0x8
 4467 016c 6B010000 		.4byte	.LASF27
 4468 0170 03       		.byte	0x3
 4469 0171 0C01     		.2byte	0x10c
 4470 0173 6F000000 		.4byte	0x6f
 4471 0177 02       		.byte	0x2
 4472 0178 23       		.byte	0x23
 4473 0179 0F       		.uleb128 0xf
 4474 017a 08       		.uleb128 0x8
 4475 017b E9030000 		.4byte	.LASF28
 4476 017f 03       		.byte	0x3
 4477 0180 0D01     		.2byte	0x10d
 4478 0182 6F000000 		.4byte	0x6f
 4479 0186 02       		.byte	0x2
 4480 0187 23       		.byte	0x23
 4481 0188 10       		.uleb128 0x10
 4482 0189 00       		.byte	0x0
 4483 018a 09       		.uleb128 0x9
 4484 018b F6010000 		.4byte	.LASF29
 4485 018f 03       		.byte	0x3
 4486 0190 0F01     		.2byte	0x10f
 4487 0192 9D000000 		.4byte	0x9d
 4488 0196 0A       		.uleb128 0xa
 4489 0197 E5010000 		.4byte	.LASF31
 4490 019b A6       		.byte	0xa6
 4491 019c 03       		.byte	0x3
 4492 019d 1301     		.2byte	0x113
 4493 019f EB020000 		.4byte	0x2eb
 4494 01a3 08       		.uleb128 0x8
 4495 01a4 37030000 		.4byte	.LASF32
 4496 01a8 03       		.byte	0x3
 4497 01a9 2201     		.2byte	0x122
 4498 01ab 6F000000 		.4byte	0x6f
 4499 01af 02       		.byte	0x2
 4500 01b0 23       		.byte	0x23
 4501 01b1 00       		.uleb128 0x0
 4502 01b2 08       		.uleb128 0x8
 4503 01b3 6A020000 		.4byte	.LASF33
 4504 01b7 03       		.byte	0x3
 4505 01b8 2801     		.2byte	0x128
 4506 01ba 6F000000 		.4byte	0x6f
 4507 01be 02       		.byte	0x2
 4508 01bf 23       		.byte	0x23
 4509 01c0 01       		.uleb128 0x1
 4510 01c1 08       		.uleb128 0x8
 4511 01c2 AD010000 		.4byte	.LASF34
ARM GAS  C:\Users\rmcgarel\AppData\Local\Temp\ccv1YA4O.s 			page 124


 4512 01c6 03       		.byte	0x3
 4513 01c7 4001     		.2byte	0x140
 4514 01c9 EB020000 		.4byte	0x2eb
 4515 01cd 02       		.byte	0x2
 4516 01ce 23       		.byte	0x23
 4517 01cf 02       		.uleb128 0x2
 4518 01d0 08       		.uleb128 0x8
 4519 01d1 7D040000 		.4byte	.LASF35
 4520 01d5 03       		.byte	0x3
 4521 01d6 4601     		.2byte	0x146
 4522 01d8 FB020000 		.4byte	0x2fb
 4523 01dc 02       		.byte	0x2
 4524 01dd 23       		.byte	0x23
 4525 01de 1E       		.uleb128 0x1e
 4526 01df 08       		.uleb128 0x8
 4527 01e0 75040000 		.4byte	.LASF36
 4528 01e4 03       		.byte	0x3
 4529 01e5 4701     		.2byte	0x147
 4530 01e7 0B030000 		.4byte	0x30b
 4531 01eb 02       		.byte	0x2
 4532 01ec 23       		.byte	0x23
 4533 01ed 32       		.uleb128 0x32
 4534 01ee 08       		.uleb128 0x8
 4535 01ef 6D040000 		.4byte	.LASF37
 4536 01f3 03       		.byte	0x3
 4537 01f4 4801     		.2byte	0x148
 4538 01f6 1B030000 		.4byte	0x31b
 4539 01fa 02       		.byte	0x2
 4540 01fb 23       		.byte	0x23
 4541 01fc 42       		.uleb128 0x42
 4542 01fd 08       		.uleb128 0x8
 4543 01fe 23020000 		.4byte	.LASF38
 4544 0202 03       		.byte	0x3
 4545 0203 4901     		.2byte	0x149
 4546 0205 2B030000 		.4byte	0x32b
 4547 0209 02       		.byte	0x2
 4548 020a 23       		.byte	0x23
 4549 020b 47       		.uleb128 0x47
 4550 020c 08       		.uleb128 0x8
 4551 020d 40000000 		.4byte	.LASF39
 4552 0211 03       		.byte	0x3
 4553 0212 4B01     		.2byte	0x14b
 4554 0214 6F000000 		.4byte	0x6f
 4555 0218 02       		.byte	0x2
 4556 0219 23       		.byte	0x23
 4557 021a 51       		.uleb128 0x51
 4558 021b 08       		.uleb128 0x8
 4559 021c DD030000 		.4byte	.LASF40
 4560 0220 03       		.byte	0x3
 4561 0221 4C01     		.2byte	0x14c
 4562 0223 3B030000 		.4byte	0x33b
 4563 0227 02       		.byte	0x2
 4564 0228 23       		.byte	0x23
 4565 0229 52       		.uleb128 0x52
 4566 022a 08       		.uleb128 0x8
 4567 022b 4D020000 		.4byte	.LASF41
 4568 022f 03       		.byte	0x3
ARM GAS  C:\Users\rmcgarel\AppData\Local\Temp\ccv1YA4O.s 			page 125


 4569 0230 4E01     		.2byte	0x14e
 4570 0232 6F000000 		.4byte	0x6f
 4571 0236 03       		.byte	0x3
 4572 0237 23       		.byte	0x23
 4573 0238 9A01     		.uleb128 0x9a
 4574 023a 08       		.uleb128 0x8
 4575 023b 7B010000 		.4byte	.LASF42
 4576 023f 03       		.byte	0x3
 4577 0240 4F01     		.2byte	0x14f
 4578 0242 6F000000 		.4byte	0x6f
 4579 0246 03       		.byte	0x3
 4580 0247 23       		.byte	0x23
 4581 0248 9B01     		.uleb128 0x9b
 4582 024a 08       		.uleb128 0x8
 4583 024b C8010000 		.4byte	.LASF43
 4584 024f 03       		.byte	0x3
 4585 0250 5501     		.2byte	0x155
 4586 0252 6F000000 		.4byte	0x6f
 4587 0256 03       		.byte	0x3
 4588 0257 23       		.byte	0x23
 4589 0258 9C01     		.uleb128 0x9c
 4590 025a 08       		.uleb128 0x8
 4591 025b 90040000 		.4byte	.LASF44
 4592 025f 03       		.byte	0x3
 4593 0260 5601     		.2byte	0x156
 4594 0262 6F000000 		.4byte	0x6f
 4595 0266 03       		.byte	0x3
 4596 0267 23       		.byte	0x23
 4597 0268 9D01     		.uleb128 0x9d
 4598 026a 08       		.uleb128 0x8
 4599 026b 09040000 		.4byte	.LASF45
 4600 026f 03       		.byte	0x3
 4601 0270 5701     		.2byte	0x157
 4602 0272 6F000000 		.4byte	0x6f
 4603 0276 03       		.byte	0x3
 4604 0277 23       		.byte	0x23
 4605 0278 9E01     		.uleb128 0x9e
 4606 027a 08       		.uleb128 0x8
 4607 027b B1000000 		.4byte	.LASF46
 4608 027f 03       		.byte	0x3
 4609 0280 5801     		.2byte	0x158
 4610 0282 6F000000 		.4byte	0x6f
 4611 0286 03       		.byte	0x3
 4612 0287 23       		.byte	0x23
 4613 0288 9F01     		.uleb128 0x9f
 4614 028a 08       		.uleb128 0x8
 4615 028b E3000000 		.4byte	.LASF47
 4616 028f 03       		.byte	0x3
 4617 0290 5901     		.2byte	0x159
 4618 0292 6F000000 		.4byte	0x6f
 4619 0296 03       		.byte	0x3
 4620 0297 23       		.byte	0x23
 4621 0298 A001     		.uleb128 0xa0
 4622 029a 08       		.uleb128 0x8
 4623 029b C0020000 		.4byte	.LASF48
 4624 029f 03       		.byte	0x3
 4625 02a0 5A01     		.2byte	0x15a
ARM GAS  C:\Users\rmcgarel\AppData\Local\Temp\ccv1YA4O.s 			page 126


 4626 02a2 6F000000 		.4byte	0x6f
 4627 02a6 03       		.byte	0x3
 4628 02a7 23       		.byte	0x23
 4629 02a8 A101     		.uleb128 0xa1
 4630 02aa 08       		.uleb128 0x8
 4631 02ab 59030000 		.4byte	.LASF49
 4632 02af 03       		.byte	0x3
 4633 02b0 5B01     		.2byte	0x15b
 4634 02b2 6F000000 		.4byte	0x6f
 4635 02b6 03       		.byte	0x3
 4636 02b7 23       		.byte	0x23
 4637 02b8 A201     		.uleb128 0xa2
 4638 02ba 08       		.uleb128 0x8
 4639 02bb 95010000 		.4byte	.LASF50
 4640 02bf 03       		.byte	0x3
 4641 02c0 5D01     		.2byte	0x15d
 4642 02c2 6F000000 		.4byte	0x6f
 4643 02c6 03       		.byte	0x3
 4644 02c7 23       		.byte	0x23
 4645 02c8 A301     		.uleb128 0xa3
 4646 02ca 08       		.uleb128 0x8
 4647 02cb 49030000 		.4byte	.LASF51
 4648 02cf 03       		.byte	0x3
 4649 02d0 5E01     		.2byte	0x15e
 4650 02d2 6F000000 		.4byte	0x6f
 4651 02d6 03       		.byte	0x3
 4652 02d7 23       		.byte	0x23
 4653 02d8 A401     		.uleb128 0xa4
 4654 02da 08       		.uleb128 0x8
 4655 02db 37020000 		.4byte	.LASF52
 4656 02df 03       		.byte	0x3
 4657 02e0 6001     		.2byte	0x160
 4658 02e2 6F000000 		.4byte	0x6f
 4659 02e6 03       		.byte	0x3
 4660 02e7 23       		.byte	0x23
 4661 02e8 A501     		.uleb128 0xa5
 4662 02ea 00       		.byte	0x0
 4663 02eb 0B       		.uleb128 0xb
 4664 02ec 6F000000 		.4byte	0x6f
 4665 02f0 FB020000 		.4byte	0x2fb
 4666 02f4 0C       		.uleb128 0xc
 4667 02f5 9A000000 		.4byte	0x9a
 4668 02f9 1B       		.byte	0x1b
 4669 02fa 00       		.byte	0x0
 4670 02fb 0B       		.uleb128 0xb
 4671 02fc 6F000000 		.4byte	0x6f
 4672 0300 0B030000 		.4byte	0x30b
 4673 0304 0C       		.uleb128 0xc
 4674 0305 9A000000 		.4byte	0x9a
 4675 0309 13       		.byte	0x13
 4676 030a 00       		.byte	0x0
 4677 030b 0B       		.uleb128 0xb
 4678 030c 6F000000 		.4byte	0x6f
 4679 0310 1B030000 		.4byte	0x31b
 4680 0314 0C       		.uleb128 0xc
 4681 0315 9A000000 		.4byte	0x9a
 4682 0319 0F       		.byte	0xf
ARM GAS  C:\Users\rmcgarel\AppData\Local\Temp\ccv1YA4O.s 			page 127


 4683 031a 00       		.byte	0x0
 4684 031b 0B       		.uleb128 0xb
 4685 031c 6F000000 		.4byte	0x6f
 4686 0320 2B030000 		.4byte	0x32b
 4687 0324 0C       		.uleb128 0xc
 4688 0325 9A000000 		.4byte	0x9a
 4689 0329 04       		.byte	0x4
 4690 032a 00       		.byte	0x0
 4691 032b 0B       		.uleb128 0xb
 4692 032c 6F000000 		.4byte	0x6f
 4693 0330 3B030000 		.4byte	0x33b
 4694 0334 0C       		.uleb128 0xc
 4695 0335 9A000000 		.4byte	0x9a
 4696 0339 09       		.byte	0x9
 4697 033a 00       		.byte	0x0
 4698 033b 0B       		.uleb128 0xb
 4699 033c 6F000000 		.4byte	0x6f
 4700 0340 4B030000 		.4byte	0x34b
 4701 0344 0C       		.uleb128 0xc
 4702 0345 9A000000 		.4byte	0x9a
 4703 0349 47       		.byte	0x47
 4704 034a 00       		.byte	0x0
 4705 034b 09       		.uleb128 0x9
 4706 034c 49000000 		.4byte	.LASF53
 4707 0350 03       		.byte	0x3
 4708 0351 6201     		.2byte	0x162
 4709 0353 96010000 		.4byte	0x196
 4710 0357 0D       		.uleb128 0xd
 4711 0358 01       		.byte	0x1
 4712 0359 28030000 		.4byte	.LASF69
 4713 035d 01       		.byte	0x1
 4714 035e 65       		.byte	0x65
 4715 035f 01       		.byte	0x1
 4716 0360 00000000 		.4byte	.LFB0
 4717 0364 50030000 		.4byte	.LFE0
 4718 0368 00000000 		.4byte	.LLST0
 4719 036c 0E       		.uleb128 0xe
 4720 036d 01       		.byte	0x1
 4721 036e 68000000 		.4byte	.LASF54
 4722 0372 01       		.byte	0x1
 4723 0373 1401     		.2byte	0x114
 4724 0375 01       		.byte	0x1
 4725 0376 00000000 		.4byte	.LFB1
 4726 037a BA030000 		.4byte	.LFE1
 4727 037e 2B000000 		.4byte	.LLST1
 4728 0382 96030000 		.4byte	0x396
 4729 0386 0F       		.uleb128 0xf
 4730 0387 78020000 		.4byte	.LASF59
 4731 038b 01       		.byte	0x1
 4732 038c 1F01     		.2byte	0x11f
 4733 038e A6030000 		.4byte	0x3a6
 4734 0392 02       		.byte	0x2
 4735 0393 91       		.byte	0x91
 4736 0394 70       		.sleb128 -16
 4737 0395 00       		.byte	0x0
 4738 0396 0B       		.uleb128 0xb
 4739 0397 6F000000 		.4byte	0x6f
ARM GAS  C:\Users\rmcgarel\AppData\Local\Temp\ccv1YA4O.s 			page 128


 4740 039b A6030000 		.4byte	0x3a6
 4741 039f 0C       		.uleb128 0xc
 4742 03a0 9A000000 		.4byte	0x9a
 4743 03a4 06       		.byte	0x6
 4744 03a5 00       		.byte	0x0
 4745 03a6 10       		.uleb128 0x10
 4746 03a7 96030000 		.4byte	0x396
 4747 03ab 0E       		.uleb128 0xe
 4748 03ac 01       		.byte	0x1
 4749 03ad C8020000 		.4byte	.LASF55
 4750 03b1 01       		.byte	0x1
 4751 03b2 7D02     		.2byte	0x27d
 4752 03b4 01       		.byte	0x1
 4753 03b5 00000000 		.4byte	.LFB2
 4754 03b9 62000000 		.4byte	.LFE2
 4755 03bd 62000000 		.4byte	.LLST2
 4756 03c1 E4030000 		.4byte	0x3e4
 4757 03c5 11       		.uleb128 0x11
 4758 03c6 1F040000 		.4byte	.LASF56
 4759 03ca 01       		.byte	0x1
 4760 03cb 7D02     		.2byte	0x27d
 4761 03cd 7A000000 		.4byte	0x7a
 4762 03d1 02       		.byte	0x2
 4763 03d2 91       		.byte	0x91
 4764 03d3 76       		.sleb128 -10
 4765 03d4 11       		.uleb128 0x11
 4766 03d5 99020000 		.4byte	.LASF57
 4767 03d9 01       		.byte	0x1
 4768 03da 7D02     		.2byte	0x27d
 4769 03dc 7A000000 		.4byte	0x7a
 4770 03e0 02       		.byte	0x2
 4771 03e1 91       		.byte	0x91
 4772 03e2 74       		.sleb128 -12
 4773 03e3 00       		.byte	0x0
 4774 03e4 0E       		.uleb128 0xe
 4775 03e5 01       		.byte	0x1
 4776 03e6 B6020000 		.4byte	.LASF58
 4777 03ea 01       		.byte	0x1
 4778 03eb 6F03     		.2byte	0x36f
 4779 03ed 01       		.byte	0x1
 4780 03ee 00000000 		.4byte	.LFB3
 4781 03f2 2E010000 		.4byte	.LFE3
 4782 03f6 99000000 		.4byte	.LLST3
 4783 03fa 2C040000 		.4byte	0x42c
 4784 03fe 11       		.uleb128 0x11
 4785 03ff 1F040000 		.4byte	.LASF56
 4786 0403 01       		.byte	0x1
 4787 0404 6F03     		.2byte	0x36f
 4788 0406 6F000000 		.4byte	0x6f
 4789 040a 02       		.byte	0x2
 4790 040b 91       		.byte	0x91
 4791 040c 6F       		.sleb128 -17
 4792 040d 11       		.uleb128 0x11
 4793 040e 99020000 		.4byte	.LASF57
 4794 0412 01       		.byte	0x1
 4795 0413 6F03     		.2byte	0x36f
 4796 0415 7A000000 		.4byte	0x7a
ARM GAS  C:\Users\rmcgarel\AppData\Local\Temp\ccv1YA4O.s 			page 129


 4797 0419 02       		.byte	0x2
 4798 041a 91       		.byte	0x91
 4799 041b 6C       		.sleb128 -20
 4800 041c 0F       		.uleb128 0xf
 4801 041d 0E010000 		.4byte	.LASF60
 4802 0421 01       		.byte	0x1
 4803 0422 7103     		.2byte	0x371
 4804 0424 6F000000 		.4byte	0x6f
 4805 0428 02       		.byte	0x2
 4806 0429 91       		.byte	0x91
 4807 042a 77       		.sleb128 -9
 4808 042b 00       		.byte	0x0
 4809 042c 0E       		.uleb128 0xe
 4810 042d 01       		.byte	0x1
 4811 042e 78030000 		.4byte	.LASF61
 4812 0432 01       		.byte	0x1
 4813 0433 6A04     		.2byte	0x46a
 4814 0435 01       		.byte	0x1
 4815 0436 00000000 		.4byte	.LFB4
 4816 043a 0A010000 		.4byte	.LFE4
 4817 043e D0000000 		.4byte	.LLST4
 4818 0442 56040000 		.4byte	0x456
 4819 0446 0F       		.uleb128 0xf
 4820 0447 0E010000 		.4byte	.LASF60
 4821 044b 01       		.byte	0x1
 4822 044c 6C04     		.2byte	0x46c
 4823 044e 6F000000 		.4byte	0x6f
 4824 0452 02       		.byte	0x2
 4825 0453 91       		.byte	0x91
 4826 0454 77       		.sleb128 -9
 4827 0455 00       		.byte	0x0
 4828 0456 12       		.uleb128 0x12
 4829 0457 01       		.byte	0x1
 4830 0458 BF030000 		.4byte	.LASF88
 4831 045c 01       		.byte	0x1
 4832 045d F704     		.2byte	0x4f7
 4833 045f 01       		.byte	0x1
 4834 0460 6F000000 		.4byte	0x6f
 4835 0464 00000000 		.4byte	.LFB5
 4836 0468 7A000000 		.4byte	.LFE5
 4837 046c 07010000 		.4byte	.LLST5
 4838 0470 B4040000 		.4byte	0x4b4
 4839 0474 11       		.uleb128 0x11
 4840 0475 90010000 		.4byte	.LASF62
 4841 0479 01       		.byte	0x1
 4842 047a F704     		.2byte	0x4f7
 4843 047c 6F000000 		.4byte	0x6f
 4844 0480 02       		.byte	0x2
 4845 0481 91       		.byte	0x91
 4846 0482 6F       		.sleb128 -17
 4847 0483 0F       		.uleb128 0xf
 4848 0484 A3040000 		.4byte	.LASF63
 4849 0488 01       		.byte	0x1
 4850 0489 F904     		.2byte	0x4f9
 4851 048b 6F000000 		.4byte	0x6f
 4852 048f 05       		.byte	0x5
 4853 0490 03       		.byte	0x3
ARM GAS  C:\Users\rmcgarel\AppData\Local\Temp\ccv1YA4O.s 			page 130


 4854 0491 BA000000 		.4byte	interruptStatus.2339
 4855 0495 0F       		.uleb128 0xf
 4856 0496 0E010000 		.4byte	.LASF60
 4857 049a 01       		.byte	0x1
 4858 049b FA04     		.2byte	0x4fa
 4859 049d 6F000000 		.4byte	0x6f
 4860 04a1 02       		.byte	0x2
 4861 04a2 91       		.byte	0x91
 4862 04a3 76       		.sleb128 -10
 4863 04a4 0F       		.uleb128 0xf
 4864 04a5 A7000000 		.4byte	.LASF64
 4865 04a9 01       		.byte	0x1
 4866 04aa FB04     		.2byte	0x4fb
 4867 04ac 6F000000 		.4byte	0x6f
 4868 04b0 02       		.byte	0x2
 4869 04b1 91       		.byte	0x91
 4870 04b2 77       		.sleb128 -9
 4871 04b3 00       		.byte	0x0
 4872 04b4 13       		.uleb128 0x13
 4873 04b5 10040000 		.4byte	.LASF65
 4874 04b9 01       		.byte	0x1
 4875 04ba 2405     		.2byte	0x524
 4876 04bc 01       		.byte	0x1
 4877 04bd 00000000 		.4byte	.LFB6
 4878 04c1 5E000000 		.4byte	.LFE6
 4879 04c5 3E010000 		.4byte	.LLST6
 4880 04c9 13       		.uleb128 0x13
 4881 04ca 81010000 		.4byte	.LASF66
 4882 04ce 01       		.byte	0x1
 4883 04cf 9105     		.2byte	0x591
 4884 04d1 01       		.byte	0x1
 4885 04d2 00000000 		.4byte	.LFB7
 4886 04d6 38000000 		.4byte	.LFE7
 4887 04da 69010000 		.4byte	.LLST7
 4888 04de 0E       		.uleb128 0xe
 4889 04df 01       		.byte	0x1
 4890 04e0 F6030000 		.4byte	.LASF67
 4891 04e4 01       		.byte	0x1
 4892 04e5 D705     		.2byte	0x5d7
 4893 04e7 01       		.byte	0x1
 4894 04e8 00000000 		.4byte	.LFB8
 4895 04ec D8000000 		.4byte	.LFE8
 4896 04f0 94010000 		.4byte	.LLST8
 4897 04f4 08050000 		.4byte	0x508
 4898 04f8 11       		.uleb128 0x11
 4899 04f9 2B020000 		.4byte	.LASF68
 4900 04fd 01       		.byte	0x1
 4901 04fe D705     		.2byte	0x5d7
 4902 0500 6F000000 		.4byte	0x6f
 4903 0504 02       		.byte	0x2
 4904 0505 91       		.byte	0x91
 4905 0506 77       		.sleb128 -9
 4906 0507 00       		.byte	0x0
 4907 0508 14       		.uleb128 0x14
 4908 0509 01       		.byte	0x1
 4909 050a D3020000 		.4byte	.LASF70
 4910 050e 01       		.byte	0x1
ARM GAS  C:\Users\rmcgarel\AppData\Local\Temp\ccv1YA4O.s 			page 131


 4911 050f 0B06     		.2byte	0x60b
 4912 0511 01       		.byte	0x1
 4913 0512 00000000 		.4byte	.LFB9
 4914 0516 54000000 		.4byte	.LFE9
 4915 051a CB010000 		.4byte	.LLST9
 4916 051e 0E       		.uleb128 0xe
 4917 051f 01       		.byte	0x1
 4918 0520 D0000000 		.4byte	.LASF71
 4919 0524 01       		.byte	0x1
 4920 0525 3006     		.2byte	0x630
 4921 0527 01       		.byte	0x1
 4922 0528 00000000 		.4byte	.LFB10
 4923 052c DA000000 		.4byte	.LFE10
 4924 0530 F6010000 		.4byte	.LLST10
 4925 0534 48050000 		.4byte	0x548
 4926 0538 11       		.uleb128 0x11
 4927 0539 A0030000 		.4byte	.LASF72
 4928 053d 01       		.byte	0x1
 4929 053e 3006     		.2byte	0x630
 4930 0540 6F000000 		.4byte	0x6f
 4931 0544 02       		.byte	0x2
 4932 0545 91       		.byte	0x91
 4933 0546 77       		.sleb128 -9
 4934 0547 00       		.byte	0x0
 4935 0548 13       		.uleb128 0x13
 4936 0549 61030000 		.4byte	.LASF73
 4937 054d 01       		.byte	0x1
 4938 054e 6606     		.2byte	0x666
 4939 0550 01       		.byte	0x1
 4940 0551 00000000 		.4byte	.LFB11
 4941 0555 4C000000 		.4byte	.LFE11
 4942 0559 2D020000 		.4byte	.LLST11
 4943 055d 13       		.uleb128 0x13
 4944 055e 19000000 		.4byte	.LASF74
 4945 0562 01       		.byte	0x1
 4946 0563 8606     		.2byte	0x686
 4947 0565 01       		.byte	0x1
 4948 0566 00000000 		.4byte	.LFB12
 4949 056a 42000000 		.4byte	.LFE12
 4950 056e 58020000 		.4byte	.LLST12
 4951 0572 13       		.uleb128 0x13
 4952 0573 86030000 		.4byte	.LASF75
 4953 0577 01       		.byte	0x1
 4954 0578 9D06     		.2byte	0x69d
 4955 057a 01       		.byte	0x1
 4956 057b 00000000 		.4byte	.LFB13
 4957 057f 4C000000 		.4byte	.LFE13
 4958 0583 83020000 		.4byte	.LLST13
 4959 0587 13       		.uleb128 0x13
 4960 0588 53020000 		.4byte	.LASF76
 4961 058c 01       		.byte	0x1
 4962 058d D006     		.2byte	0x6d0
 4963 058f 01       		.byte	0x1
 4964 0590 00000000 		.4byte	.LFB14
 4965 0594 2E010000 		.4byte	.LFE14
 4966 0598 AE020000 		.4byte	.LLST14
 4967 059c 13       		.uleb128 0x13
ARM GAS  C:\Users\rmcgarel\AppData\Local\Temp\ccv1YA4O.s 			page 132


 4968 059d CE030000 		.4byte	.LASF77
 4969 05a1 01       		.byte	0x1
 4970 05a2 4F07     		.2byte	0x74f
 4971 05a4 01       		.byte	0x1
 4972 05a5 00000000 		.4byte	.LFB15
 4973 05a9 A2000000 		.4byte	.LFE15
 4974 05ad D9020000 		.4byte	.LLST15
 4975 05b1 13       		.uleb128 0x13
 4976 05b2 16030000 		.4byte	.LASF78
 4977 05b6 01       		.byte	0x1
 4978 05b7 9D07     		.2byte	0x79d
 4979 05b9 01       		.byte	0x1
 4980 05ba 00000000 		.4byte	.LFB16
 4981 05be D80B0000 		.4byte	.LFE16
 4982 05c2 04030000 		.4byte	.LLST16
 4983 05c6 13       		.uleb128 0x13
 4984 05c7 07000000 		.4byte	.LASF79
 4985 05cb 01       		.byte	0x1
 4986 05cc B408     		.2byte	0x8b4
 4987 05ce 01       		.byte	0x1
 4988 05cf 00000000 		.4byte	.LFB17
 4989 05d3 EE060000 		.4byte	.LFE17
 4990 05d7 2F030000 		.4byte	.LLST17
 4991 05db 13       		.uleb128 0x13
 4992 05dc 91000000 		.4byte	.LASF80
 4993 05e0 01       		.byte	0x1
 4994 05e1 5609     		.2byte	0x956
 4995 05e3 01       		.byte	0x1
 4996 05e4 00000000 		.4byte	.LFB18
 4997 05e8 12010000 		.4byte	.LFE18
 4998 05ec 5A030000 		.4byte	.LLST18
 4999 05f0 13       		.uleb128 0x13
 5000 05f1 2C010000 		.4byte	.LASF81
 5001 05f5 01       		.byte	0x1
 5002 05f6 A709     		.2byte	0x9a7
 5003 05f8 01       		.byte	0x1
 5004 05f9 00000000 		.4byte	.LFB19
 5005 05fd 7A000000 		.4byte	.LFE19
 5006 0601 85030000 		.4byte	.LLST19
 5007 0605 15       		.uleb128 0x15
 5008 0606 85040000 		.4byte	.LASF82
 5009 060a 01       		.byte	0x1
 5010 060b 1F       		.byte	0x1f
 5011 060c 4B030000 		.4byte	0x34b
 5012 0610 05       		.byte	0x5
 5013 0611 03       		.byte	0x3
 5014 0612 00000000 		.4byte	cyPmBackup
 5015 0616 15       		.uleb128 0x15
 5016 0617 ED020000 		.4byte	.LASF83
 5017 061b 01       		.byte	0x1
 5018 061c 20       		.byte	0x20
 5019 061d 8A010000 		.4byte	0x18a
 5020 0621 05       		.byte	0x5
 5021 0622 03       		.byte	0x3
 5022 0623 A8000000 		.4byte	cyPmClockBackup
 5023 0627 15       		.uleb128 0x15
 5024 0628 AC030000 		.4byte	.LASF84
ARM GAS  C:\Users\rmcgarel\AppData\Local\Temp\ccv1YA4O.s 			page 133


 5025 062c 01       		.byte	0x1
 5026 062d 23       		.byte	0x23
 5027 062e 38060000 		.4byte	0x638
 5028 0632 05       		.byte	0x5
 5029 0633 03       		.byte	0x3
 5030 0634 00000000 		.4byte	cyPmImoFreqReg2Mhz
 5031 0638 10       		.uleb128 0x10
 5032 0639 96030000 		.4byte	0x396
 5033 063d 00       		.byte	0x0
 5034              		.section	.debug_abbrev
 5035 0000 01       		.uleb128 0x1
 5036 0001 11       		.uleb128 0x11
 5037 0002 01       		.byte	0x1
 5038 0003 25       		.uleb128 0x25
 5039 0004 0E       		.uleb128 0xe
 5040 0005 13       		.uleb128 0x13
 5041 0006 0B       		.uleb128 0xb
 5042 0007 03       		.uleb128 0x3
 5043 0008 0E       		.uleb128 0xe
 5044 0009 1B       		.uleb128 0x1b
 5045 000a 0E       		.uleb128 0xe
 5046 000b 11       		.uleb128 0x11
 5047 000c 01       		.uleb128 0x1
 5048 000d 52       		.uleb128 0x52
 5049 000e 01       		.uleb128 0x1
 5050 000f 55       		.uleb128 0x55
 5051 0010 06       		.uleb128 0x6
 5052 0011 10       		.uleb128 0x10
 5053 0012 06       		.uleb128 0x6
 5054 0013 00       		.byte	0x0
 5055 0014 00       		.byte	0x0
 5056 0015 02       		.uleb128 0x2
 5057 0016 24       		.uleb128 0x24
 5058 0017 00       		.byte	0x0
 5059 0018 0B       		.uleb128 0xb
 5060 0019 0B       		.uleb128 0xb
 5061 001a 3E       		.uleb128 0x3e
 5062 001b 0B       		.uleb128 0xb
 5063 001c 03       		.uleb128 0x3
 5064 001d 0E       		.uleb128 0xe
 5065 001e 00       		.byte	0x0
 5066 001f 00       		.byte	0x0
 5067 0020 03       		.uleb128 0x3
 5068 0021 24       		.uleb128 0x24
 5069 0022 00       		.byte	0x0
 5070 0023 0B       		.uleb128 0xb
 5071 0024 0B       		.uleb128 0xb
 5072 0025 3E       		.uleb128 0x3e
 5073 0026 0B       		.uleb128 0xb
 5074 0027 03       		.uleb128 0x3
 5075 0028 08       		.uleb128 0x8
 5076 0029 00       		.byte	0x0
 5077 002a 00       		.byte	0x0
 5078 002b 04       		.uleb128 0x4
 5079 002c 16       		.uleb128 0x16
 5080 002d 00       		.byte	0x0
 5081 002e 03       		.uleb128 0x3
ARM GAS  C:\Users\rmcgarel\AppData\Local\Temp\ccv1YA4O.s 			page 134


 5082 002f 0E       		.uleb128 0xe
 5083 0030 3A       		.uleb128 0x3a
 5084 0031 0B       		.uleb128 0xb
 5085 0032 3B       		.uleb128 0x3b
 5086 0033 0B       		.uleb128 0xb
 5087 0034 49       		.uleb128 0x49
 5088 0035 13       		.uleb128 0x13
 5089 0036 00       		.byte	0x0
 5090 0037 00       		.byte	0x0
 5091 0038 05       		.uleb128 0x5
 5092 0039 24       		.uleb128 0x24
 5093 003a 00       		.byte	0x0
 5094 003b 0B       		.uleb128 0xb
 5095 003c 0B       		.uleb128 0xb
 5096 003d 3E       		.uleb128 0x3e
 5097 003e 0B       		.uleb128 0xb
 5098 003f 00       		.byte	0x0
 5099 0040 00       		.byte	0x0
 5100 0041 06       		.uleb128 0x6
 5101 0042 13       		.uleb128 0x13
 5102 0043 01       		.byte	0x1
 5103 0044 03       		.uleb128 0x3
 5104 0045 0E       		.uleb128 0xe
 5105 0046 0B       		.uleb128 0xb
 5106 0047 0B       		.uleb128 0xb
 5107 0048 3A       		.uleb128 0x3a
 5108 0049 0B       		.uleb128 0xb
 5109 004a 3B       		.uleb128 0x3b
 5110 004b 0B       		.uleb128 0xb
 5111 004c 01       		.uleb128 0x1
 5112 004d 13       		.uleb128 0x13
 5113 004e 00       		.byte	0x0
 5114 004f 00       		.byte	0x0
 5115 0050 07       		.uleb128 0x7
 5116 0051 0D       		.uleb128 0xd
 5117 0052 00       		.byte	0x0
 5118 0053 03       		.uleb128 0x3
 5119 0054 0E       		.uleb128 0xe
 5120 0055 3A       		.uleb128 0x3a
 5121 0056 0B       		.uleb128 0xb
 5122 0057 3B       		.uleb128 0x3b
 5123 0058 0B       		.uleb128 0xb
 5124 0059 49       		.uleb128 0x49
 5125 005a 13       		.uleb128 0x13
 5126 005b 38       		.uleb128 0x38
 5127 005c 0A       		.uleb128 0xa
 5128 005d 00       		.byte	0x0
 5129 005e 00       		.byte	0x0
 5130 005f 08       		.uleb128 0x8
 5131 0060 0D       		.uleb128 0xd
 5132 0061 00       		.byte	0x0
 5133 0062 03       		.uleb128 0x3
 5134 0063 0E       		.uleb128 0xe
 5135 0064 3A       		.uleb128 0x3a
 5136 0065 0B       		.uleb128 0xb
 5137 0066 3B       		.uleb128 0x3b
 5138 0067 05       		.uleb128 0x5
ARM GAS  C:\Users\rmcgarel\AppData\Local\Temp\ccv1YA4O.s 			page 135


 5139 0068 49       		.uleb128 0x49
 5140 0069 13       		.uleb128 0x13
 5141 006a 38       		.uleb128 0x38
 5142 006b 0A       		.uleb128 0xa
 5143 006c 00       		.byte	0x0
 5144 006d 00       		.byte	0x0
 5145 006e 09       		.uleb128 0x9
 5146 006f 16       		.uleb128 0x16
 5147 0070 00       		.byte	0x0
 5148 0071 03       		.uleb128 0x3
 5149 0072 0E       		.uleb128 0xe
 5150 0073 3A       		.uleb128 0x3a
 5151 0074 0B       		.uleb128 0xb
 5152 0075 3B       		.uleb128 0x3b
 5153 0076 05       		.uleb128 0x5
 5154 0077 49       		.uleb128 0x49
 5155 0078 13       		.uleb128 0x13
 5156 0079 00       		.byte	0x0
 5157 007a 00       		.byte	0x0
 5158 007b 0A       		.uleb128 0xa
 5159 007c 13       		.uleb128 0x13
 5160 007d 01       		.byte	0x1
 5161 007e 03       		.uleb128 0x3
 5162 007f 0E       		.uleb128 0xe
 5163 0080 0B       		.uleb128 0xb
 5164 0081 0B       		.uleb128 0xb
 5165 0082 3A       		.uleb128 0x3a
 5166 0083 0B       		.uleb128 0xb
 5167 0084 3B       		.uleb128 0x3b
 5168 0085 05       		.uleb128 0x5
 5169 0086 01       		.uleb128 0x1
 5170 0087 13       		.uleb128 0x13
 5171 0088 00       		.byte	0x0
 5172 0089 00       		.byte	0x0
 5173 008a 0B       		.uleb128 0xb
 5174 008b 01       		.uleb128 0x1
 5175 008c 01       		.byte	0x1
 5176 008d 49       		.uleb128 0x49
 5177 008e 13       		.uleb128 0x13
 5178 008f 01       		.uleb128 0x1
 5179 0090 13       		.uleb128 0x13
 5180 0091 00       		.byte	0x0
 5181 0092 00       		.byte	0x0
 5182 0093 0C       		.uleb128 0xc
 5183 0094 21       		.uleb128 0x21
 5184 0095 00       		.byte	0x0
 5185 0096 49       		.uleb128 0x49
 5186 0097 13       		.uleb128 0x13
 5187 0098 2F       		.uleb128 0x2f
 5188 0099 0B       		.uleb128 0xb
 5189 009a 00       		.byte	0x0
 5190 009b 00       		.byte	0x0
 5191 009c 0D       		.uleb128 0xd
 5192 009d 2E       		.uleb128 0x2e
 5193 009e 00       		.byte	0x0
 5194 009f 3F       		.uleb128 0x3f
 5195 00a0 0C       		.uleb128 0xc
ARM GAS  C:\Users\rmcgarel\AppData\Local\Temp\ccv1YA4O.s 			page 136


 5196 00a1 03       		.uleb128 0x3
 5197 00a2 0E       		.uleb128 0xe
 5198 00a3 3A       		.uleb128 0x3a
 5199 00a4 0B       		.uleb128 0xb
 5200 00a5 3B       		.uleb128 0x3b
 5201 00a6 0B       		.uleb128 0xb
 5202 00a7 27       		.uleb128 0x27
 5203 00a8 0C       		.uleb128 0xc
 5204 00a9 11       		.uleb128 0x11
 5205 00aa 01       		.uleb128 0x1
 5206 00ab 12       		.uleb128 0x12
 5207 00ac 01       		.uleb128 0x1
 5208 00ad 40       		.uleb128 0x40
 5209 00ae 06       		.uleb128 0x6
 5210 00af 00       		.byte	0x0
 5211 00b0 00       		.byte	0x0
 5212 00b1 0E       		.uleb128 0xe
 5213 00b2 2E       		.uleb128 0x2e
 5214 00b3 01       		.byte	0x1
 5215 00b4 3F       		.uleb128 0x3f
 5216 00b5 0C       		.uleb128 0xc
 5217 00b6 03       		.uleb128 0x3
 5218 00b7 0E       		.uleb128 0xe
 5219 00b8 3A       		.uleb128 0x3a
 5220 00b9 0B       		.uleb128 0xb
 5221 00ba 3B       		.uleb128 0x3b
 5222 00bb 05       		.uleb128 0x5
 5223 00bc 27       		.uleb128 0x27
 5224 00bd 0C       		.uleb128 0xc
 5225 00be 11       		.uleb128 0x11
 5226 00bf 01       		.uleb128 0x1
 5227 00c0 12       		.uleb128 0x12
 5228 00c1 01       		.uleb128 0x1
 5229 00c2 40       		.uleb128 0x40
 5230 00c3 06       		.uleb128 0x6
 5231 00c4 01       		.uleb128 0x1
 5232 00c5 13       		.uleb128 0x13
 5233 00c6 00       		.byte	0x0
 5234 00c7 00       		.byte	0x0
 5235 00c8 0F       		.uleb128 0xf
 5236 00c9 34       		.uleb128 0x34
 5237 00ca 00       		.byte	0x0
 5238 00cb 03       		.uleb128 0x3
 5239 00cc 0E       		.uleb128 0xe
 5240 00cd 3A       		.uleb128 0x3a
 5241 00ce 0B       		.uleb128 0xb
 5242 00cf 3B       		.uleb128 0x3b
 5243 00d0 05       		.uleb128 0x5
 5244 00d1 49       		.uleb128 0x49
 5245 00d2 13       		.uleb128 0x13
 5246 00d3 02       		.uleb128 0x2
 5247 00d4 0A       		.uleb128 0xa
 5248 00d5 00       		.byte	0x0
 5249 00d6 00       		.byte	0x0
 5250 00d7 10       		.uleb128 0x10
 5251 00d8 26       		.uleb128 0x26
 5252 00d9 00       		.byte	0x0
ARM GAS  C:\Users\rmcgarel\AppData\Local\Temp\ccv1YA4O.s 			page 137


 5253 00da 49       		.uleb128 0x49
 5254 00db 13       		.uleb128 0x13
 5255 00dc 00       		.byte	0x0
 5256 00dd 00       		.byte	0x0
 5257 00de 11       		.uleb128 0x11
 5258 00df 05       		.uleb128 0x5
 5259 00e0 00       		.byte	0x0
 5260 00e1 03       		.uleb128 0x3
 5261 00e2 0E       		.uleb128 0xe
 5262 00e3 3A       		.uleb128 0x3a
 5263 00e4 0B       		.uleb128 0xb
 5264 00e5 3B       		.uleb128 0x3b
 5265 00e6 05       		.uleb128 0x5
 5266 00e7 49       		.uleb128 0x49
 5267 00e8 13       		.uleb128 0x13
 5268 00e9 02       		.uleb128 0x2
 5269 00ea 0A       		.uleb128 0xa
 5270 00eb 00       		.byte	0x0
 5271 00ec 00       		.byte	0x0
 5272 00ed 12       		.uleb128 0x12
 5273 00ee 2E       		.uleb128 0x2e
 5274 00ef 01       		.byte	0x1
 5275 00f0 3F       		.uleb128 0x3f
 5276 00f1 0C       		.uleb128 0xc
 5277 00f2 03       		.uleb128 0x3
 5278 00f3 0E       		.uleb128 0xe
 5279 00f4 3A       		.uleb128 0x3a
 5280 00f5 0B       		.uleb128 0xb
 5281 00f6 3B       		.uleb128 0x3b
 5282 00f7 05       		.uleb128 0x5
 5283 00f8 27       		.uleb128 0x27
 5284 00f9 0C       		.uleb128 0xc
 5285 00fa 49       		.uleb128 0x49
 5286 00fb 13       		.uleb128 0x13
 5287 00fc 11       		.uleb128 0x11
 5288 00fd 01       		.uleb128 0x1
 5289 00fe 12       		.uleb128 0x12
 5290 00ff 01       		.uleb128 0x1
 5291 0100 40       		.uleb128 0x40
 5292 0101 06       		.uleb128 0x6
 5293 0102 01       		.uleb128 0x1
 5294 0103 13       		.uleb128 0x13
 5295 0104 00       		.byte	0x0
 5296 0105 00       		.byte	0x0
 5297 0106 13       		.uleb128 0x13
 5298 0107 2E       		.uleb128 0x2e
 5299 0108 00       		.byte	0x0
 5300 0109 03       		.uleb128 0x3
 5301 010a 0E       		.uleb128 0xe
 5302 010b 3A       		.uleb128 0x3a
 5303 010c 0B       		.uleb128 0xb
 5304 010d 3B       		.uleb128 0x3b
 5305 010e 05       		.uleb128 0x5
 5306 010f 27       		.uleb128 0x27
 5307 0110 0C       		.uleb128 0xc
 5308 0111 11       		.uleb128 0x11
 5309 0112 01       		.uleb128 0x1
ARM GAS  C:\Users\rmcgarel\AppData\Local\Temp\ccv1YA4O.s 			page 138


 5310 0113 12       		.uleb128 0x12
 5311 0114 01       		.uleb128 0x1
 5312 0115 40       		.uleb128 0x40
 5313 0116 06       		.uleb128 0x6
 5314 0117 00       		.byte	0x0
 5315 0118 00       		.byte	0x0
 5316 0119 14       		.uleb128 0x14
 5317 011a 2E       		.uleb128 0x2e
 5318 011b 00       		.byte	0x0
 5319 011c 3F       		.uleb128 0x3f
 5320 011d 0C       		.uleb128 0xc
 5321 011e 03       		.uleb128 0x3
 5322 011f 0E       		.uleb128 0xe
 5323 0120 3A       		.uleb128 0x3a
 5324 0121 0B       		.uleb128 0xb
 5325 0122 3B       		.uleb128 0x3b
 5326 0123 05       		.uleb128 0x5
 5327 0124 27       		.uleb128 0x27
 5328 0125 0C       		.uleb128 0xc
 5329 0126 11       		.uleb128 0x11
 5330 0127 01       		.uleb128 0x1
 5331 0128 12       		.uleb128 0x12
 5332 0129 01       		.uleb128 0x1
 5333 012a 40       		.uleb128 0x40
 5334 012b 06       		.uleb128 0x6
 5335 012c 00       		.byte	0x0
 5336 012d 00       		.byte	0x0
 5337 012e 15       		.uleb128 0x15
 5338 012f 34       		.uleb128 0x34
 5339 0130 00       		.byte	0x0
 5340 0131 03       		.uleb128 0x3
 5341 0132 0E       		.uleb128 0xe
 5342 0133 3A       		.uleb128 0x3a
 5343 0134 0B       		.uleb128 0xb
 5344 0135 3B       		.uleb128 0x3b
 5345 0136 0B       		.uleb128 0xb
 5346 0137 49       		.uleb128 0x49
 5347 0138 13       		.uleb128 0x13
 5348 0139 02       		.uleb128 0x2
 5349 013a 0A       		.uleb128 0xa
 5350 013b 00       		.byte	0x0
 5351 013c 00       		.byte	0x0
 5352 013d 00       		.byte	0x0
 5353              		.section	.debug_pubnames,"",%progbits
 5354 0000 B7000000 		.4byte	0xb7
 5355 0004 0200     		.2byte	0x2
 5356 0006 00000000 		.4byte	.Ldebug_info0
 5357 000a 3E060000 		.4byte	0x63e
 5358 000e 57030000 		.4byte	0x357
 5359 0012 4379506D 		.ascii	"CyPmSaveClocks\000"
 5359      53617665 
 5359      436C6F63 
 5359      6B7300
 5360 0021 6C030000 		.4byte	0x36c
 5361 0025 4379506D 		.ascii	"CyPmRestoreClocks\000"
 5361      52657374 
 5361      6F726543 
ARM GAS  C:\Users\rmcgarel\AppData\Local\Temp\ccv1YA4O.s 			page 139


 5361      6C6F636B 
 5361      7300
 5362 0037 AB030000 		.4byte	0x3ab
 5363 003b 4379506D 		.ascii	"CyPmAltAct\000"
 5363      416C7441 
 5363      637400
 5364 0046 E4030000 		.4byte	0x3e4
 5365 004a 4379506D 		.ascii	"CyPmSleep\000"
 5365      536C6565 
 5365      7000
 5366 0054 2C040000 		.4byte	0x42c
 5367 0058 4379506D 		.ascii	"CyPmHibernate\000"
 5367      48696265 
 5367      726E6174 
 5367      6500
 5368 0066 56040000 		.4byte	0x456
 5369 006a 4379506D 		.ascii	"CyPmReadStatus\000"
 5369      52656164 
 5369      53746174 
 5369      757300
 5370 0079 DE040000 		.4byte	0x4de
 5371 007d 4379506D 		.ascii	"CyPmCtwSetInterval\000"
 5371      43747753 
 5371      6574496E 
 5371      74657276 
 5371      616C00
 5372 0090 08050000 		.4byte	0x508
 5373 0094 4379506D 		.ascii	"CyPmOppsSet\000"
 5373      4F707073 
 5373      53657400 
 5374 00a0 1E050000 		.4byte	0x51e
 5375 00a4 4379506D 		.ascii	"CyPmFtwSetInterval\000"
 5375      46747753 
 5375      6574496E 
 5375      74657276 
 5375      616C00
 5376 00b7 00000000 		.4byte	0x0
 5377              		.section	.debug_aranges,"",%progbits
 5378 0000 B4000000 		.4byte	0xb4
 5379 0004 0200     		.2byte	0x2
 5380 0006 00000000 		.4byte	.Ldebug_info0
 5381 000a 04       		.byte	0x4
 5382 000b 00       		.byte	0x0
 5383 000c 0000     		.2byte	0x0
 5384 000e 0000     		.2byte	0x0
 5385 0010 00000000 		.4byte	.LFB0
 5386 0014 50030000 		.4byte	.LFE0-.LFB0
 5387 0018 00000000 		.4byte	.LFB1
 5388 001c BA030000 		.4byte	.LFE1-.LFB1
 5389 0020 00000000 		.4byte	.LFB2
 5390 0024 62000000 		.4byte	.LFE2-.LFB2
 5391 0028 00000000 		.4byte	.LFB3
 5392 002c 2E010000 		.4byte	.LFE3-.LFB3
 5393 0030 00000000 		.4byte	.LFB4
 5394 0034 0A010000 		.4byte	.LFE4-.LFB4
 5395 0038 00000000 		.4byte	.LFB5
 5396 003c 7A000000 		.4byte	.LFE5-.LFB5
ARM GAS  C:\Users\rmcgarel\AppData\Local\Temp\ccv1YA4O.s 			page 140


 5397 0040 00000000 		.4byte	.LFB6
 5398 0044 5E000000 		.4byte	.LFE6-.LFB6
 5399 0048 00000000 		.4byte	.LFB7
 5400 004c 38000000 		.4byte	.LFE7-.LFB7
 5401 0050 00000000 		.4byte	.LFB8
 5402 0054 D8000000 		.4byte	.LFE8-.LFB8
 5403 0058 00000000 		.4byte	.LFB9
 5404 005c 54000000 		.4byte	.LFE9-.LFB9
 5405 0060 00000000 		.4byte	.LFB10
 5406 0064 DA000000 		.4byte	.LFE10-.LFB10
 5407 0068 00000000 		.4byte	.LFB11
 5408 006c 4C000000 		.4byte	.LFE11-.LFB11
 5409 0070 00000000 		.4byte	.LFB12
 5410 0074 42000000 		.4byte	.LFE12-.LFB12
 5411 0078 00000000 		.4byte	.LFB13
 5412 007c 4C000000 		.4byte	.LFE13-.LFB13
 5413 0080 00000000 		.4byte	.LFB14
 5414 0084 2E010000 		.4byte	.LFE14-.LFB14
 5415 0088 00000000 		.4byte	.LFB15
 5416 008c A2000000 		.4byte	.LFE15-.LFB15
 5417 0090 00000000 		.4byte	.LFB16
 5418 0094 D80B0000 		.4byte	.LFE16-.LFB16
 5419 0098 00000000 		.4byte	.LFB17
 5420 009c EE060000 		.4byte	.LFE17-.LFB17
 5421 00a0 00000000 		.4byte	.LFB18
 5422 00a4 12010000 		.4byte	.LFE18-.LFB18
 5423 00a8 00000000 		.4byte	.LFB19
 5424 00ac 7A000000 		.4byte	.LFE19-.LFB19
 5425 00b0 00000000 		.4byte	0x0
 5426 00b4 00000000 		.4byte	0x0
 5427              		.section	.debug_ranges,"",%progbits
 5428              	.Ldebug_ranges0:
 5429 0000 00000000 		.4byte	.Ltext0
 5430 0004 00000000 		.4byte	.Letext0
 5431 0008 00000000 		.4byte	.LFB0
 5432 000c 50030000 		.4byte	.LFE0
 5433 0010 00000000 		.4byte	.LFB1
 5434 0014 BA030000 		.4byte	.LFE1
 5435 0018 00000000 		.4byte	.LFB2
 5436 001c 62000000 		.4byte	.LFE2
 5437 0020 00000000 		.4byte	.LFB3
 5438 0024 2E010000 		.4byte	.LFE3
 5439 0028 00000000 		.4byte	.LFB4
 5440 002c 0A010000 		.4byte	.LFE4
 5441 0030 00000000 		.4byte	.LFB5
 5442 0034 7A000000 		.4byte	.LFE5
 5443 0038 00000000 		.4byte	.LFB6
 5444 003c 5E000000 		.4byte	.LFE6
 5445 0040 00000000 		.4byte	.LFB7
 5446 0044 38000000 		.4byte	.LFE7
 5447 0048 00000000 		.4byte	.LFB8
 5448 004c D8000000 		.4byte	.LFE8
 5449 0050 00000000 		.4byte	.LFB9
 5450 0054 54000000 		.4byte	.LFE9
 5451 0058 00000000 		.4byte	.LFB10
 5452 005c DA000000 		.4byte	.LFE10
 5453 0060 00000000 		.4byte	.LFB11
ARM GAS  C:\Users\rmcgarel\AppData\Local\Temp\ccv1YA4O.s 			page 141


 5454 0064 4C000000 		.4byte	.LFE11
 5455 0068 00000000 		.4byte	.LFB12
 5456 006c 42000000 		.4byte	.LFE12
 5457 0070 00000000 		.4byte	.LFB13
 5458 0074 4C000000 		.4byte	.LFE13
 5459 0078 00000000 		.4byte	.LFB14
 5460 007c 2E010000 		.4byte	.LFE14
 5461 0080 00000000 		.4byte	.LFB15
 5462 0084 A2000000 		.4byte	.LFE15
 5463 0088 00000000 		.4byte	.LFB16
 5464 008c D80B0000 		.4byte	.LFE16
 5465 0090 00000000 		.4byte	.LFB17
 5466 0094 EE060000 		.4byte	.LFE17
 5467 0098 00000000 		.4byte	.LFB18
 5468 009c 12010000 		.4byte	.LFE18
 5469 00a0 00000000 		.4byte	.LFB19
 5470 00a4 7A000000 		.4byte	.LFE19
 5471 00a8 00000000 		.4byte	0x0
 5472 00ac 00000000 		.4byte	0x0
 5473              		.section	.debug_str,"MS",%progbits,1
 5474              	.LASF10:
 5475 0000 75696E74 		.ascii	"uint16\000"
 5475      313600
 5476              	.LASF79:
 5477 0007 4379506D 		.ascii	"CyPmHibSlpRestore\000"
 5477      48696253 
 5477      6C705265 
 5477      73746F72 
 5477      6500
 5478              	.LASF74:
 5479 0019 4379506D 		.ascii	"CyPmDisablePicuInterrupts\000"
 5479      44697361 
 5479      626C6550 
 5479      69637549 
 5479      6E746572 
 5480              	.LASF16:
 5481 0033 6D617374 		.ascii	"masterClkSrc\000"
 5481      6572436C 
 5481      6B537263 
 5481      00
 5482              	.LASF39:
 5483 0040 706D5477 		.ascii	"pmTwCfg2\000"
 5483      43666732 
 5483      00
 5484              	.LASF53:
 5485 0049 43595F50 		.ascii	"CY_PM_BACKUP_STRUCT\000"
 5485      4D5F4241 
 5485      434B5550 
 5485      5F535452 
 5485      55435400 
 5486              	.LASF24:
 5487 005d 636C6B53 		.ascii	"clkSyncDiv\000"
 5487      796E6344 
 5487      697600
 5488              	.LASF54:
 5489 0068 4379506D 		.ascii	"CyPmRestoreClocks\000"
 5489      52657374 
ARM GAS  C:\Users\rmcgarel\AppData\Local\Temp\ccv1YA4O.s 			page 142


 5489      6F726543 
 5489      6C6F636B 
 5489      7300
 5490              	.LASF7:
 5491 007a 6C6F6E67 		.ascii	"long long unsigned int\000"
 5491      206C6F6E 
 5491      6720756E 
 5491      7369676E 
 5491      65642069 
 5492              	.LASF80:
 5493 0091 4379506D 		.ascii	"CyPmHviLviSaveDisable\000"
 5493      4876694C 
 5493      76695361 
 5493      76654469 
 5493      7361626C 
 5494              	.LASF64:
 5495 00a7 746D7053 		.ascii	"tmpStatus\000"
 5495      74617475 
 5495      7300
 5496              	.LASF46:
 5497 00b1 6C766961 		.ascii	"lviaTrip\000"
 5497      54726970 
 5497      00
 5498              	.LASF18:
 5499 00ba 696D6F55 		.ascii	"imoUsbClk\000"
 5499      7362436C 
 5499      6B00
 5500              	.LASF85:
 5501 00c4 474E5520 		.ascii	"GNU C 4.4.1\000"
 5501      4320342E 
 5501      342E3100 
 5502              	.LASF71:
 5503 00d0 4379506D 		.ascii	"CyPmFtwSetInterval\000"
 5503      46747753 
 5503      6574496E 
 5503      74657276 
 5503      616C00
 5504              	.LASF47:
 5505 00e3 68766961 		.ascii	"hviaEn\000"
 5505      456E00
 5506              	.LASF6:
 5507 00ea 6C6F6E67 		.ascii	"long long int\000"
 5507      206C6F6E 
 5507      6720696E 
 5507      7400
 5508              	.LASF0:
 5509 00f8 7369676E 		.ascii	"signed char\000"
 5509      65642063 
 5509      68617200 
 5510              	.LASF25:
 5511 0104 636C6B42 		.ascii	"clkBusDiv\000"
 5511      75734469 
 5511      7600
 5512              	.LASF60:
 5513 010e 696E7465 		.ascii	"interruptState\000"
 5513      72727570 
 5513      74537461 
ARM GAS  C:\Users\rmcgarel\AppData\Local\Temp\ccv1YA4O.s 			page 143


 5513      746500
 5514              	.LASF23:
 5515 011d 696D6F32 		.ascii	"imo2x\000"
 5515      7800
 5516              	.LASF4:
 5517 0123 6C6F6E67 		.ascii	"long int\000"
 5517      20696E74 
 5517      00
 5518              	.LASF81:
 5519 012c 4379506D 		.ascii	"CyPmHviLviRestore\000"
 5519      4876694C 
 5519      76695265 
 5519      73746F72 
 5519      6500
 5520              	.LASF9:
 5521 013e 75696E74 		.ascii	"uint8\000"
 5521      3800
 5522              	.LASF12:
 5523 0144 646F7562 		.ascii	"double\000"
 5523      6C6500
 5524              	.LASF86:
 5525 014b 2E5C4765 		.ascii	".\\Generated_Source\\PSoC5\\cyPm.c\000"
 5525      6E657261 
 5525      7465645F 
 5525      536F7572 
 5525      63655C50 
 5526              	.LASF27:
 5527 016b 786D687A 		.ascii	"xmhzEnableState\000"
 5527      456E6162 
 5527      6C655374 
 5527      61746500 
 5528              	.LASF42:
 5529 017b 70726573 		.ascii	"pres2\000"
 5529      3200
 5530              	.LASF66:
 5531 0181 4379506D 		.ascii	"CyPmHibRestore\000"
 5531      48696252 
 5531      6573746F 
 5531      726500
 5532              	.LASF62:
 5533 0190 6D61736B 		.ascii	"mask\000"
 5533      00
 5534              	.LASF50:
 5535 0195 696D6F41 		.ascii	"imoActFreq\000"
 5535      63744672 
 5535      657100
 5536              	.LASF8:
 5537 01a0 756E7369 		.ascii	"unsigned int\000"
 5537      676E6564 
 5537      20696E74 
 5537      00
 5538              	.LASF34:
 5539 01ad 73636374 		.ascii	"scctData\000"
 5539      44617461 
 5539      00
 5540              	.LASF5:
 5541 01b6 6C6F6E67 		.ascii	"long unsigned int\000"
ARM GAS  C:\Users\rmcgarel\AppData\Local\Temp\ccv1YA4O.s 			page 144


 5541      20756E73 
 5541      69676E65 
 5541      6420696E 
 5541      7400
 5542              	.LASF43:
 5543 01c8 6C766964 		.ascii	"lvidEn\000"
 5543      456E00
 5544              	.LASF30:
 5545 01cf 6379506D 		.ascii	"cyPmClockBackupStruct\000"
 5545      436C6F63 
 5545      6B426163 
 5545      6B757053 
 5545      74727563 
 5546              	.LASF31:
 5547 01e5 6379506D 		.ascii	"cyPmBackupStruct\000"
 5547      4261636B 
 5547      75705374 
 5547      72756374 
 5547      00
 5548              	.LASF29:
 5549 01f6 43595F50 		.ascii	"CY_PM_CLOCK_BACKUP_STRUCT\000"
 5549      4D5F434C 
 5549      4F434B5F 
 5549      4241434B 
 5549      55505F53 
 5550              	.LASF3:
 5551 0210 73686F72 		.ascii	"short unsigned int\000"
 5551      7420756E 
 5551      7369676E 
 5551      65642069 
 5551      6E7400
 5552              	.LASF38:
 5553 0223 73617244 		.ascii	"sarData\000"
 5553      61746100 
 5554              	.LASF68:
 5555 022b 63747749 		.ascii	"ctwInterval\000"
 5555      6E746572 
 5555      76616C00 
 5556              	.LASF52:
 5557 0237 626F6F73 		.ascii	"boostRefExt\000"
 5557      74526566 
 5557      45787400 
 5558              	.LASF22:
 5559 0243 636C6B49 		.ascii	"clkImoSrc\000"
 5559      6D6F5372 
 5559      6300
 5560              	.LASF41:
 5561 024d 70726573 		.ascii	"pres1\000"
 5561      3100
 5562              	.LASF76:
 5563 0253 4379506D 		.ascii	"CyPmSlpSaveSet\000"
 5563      536C7053 
 5563      61766553 
 5563      657400
 5564              	.LASF17:
 5565 0262 696D6F46 		.ascii	"imoFreq\000"
 5565      72657100 
ARM GAS  C:\Users\rmcgarel\AppData\Local\Temp\ccv1YA4O.s 			page 145


 5566              	.LASF33:
 5567 026a 62757A7A 		.ascii	"buzzSleepTrim\000"
 5567      536C6565 
 5567      70547269 
 5567      6D00
 5568              	.LASF59:
 5569 0278 6379506D 		.ascii	"cyPmImoFreqMhz2Reg\000"
 5569      496D6F46 
 5569      7265714D 
 5569      687A3252 
 5569      656700
 5570              	.LASF14:
 5571 028b 656E436C 		.ascii	"enClkA\000"
 5571      6B4100
 5572              	.LASF15:
 5573 0292 656E436C 		.ascii	"enClkD\000"
 5573      6B4400
 5574              	.LASF57:
 5575 0299 77616B65 		.ascii	"wakeupSource\000"
 5575      7570536F 
 5575      75726365 
 5575      00
 5576              	.LASF21:
 5577 02a6 696D6F43 		.ascii	"imoClkSrc\000"
 5577      6C6B5372 
 5577      6300
 5578              	.LASF11:
 5579 02b0 666C6F61 		.ascii	"float\000"
 5579      7400
 5580              	.LASF58:
 5581 02b6 4379506D 		.ascii	"CyPmSleep\000"
 5581      536C6565 
 5581      7000
 5582              	.LASF48:
 5583 02c0 6C766964 		.ascii	"lvidRst\000"
 5583      52737400 
 5584              	.LASF55:
 5585 02c8 4379506D 		.ascii	"CyPmAltAct\000"
 5585      416C7441 
 5585      637400
 5586              	.LASF70:
 5587 02d3 4379506D 		.ascii	"CyPmOppsSet\000"
 5587      4F707073 
 5587      53657400 
 5588              	.LASF1:
 5589 02df 756E7369 		.ascii	"unsigned char\000"
 5589      676E6564 
 5589      20636861 
 5589      7200
 5590              	.LASF83:
 5591 02ed 6379506D 		.ascii	"cyPmClockBackup\000"
 5591      436C6F63 
 5591      6B426163 
 5591      6B757000 
 5592              	.LASF26:
 5593 02fd 706C6C45 		.ascii	"pllEnableState\000"
 5593      6E61626C 
ARM GAS  C:\Users\rmcgarel\AppData\Local\Temp\ccv1YA4O.s 			page 146


 5593      65537461 
 5593      746500
 5594              	.LASF2:
 5595 030c 73686F72 		.ascii	"short int\000"
 5595      7420696E 
 5595      7400
 5596              	.LASF78:
 5597 0316 4379506D 		.ascii	"CyPmHibSlpSaveSet\000"
 5597      48696253 
 5597      6C705361 
 5597      76655365 
 5597      7400
 5598              	.LASF69:
 5599 0328 4379506D 		.ascii	"CyPmSaveClocks\000"
 5599      53617665 
 5599      436C6F63 
 5599      6B7300
 5600              	.LASF32:
 5601 0337 69326352 		.ascii	"i2cRegBackup\000"
 5601      65674261 
 5601      636B7570 
 5601      00
 5602              	.LASF13:
 5603 0344 63686172 		.ascii	"char\000"
 5603      00
 5604              	.LASF51:
 5605 0349 696D6F41 		.ascii	"imoActFreq12Mhz\000"
 5605      63744672 
 5605      65713132 
 5605      4D687A00 
 5606              	.LASF49:
 5607 0359 6C766961 		.ascii	"lviaRst\000"
 5607      52737400 
 5608              	.LASF73:
 5609 0361 4379506D 		.ascii	"CyPmSavePicuInterrupts\000"
 5609      53617665 
 5609      50696375 
 5609      496E7465 
 5609      72727570 
 5610              	.LASF61:
 5611 0378 4379506D 		.ascii	"CyPmHibernate\000"
 5611      48696265 
 5611      726E6174 
 5611      6500
 5612              	.LASF75:
 5613 0386 4379506D 		.ascii	"CyPmRestorePicuInterrupts\000"
 5613      52657374 
 5613      6F726550 
 5613      69637549 
 5613      6E746572 
 5614              	.LASF72:
 5615 03a0 66747749 		.ascii	"ftwInterval\000"
 5615      6E746572 
 5615      76616C00 
 5616              	.LASF84:
 5617 03ac 6379506D 		.ascii	"cyPmImoFreqReg2Mhz\000"
 5617      496D6F46 
ARM GAS  C:\Users\rmcgarel\AppData\Local\Temp\ccv1YA4O.s 			page 147


 5617      72657152 
 5617      6567324D 
 5617      687A00
 5618              	.LASF88:
 5619 03bf 4379506D 		.ascii	"CyPmReadStatus\000"
 5619      52656164 
 5619      53746174 
 5619      757300
 5620              	.LASF77:
 5621 03ce 4379506D 		.ascii	"CyPmSlpRestore\000"
 5621      536C7052 
 5621      6573746F 
 5621      726500
 5622              	.LASF40:
 5623 03dd 70696375 		.ascii	"picuIntType\000"
 5623      496E7454 
 5623      79706500 
 5624              	.LASF28:
 5625 03e9 636C6B44 		.ascii	"clkDistDelay\000"
 5625      69737444 
 5625      656C6179 
 5625      00
 5626              	.LASF67:
 5627 03f6 4379506D 		.ascii	"CyPmCtwSetInterval\000"
 5627      43747753 
 5627      6574496E 
 5627      74657276 
 5627      616C00
 5628              	.LASF45:
 5629 0409 6C766961 		.ascii	"lviaEn\000"
 5629      456E00
 5630              	.LASF65:
 5631 0410 4379506D 		.ascii	"CyPmHibSaveSet\000"
 5631      48696253 
 5631      61766553 
 5631      657400
 5632              	.LASF56:
 5633 041f 77616B65 		.ascii	"wakeupTime\000"
 5633      75705469 
 5633      6D6500
 5634              	.LASF87:
 5635 042a 433A5C47 		.ascii	"C:\\Group4_Spring2013\\Final Project\\UART\\UART.cy"
 5635      726F7570 
 5635      345F5370 
 5635      72696E67 
 5635      32303133 
 5636 0459 64736E00 		.ascii	"dsn\000"
 5637              	.LASF19:
 5638 045d 666C6173 		.ascii	"flashWaitCycles\000"
 5638      68576169 
 5638      74437963 
 5638      6C657300 
 5639              	.LASF37:
 5640 046d 64736D44 		.ascii	"dsmData\000"
 5640      61746100 
 5641              	.LASF36:
 5642 0475 64616344 		.ascii	"dacData\000"
ARM GAS  C:\Users\rmcgarel\AppData\Local\Temp\ccv1YA4O.s 			page 148


 5642      61746100 
 5643              	.LASF35:
 5644 047d 636D7044 		.ascii	"cmpData\000"
 5644      61746100 
 5645              	.LASF82:
 5646 0485 6379506D 		.ascii	"cyPmBackup\000"
 5646      4261636B 
 5646      757000
 5647              	.LASF44:
 5648 0490 6C766964 		.ascii	"lvidTrip\000"
 5648      54726970 
 5648      00
 5649              	.LASF20:
 5650 0499 696D6F45 		.ascii	"imoEnable\000"
 5650      6E61626C 
 5650      6500
 5651              	.LASF63:
 5652 04a3 696E7465 		.ascii	"interruptStatus\000"
 5652      72727570 
 5652      74537461 
 5652      74757300 
 5653              		.ident	"GCC: (Sourcery G++ Lite 2010q1-188) 4.4.1"
