ARM GAS  C:\Users\rmcgarel\AppData\Local\Temp\ccNOJeJm.s 			page 1


   1              		.syntax unified
   2              		.cpu cortex-m3
   3              		.fpu softvfp
   4              		.eabi_attribute 20, 1
   5              		.eabi_attribute 21, 1
   6              		.eabi_attribute 23, 3
   7              		.eabi_attribute 24, 1
   8              		.eabi_attribute 25, 1
   9              		.eabi_attribute 26, 1
  10              		.eabi_attribute 30, 6
  11              		.eabi_attribute 18, 4
  12              		.thumb
  13              		.file	"main.c"
  20 0000 FA000000 		.text
  20      02005300 
  20      00000201 
  20      FB0E0D00 
  20      01010101 
  21              	.Ltext0:
  22              		.cfi_sections	.debug_frame
  23              		.comm	averages,256,4
  24              		.section	.text.initAvgs,"ax",%progbits
  25              		.align	2
  26              		.global	initAvgs
  27              		.thumb
  28              		.thumb_func
  29              		.type	initAvgs, %function
  30              	initAvgs:
  31              	.LFB29:
  32              		.file 1 ".\\main.c"
   1:.\main.c      **** #include <device.h>
   2:.\main.c      **** #include <stdio.h>
   3:.\main.c      **** 
   4:.\main.c      **** void storeAndCalculateAverages();
   5:.\main.c      **** void sendValues();
   6:.\main.c      **** 
   7:.\main.c      **** unsigned int averages[8][8];
   8:.\main.c      **** //int vCount;
   9:.\main.c      **** 
  10:.\main.c      **** void initAvgs() //initialize averages array
  11:.\main.c      **** {
  33              		.loc 1 11 0
  34              		.cfi_startproc
  35              		@ args = 0, pretend = 0, frame = 8
  36              		@ frame_needed = 1, uses_anonymous_args = 0
  37              		@ link register save eliminated.
  38 0000 80B4     		push	{r7}
  39              	.LCFI0:
  40              		.cfi_def_cfa_offset 4
  41 0002 83B0     		sub	sp, sp, #12
  42              	.LCFI1:
ARM GAS  C:\Users\rmcgarel\AppData\Local\Temp\ccNOJeJm.s 			page 2


  43              		.cfi_def_cfa_offset 16
  44 0004 00AF     		add	r7, sp, #0
  45              		.cfi_offset 7, -4
  46              	.LCFI2:
  47              		.cfi_def_cfa_register 7
  12:.\main.c      ****     int i = 0;
  48              		.loc 1 12 0
  49 0006 4FF00003 		mov	r3, #0
  50 000a 3B60     		str	r3, [r7, #0]
  13:.\main.c      ****     int j = 0;
  51              		.loc 1 13 0
  52 000c 4FF00003 		mov	r3, #0
  53 0010 7B60     		str	r3, [r7, #4]
  14:.\main.c      ****     for(i = 0; i < 8; ++i)
  54              		.loc 1 14 0
  55 0012 4FF00003 		mov	r3, #0
  56 0016 3B60     		str	r3, [r7, #0]
  57 0018 1BE0     		b	.L2
  58              	.L5:
  15:.\main.c      ****     {
  16:.\main.c      ****         for(j = 0; j < 8; ++j)
  59              		.loc 1 16 0
  60 001a 4FF00003 		mov	r3, #0
  61 001e 7B60     		str	r3, [r7, #4]
  62 0020 10E0     		b	.L3
  63              	.L4:
  17:.\main.c      ****         {
  18:.\main.c      ****             averages[i][j] = 0;
  64              		.loc 1 18 0
  65 0022 3968     		ldr	r1, [r7, #0]
  66 0024 7A68     		ldr	r2, [r7, #4]
  67 0026 40F20003 		movw	r3, #:lower16:averages
  68 002a C0F20003 		movt	r3, #:upper16:averages
  69 002e 4FEAC101 		lsl	r1, r1, #3
  70 0032 0A44     		add	r2, r1, r2
  71 0034 4FF00001 		mov	r1, #0
  72 0038 43F82210 		str	r1, [r3, r2, lsl #2]
  73              		.loc 1 16 0
  74 003c 7B68     		ldr	r3, [r7, #4]
  75 003e 03F10103 		add	r3, r3, #1
  76 0042 7B60     		str	r3, [r7, #4]
  77              	.L3:
  78 0044 7B68     		ldr	r3, [r7, #4]
  79 0046 072B     		cmp	r3, #7
  80 0048 EBDD     		ble	.L4
  81              		.loc 1 14 0
  82 004a 3B68     		ldr	r3, [r7, #0]
  83 004c 03F10103 		add	r3, r3, #1
  84 0050 3B60     		str	r3, [r7, #0]
  85              	.L2:
  86 0052 3B68     		ldr	r3, [r7, #0]
  87 0054 072B     		cmp	r3, #7
  88 0056 E0DD     		ble	.L5
  19:.\main.c      ****         }
  20:.\main.c      ****     }
  21:.\main.c      **** }
  89              		.loc 1 21 0
ARM GAS  C:\Users\rmcgarel\AppData\Local\Temp\ccNOJeJm.s 			page 3


  90 0058 07F10C07 		add	r7, r7, #12
  91 005c BD46     		mov	sp, r7
  92 005e 80BC     		pop	{r7}
  93 0060 7047     		bx	lr
  94              		.cfi_endproc
  95              	.LFE29:
  96              		.size	initAvgs, .-initAvgs
  97 0062 00BF     		.section	.rodata
  98              		.align	2
  99              	.LC0:
 100 0000 50726F63 		.ascii	"Processing\000"
 100      65737369 
 100      6E6700
 101 000b 00       		.align	2
 102              	.LC1:
 103 000c 20202000 		.ascii	"   \000"
 104              		.section	.text.main,"ax",%progbits
 105              		.align	2
 106              		.global	main
 107              		.thumb
 108              		.thumb_func
 109              		.type	main, %function
 110              	main:
 111              	.LFB30:
  22:.\main.c      **** //19200
  23:.\main.c      **** void main()
  24:.\main.c      **** {
 112              		.loc 1 24 0
 113              		.cfi_startproc
 114              		@ args = 0, pretend = 0, frame = 8
 115              		@ frame_needed = 1, uses_anonymous_args = 0
 116 0000 80B5     		push	{r7, lr}
 117              	.LCFI3:
 118              		.cfi_def_cfa_offset 8
 119 0002 82B0     		sub	sp, sp, #8
 120              	.LCFI4:
 121              		.cfi_def_cfa_offset 16
 122 0004 00AF     		add	r7, sp, #0
 123              		.cfi_offset 14, -4
 124              		.cfi_offset 7, -8
 125              	.LCFI5:
 126              		.cfi_def_cfa_register 7
  25:.\main.c      **** 	CYGlobalIntEnable; //enable intterupts
 127              		.loc 1 25 0
 128              	@ 25 ".\main.c" 1
 129 0006 62B6     		CPSIE   i
 130              	@ 0 "" 2
  26:.\main.c      **** 	
  27:.\main.c      **** 	UART_Start();
 131              		.loc 1 27 0
 132              		.thumb
 133 0008 FFF7FEFF 		bl	UART_Start
  28:.\main.c      **** 	//ADC_DelSig_Start();
  29:.\main.c      **** 	//ADC_DelSig_StartConvert();
  30:.\main.c      **** 	LCD_Char_1_Start();
 134              		.loc 1 30 0
 135 000c FFF7FEFF 		bl	LCD_Char_1_Start
ARM GAS  C:\Users\rmcgarel\AppData\Local\Temp\ccNOJeJm.s 			page 4


  31:.\main.c      **** 	LCD_Char_1_ClearDisplay();
 136              		.loc 1 31 0
 137 0010 4FF00100 		mov	r0, #1
 138 0014 FFF7FEFF 		bl	LCD_Char_1_WriteControl
  32:.\main.c      ****    
  33:.\main.c      ****     int counter = 0;
 139              		.loc 1 33 0
 140 0018 4FF00003 		mov	r3, #0
 141 001c 7B60     		str	r3, [r7, #4]
 142              	.L11:
  34:.\main.c      ****     
  35:.\main.c      **** 	while(1)
  36:.\main.c      **** 	{
  37:.\main.c      **** 		if(UART_ReadRxStatus() == UART_RX_STS_FIFO_NOTEMPTY)	//if the buffer has data available
 143              		.loc 1 37 0
 144 001e FFF7FEFF 		bl	UART_ReadRxStatus
 145 0022 0346     		mov	r3, r0
 146 0024 202B     		cmp	r3, #32
 147 0026 3FD1     		bne	.L8
  38:.\main.c      **** 		{
  39:.\main.c      **** 			initAvgs();
 148              		.loc 1 39 0
 149 0028 FFF7FEFF 		bl	initAvgs
  40:.\main.c      ****             LCD_Char_1_Position(0,14);
 150              		.loc 1 40 0
 151 002c 4FF00000 		mov	r0, #0
 152 0030 4FF00E01 		mov	r1, #14
 153 0034 FFF7FEFF 		bl	LCD_Char_1_Position
  41:.\main.c      **** 			LCD_Char_1_PutChar('R');
 154              		.loc 1 41 0
 155 0038 4FF05200 		mov	r0, #82
 156 003c FFF7FEFF 		bl	LCD_Char_1_PutChar
  42:.\main.c      **** 			LCD_Char_1_Position(1,0);
 157              		.loc 1 42 0
 158 0040 4FF00100 		mov	r0, #1
 159 0044 4FF00001 		mov	r1, #0
 160 0048 FFF7FEFF 		bl	LCD_Char_1_Position
  43:.\main.c      **** 			LCD_Char_1_PrintString("Processing");
 161              		.loc 1 43 0
 162 004c 40F20000 		movw	r0, #:lower16:.LC0
 163 0050 C0F20000 		movt	r0, #:upper16:.LC0
 164 0054 FFF7FEFF 		bl	LCD_Char_1_PrintString
  44:.\main.c      ****             
  45:.\main.c      ****             //CyDelay(500);
  46:.\main.c      **** 			storeAndCalculateAverages();
 165              		.loc 1 46 0
 166 0058 FFF7FEFF 		bl	storeAndCalculateAverages
  47:.\main.c      ****             UART_ClearRxBuffer();
 167              		.loc 1 47 0
 168 005c FFF7FEFF 		bl	UART_ClearRxBuffer
  48:.\main.c      **** 			
  49:.\main.c      ****             LCD_Char_1_Position(0,14);
 169              		.loc 1 49 0
 170 0060 4FF00000 		mov	r0, #0
 171 0064 4FF00E01 		mov	r1, #14
 172 0068 FFF7FEFF 		bl	LCD_Char_1_Position
  50:.\main.c      **** 			LCD_Char_1_PutChar('W');
ARM GAS  C:\Users\rmcgarel\AppData\Local\Temp\ccNOJeJm.s 			page 5


 173              		.loc 1 50 0
 174 006c 4FF05700 		mov	r0, #87
 175 0070 FFF7FEFF 		bl	LCD_Char_1_PutChar
  51:.\main.c      **** 			LCD_Char_1_Position(0,0);
 176              		.loc 1 51 0
 177 0074 4FF00000 		mov	r0, #0
 178 0078 4FF00001 		mov	r1, #0
 179 007c FFF7FEFF 		bl	LCD_Char_1_Position
  52:.\main.c      **** 			LCD_Char_1_PrintString("   ");
 180              		.loc 1 52 0
 181 0080 40F20000 		movw	r0, #:lower16:.LC1
 182 0084 C0F20000 		movt	r0, #:upper16:.LC1
 183 0088 FFF7FEFF 		bl	LCD_Char_1_PrintString
  53:.\main.c      **** 			UART_ClearTxBuffer();
 184              		.loc 1 53 0
 185 008c FFF7FEFF 		bl	UART_ClearTxBuffer
  54:.\main.c      ****             sendValues();
 186              		.loc 1 54 0
 187 0090 FFF7FEFF 		bl	sendValues
  55:.\main.c      **** 			UART_ClearTxBuffer();
 188              		.loc 1 55 0
 189 0094 FFF7FEFF 		bl	UART_ClearTxBuffer
  56:.\main.c      **** 			LCD_Char_1_ClearDisplay();
 190              		.loc 1 56 0
 191 0098 4FF00100 		mov	r0, #1
 192 009c FFF7FEFF 		bl	LCD_Char_1_WriteControl
  57:.\main.c      ****             counter = 0;
 193              		.loc 1 57 0
 194 00a0 4FF00003 		mov	r3, #0
 195 00a4 7B60     		str	r3, [r7, #4]
  58:.\main.c      **** 		}
  59:.\main.c      **** 		else if(counter > 5000)
  60:.\main.c      ****         {
  61:.\main.c      ****             CySoftwareReset();
  62:.\main.c      ****         }
  63:.\main.c      ****         else
  64:.\main.c      **** 		{
  65:.\main.c      **** 			//vCount = ADC_DelSig_GetResult16();  //0000-040D
  66:.\main.c      **** 			//vCount = (vCount-5)/2;
  67:.\main.c      **** 			/*LCD_Char_1_ClearDisplay();
  68:.\main.c      **** 			LCD_Char_1_PrintNumber(vCount);
  69:.\main.c      **** 			LCD_Char_1_Position(1,0);
  70:.\main.c      **** 			LCD_Char_1_PrintString("Waiting");
  71:.\main.c      ****             LCD_Char_1_Position(1,8);
  72:.\main.c      **** 			LCD_Char_1_PrintNumber(counter);*/
  73:.\main.c      ****             counter++;
  74:.\main.c      ****             
  75:.\main.c      ****             //UART_ClearRxBuffer();
  76:.\main.c      **** 		}
  77:.\main.c      **** 	}
 196              		.loc 1 77 0
 197 00a6 BAE7     		b	.L11
 198              	.L8:
 199              		.loc 1 59 0
 200 00a8 7A68     		ldr	r2, [r7, #4]
 201 00aa 41F28833 		movw	r3, #5000
 202 00ae 9A42     		cmp	r2, r3
ARM GAS  C:\Users\rmcgarel\AppData\Local\Temp\ccNOJeJm.s 			page 6


 203 00b0 02DD     		ble	.L10
 204              		.loc 1 61 0
 205 00b2 FFF7FEFF 		bl	CySoftwareReset
 206              		.loc 1 77 0
 207 00b6 B2E7     		b	.L11
 208              	.L10:
 209              		.loc 1 73 0
 210 00b8 7B68     		ldr	r3, [r7, #4]
 211 00ba 03F10103 		add	r3, r3, #1
 212 00be 7B60     		str	r3, [r7, #4]
 213              		.loc 1 77 0
 214 00c0 ADE7     		b	.L11
 215              		.cfi_endproc
 216              	.LFE30:
 217              		.size	main, .-main
 218 00c2 00BF     		.section	.rodata
 219              		.align	2
 220              	.LC2:
 221 0010 4F766572 		.ascii	"Overflow\000"
 221      666C6F77 
 221      00
 222              		.section	.text.storeAndCalculateAverages,"ax",%progbits
 223              		.align	2
 224              		.global	storeAndCalculateAverages
 225              		.thumb
 226              		.thumb_func
 227              		.type	storeAndCalculateAverages, %function
 228              	storeAndCalculateAverages:
 229              	.LFB31:
  78:.\main.c      **** }
  79:.\main.c      **** 
  80:.\main.c      **** void storeAndCalculateAverages() 
  81:.\main.c      **** {
 230              		.loc 1 81 0
 231              		.cfi_startproc
 232              		@ args = 0, pretend = 0, frame = 16
 233              		@ frame_needed = 1, uses_anonymous_args = 0
 234 0000 80B5     		push	{r7, lr}
 235              	.LCFI6:
 236              		.cfi_def_cfa_offset 8
 237 0002 84B0     		sub	sp, sp, #16
 238              	.LCFI7:
 239              		.cfi_def_cfa_offset 24
 240 0004 00AF     		add	r7, sp, #0
 241              		.cfi_offset 14, -4
 242              		.cfi_offset 7, -8
 243              	.LCFI8:
 244              		.cfi_def_cfa_register 7
  82:.\main.c      **** 	//while(UART_ReadRxStatus == UART_RX_STS_FIFO_NOTEMPTY)
  83:.\main.c      **** 	int j;
  84:.\main.c      **** 	int i;
  85:.\main.c      ****     uint8 readchar;
  86:.\main.c      **** 
  87:.\main.c      ****     //storing the sums of each pixel in 60x40 square
  88:.\main.c      ****     LCD_Char_1_Position(0,15);
 245              		.loc 1 88 0
 246 0006 4FF00000 		mov	r0, #0
ARM GAS  C:\Users\rmcgarel\AppData\Local\Temp\ccNOJeJm.s 			page 7


 247 000a 4FF00F01 		mov	r1, #15
 248 000e FFF7FEFF 		bl	LCD_Char_1_Position
  89:.\main.c      **** 	LCD_Char_1_PrintNumber(1);
 249              		.loc 1 89 0
 250 0012 4FF00100 		mov	r0, #1
 251 0016 FFF7FEFF 		bl	LCD_Char_1_PrintDecUint16
  90:.\main.c      **** 	for(j = 0; j < 120; j++)		//each row
 252              		.loc 1 90 0
 253 001a 4FF00003 		mov	r3, #0
 254 001e 7B60     		str	r3, [r7, #4]
 255 0020 75E0     		b	.L14
 256              	.L21:
  91:.\main.c      **** 	{
  92:.\main.c      **** 		for(i = 0; i < 140; i++)	//each column
 257              		.loc 1 92 0
 258 0022 4FF00003 		mov	r3, #0
 259 0026 BB60     		str	r3, [r7, #8]
 260 0028 6AE0     		b	.L15
 261              	.L20:
  93:.\main.c      **** 		{
  94:.\main.c      ****             if((UART_ReadRxStatus() == UART_RX_STS_OVERRUN) || (UART_ReadRxStatus() == UART_RX_STS_
 262              		.loc 1 94 0
 263 002a FFF7FEFF 		bl	UART_ReadRxStatus
 264 002e 0346     		mov	r3, r0
 265 0030 102B     		cmp	r3, #16
 266 0032 04D0     		beq	.L16
 267 0034 FFF7FEFF 		bl	UART_ReadRxStatus
 268 0038 0346     		mov	r3, r0
 269 003a 802B     		cmp	r3, #128
 270 003c 0AD1     		bne	.L17
 271              	.L16:
  95:.\main.c      ****             {
  96:.\main.c      ****                 while(1)
  97:.\main.c      ****                 {
  98:.\main.c      ****                     LCD_Char_1_ClearDisplay();
 272              		.loc 1 98 0
 273 003e 4FF00100 		mov	r0, #1
 274 0042 FFF7FEFF 		bl	LCD_Char_1_WriteControl
  99:.\main.c      ****             		LCD_Char_1_PrintString("Overflow");
 275              		.loc 1 99 0
 276 0046 40F20000 		movw	r0, #:lower16:.LC2
 277 004a C0F20000 		movt	r0, #:upper16:.LC2
 278 004e FFF7FEFF 		bl	LCD_Char_1_PrintString
 100:.\main.c      ****                 }
 279              		.loc 1 100 0
 280 0052 F4E7     		b	.L16
 281              	.L17:
 101:.\main.c      ****             }
 102:.\main.c      ****             if(UART_ReadRxStatus() == UART_RX_STS_FIFO_NOTEMPTY)	//if the buffer has data available
 282              		.loc 1 102 0
 283 0054 FFF7FEFF 		bl	UART_ReadRxStatus
 284 0058 0346     		mov	r3, r0
 285 005a 202B     		cmp	r3, #32
 286 005c 0AD1     		bne	.L18
 103:.\main.c      **** 		    {
 104:.\main.c      ****                 LCD_Char_1_Position(0,11);
 287              		.loc 1 104 0
ARM GAS  C:\Users\rmcgarel\AppData\Local\Temp\ccNOJeJm.s 			page 8


 288 005e 4FF00000 		mov	r0, #0
 289 0062 4FF00B01 		mov	r1, #11
 290 0066 FFF7FEFF 		bl	LCD_Char_1_Position
 105:.\main.c      ****                 LCD_Char_1_PutChar('T');
 291              		.loc 1 105 0
 292 006a 4FF05400 		mov	r0, #84
 293 006e FFF7FEFF 		bl	LCD_Char_1_PutChar
 294 0072 09E0     		b	.L19
 295              	.L18:
 106:.\main.c      ****             }
 107:.\main.c      ****             else
 108:.\main.c      ****             {
 109:.\main.c      ****                 LCD_Char_1_Position(0,11);
 296              		.loc 1 109 0
 297 0074 4FF00000 		mov	r0, #0
 298 0078 4FF00B01 		mov	r1, #11
 299 007c FFF7FEFF 		bl	LCD_Char_1_Position
 110:.\main.c      ****                 LCD_Char_1_PutChar('F');
 300              		.loc 1 110 0
 301 0080 4FF04600 		mov	r0, #70
 302 0084 FFF7FEFF 		bl	LCD_Char_1_PutChar
 303              	.L19:
 111:.\main.c      ****             }
 112:.\main.c      ****             readchar = UART_GetChar();
 304              		.loc 1 112 0
 305 0088 FFF7FEFF 		bl	UART_GetChar
 306 008c 0346     		mov	r3, r0
 307 008e FB73     		strb	r3, [r7, #15]
 113:.\main.c      **** 			averages[j/15][i/17] += readchar;
 308              		.loc 1 113 0
 309 0090 7B68     		ldr	r3, [r7, #4]
 310 0092 48F68902 		movw	r2, #:lower16:-2004318071
 311 0096 C8F68802 		movt	r2, #:upper16:-2004318071
 312 009a 82FB0302 		smull	r0, r2, r2, r3
 313 009e 1A44     		add	r2, r2, r3
 314 00a0 4FEAE202 		asr	r2, r2, #3
 315 00a4 4FEAE373 		asr	r3, r3, #31
 316 00a8 C3EB0202 		rsb	r2, r3, r2
 317 00ac 9446     		mov	ip, r2
 318 00ae B968     		ldr	r1, [r7, #8]
 319 00b0 47F67903 		movw	r3, #:lower16:2021161081
 320 00b4 C7F67803 		movt	r3, #:upper16:2021161081
 321 00b8 83FB0103 		smull	r0, r3, r3, r1
 322 00bc 4FEAE300 		asr	r0, r3, #3
 323 00c0 4FEAE173 		asr	r3, r1, #31
 324 00c4 C3EB0003 		rsb	r3, r3, r0
 325 00c8 1846     		mov	r0, r3
 326 00ca 1146     		mov	r1, r2
 327 00cc 1A46     		mov	r2, r3
 328 00ce 40F20003 		movw	r3, #:lower16:averages
 329 00d2 C0F20003 		movt	r3, #:upper16:averages
 330 00d6 4FEAC101 		lsl	r1, r1, #3
 331 00da 0A44     		add	r2, r1, r2
 332 00dc 53F82220 		ldr	r2, [r3, r2, lsl #2]
 333 00e0 FB7B     		ldrb	r3, [r7, #15]	@ zero_extendqisi2
 334 00e2 02EB0301 		add	r1, r2, r3
 335 00e6 40F20003 		movw	r3, #:lower16:averages
ARM GAS  C:\Users\rmcgarel\AppData\Local\Temp\ccNOJeJm.s 			page 9


 336 00ea C0F20003 		movt	r3, #:upper16:averages
 337 00ee 4FEACC02 		lsl	r2, ip, #3
 338 00f2 0244     		add	r2, r2, r0
 339 00f4 43F82210 		str	r1, [r3, r2, lsl #2]
 340              		.loc 1 92 0
 341 00f8 BB68     		ldr	r3, [r7, #8]
 342 00fa 03F10103 		add	r3, r3, #1
 343 00fe BB60     		str	r3, [r7, #8]
 344              	.L15:
 345 0100 BB68     		ldr	r3, [r7, #8]
 346 0102 8B2B     		cmp	r3, #139
 347 0104 91DD     		ble	.L20
 348              		.loc 1 90 0
 349 0106 7B68     		ldr	r3, [r7, #4]
 350 0108 03F10103 		add	r3, r3, #1
 351 010c 7B60     		str	r3, [r7, #4]
 352              	.L14:
 353 010e 7B68     		ldr	r3, [r7, #4]
 354 0110 772B     		cmp	r3, #119
 355 0112 86DD     		ble	.L21
 114:.\main.c      **** 			//CyDelay(200);
 115:.\main.c      **** 			/*LCD_Char_1_Position(0,0);        	   
 116:.\main.c      **** 			LCD_Char_1_PrintNumber(i);
 117:.\main.c      ****             LCD_Char_1_Position(0,4);
 118:.\main.c      **** 			LCD_Char_1_PrintString("   ");
 119:.\main.c      **** 			LCD_Char_1_Position(0,4);
 120:.\main.c      ****             LCD_Char_1_PrintNumber(averages[0][0]);*/
 121:.\main.c      ****         }
 122:.\main.c      **** 	}
 123:.\main.c      **** 	UART_ClearRxBuffer();
 356              		.loc 1 123 0
 357 0114 FFF7FEFF 		bl	UART_ClearRxBuffer
 124:.\main.c      **** 	LCD_Char_1_Position(0,15);
 358              		.loc 1 124 0
 359 0118 4FF00000 		mov	r0, #0
 360 011c 4FF00F01 		mov	r1, #15
 361 0120 FFF7FEFF 		bl	LCD_Char_1_Position
 125:.\main.c      **** 	LCD_Char_1_PrintNumber(2);
 362              		.loc 1 125 0
 363 0124 4FF00200 		mov	r0, #2
 364 0128 FFF7FEFF 		bl	LCD_Char_1_PrintDecUint16
 126:.\main.c      ****     
 127:.\main.c      ****     for(j = 0; j < 8; j++)		//each row
 365              		.loc 1 127 0
 366 012c 4FF00003 		mov	r3, #0
 367 0130 7B60     		str	r3, [r7, #4]
 368 0132 2DE0     		b	.L22
 369              	.L25:
 128:.\main.c      **** 	{
 129:.\main.c      **** 		for(i = 0; i < 8; i++)	//each column
 370              		.loc 1 129 0
 371 0134 4FF00003 		mov	r3, #0
 372 0138 BB60     		str	r3, [r7, #8]
 373 013a 22E0     		b	.L23
 374              	.L24:
 130:.\main.c      **** 		{
 131:.\main.c      **** 			/*CyDelay(200);
ARM GAS  C:\Users\rmcgarel\AppData\Local\Temp\ccNOJeJm.s 			page 10


 132:.\main.c      **** 			LCD_Char_1_Position(0,0);    
 133:.\main.c      **** 			LCD_Char_1_PrintNumber(j);
 134:.\main.c      **** 			LCD_Char_1_Position(0,1);
 135:.\main.c      **** 			LCD_Char_1_PrintNumber(i);
 136:.\main.c      ****             LCD_Char_1_Position(0,4);
 137:.\main.c      **** 			LCD_Char_1_PrintString("      ");
 138:.\main.c      **** 			LCD_Char_1_Position(0,4);
 139:.\main.c      ****             LCD_Char_1_PrintNumber(averages[0][0]);*/
 140:.\main.c      **** 			averages[j][i] /= 300;	
 375              		.loc 1 140 0
 376 013c 7868     		ldr	r0, [r7, #4]
 377 013e BA68     		ldr	r2, [r7, #8]
 378 0140 D7F804C0 		ldr	ip, [r7, #4]
 379 0144 B968     		ldr	r1, [r7, #8]
 380 0146 40F20003 		movw	r3, #:lower16:averages
 381 014a C0F20003 		movt	r3, #:upper16:averages
 382 014e 4FEACC0C 		lsl	ip, ip, #3
 383 0152 6144     		add	r1, ip, r1
 384 0154 53F82110 		ldr	r1, [r3, r1, lsl #2]
 385 0158 48F2B513 		movw	r3, #:lower16:458129845
 386 015c C1F64E33 		movt	r3, #:upper16:458129845
 387 0160 A3FB01C3 		umull	ip, r3, r3, r1
 388 0164 4FEA5311 		lsr	r1, r3, #5
 389 0168 40F20003 		movw	r3, #:lower16:averages
 390 016c C0F20003 		movt	r3, #:upper16:averages
 391 0170 4FEAC000 		lsl	r0, r0, #3
 392 0174 0244     		add	r2, r0, r2
 393 0176 43F82210 		str	r1, [r3, r2, lsl #2]
 394              		.loc 1 129 0
 395 017a BB68     		ldr	r3, [r7, #8]
 396 017c 03F10103 		add	r3, r3, #1
 397 0180 BB60     		str	r3, [r7, #8]
 398              	.L23:
 399 0182 BB68     		ldr	r3, [r7, #8]
 400 0184 072B     		cmp	r3, #7
 401 0186 D9DD     		ble	.L24
 402              		.loc 1 127 0
 403 0188 7B68     		ldr	r3, [r7, #4]
 404 018a 03F10103 		add	r3, r3, #1
 405 018e 7B60     		str	r3, [r7, #4]
 406              	.L22:
 407 0190 7B68     		ldr	r3, [r7, #4]
 408 0192 072B     		cmp	r3, #7
 409 0194 CEDD     		ble	.L25
 141:.\main.c      **** 		}
 142:.\main.c      **** 	}
 143:.\main.c      **** }
 410              		.loc 1 143 0
 411 0196 07F11007 		add	r7, r7, #16
 412 019a BD46     		mov	sp, r7
 413 019c 80BD     		pop	{r7, pc}
 414              		.cfi_endproc
 415              	.LFE31:
 416              		.size	storeAndCalculateAverages, .-storeAndCalculateAverages
 417 019e 00BF     		.section	.rodata
 418 0019 000000   		.align	2
 419              	.LC3:
ARM GAS  C:\Users\rmcgarel\AppData\Local\Temp\ccNOJeJm.s 			page 11


 420 001c 436F6D70 		.ascii	"Complete!\000"
 420      6C657465 
 420      2100
 421 0026 0000     		.align	2
 422              	.LC4:
 423 0028 4661696C 		.ascii	"Failed!\000"
 423      65642100 
 424              		.section	.text.sendValues,"ax",%progbits
 425              		.align	2
 426              		.global	sendValues
 427              		.thumb
 428              		.thumb_func
 429              		.type	sendValues, %function
 430              	sendValues:
 431              	.LFB32:
 144:.\main.c      **** 
 145:.\main.c      **** void sendValues()
 146:.\main.c      **** {
 432              		.loc 1 146 0
 433              		.cfi_startproc
 434              		@ args = 0, pretend = 0, frame = 72
 435              		@ frame_needed = 1, uses_anonymous_args = 0
 436 0000 80B5     		push	{r7, lr}
 437              	.LCFI9:
 438              		.cfi_def_cfa_offset 8
 439 0002 92B0     		sub	sp, sp, #72
 440              	.LCFI10:
 441              		.cfi_def_cfa_offset 80
 442 0004 00AF     		add	r7, sp, #0
 443              		.cfi_offset 14, -4
 444              		.cfi_offset 7, -8
 445              	.LCFI11:
 446              		.cfi_def_cfa_register 7
 147:.\main.c      **** 	int j;
 148:.\main.c      **** 	int i;
 149:.\main.c      ****     uint8 sendArray[64];
 150:.\main.c      **** 	for(j = 0; j < 8; j++)		//each row
 447              		.loc 1 150 0
 448 0006 4FF00003 		mov	r3, #0
 449 000a 3B64     		str	r3, [r7, #64]
 450 000c 34E0     		b	.L28
 451              	.L33:
 151:.\main.c      **** 	{
 152:.\main.c      **** 		for(i = 0; i < 8; i++)	//each column
 452              		.loc 1 152 0
 453 000e 4FF00003 		mov	r3, #0
 454 0012 7B64     		str	r3, [r7, #68]
 455 0014 29E0     		b	.L29
 456              	.L32:
 153:.\main.c      **** 		{
 154:.\main.c      ****             if(averages[j][i] > 10)
 457              		.loc 1 154 0
 458 0016 396C     		ldr	r1, [r7, #64]
 459 0018 7A6C     		ldr	r2, [r7, #68]
 460 001a 40F20003 		movw	r3, #:lower16:averages
 461 001e C0F20003 		movt	r3, #:upper16:averages
 462 0022 4FEAC101 		lsl	r1, r1, #3
ARM GAS  C:\Users\rmcgarel\AppData\Local\Temp\ccNOJeJm.s 			page 12


 463 0026 0A44     		add	r2, r1, r2
 464 0028 53F82230 		ldr	r3, [r3, r2, lsl #2]
 465 002c 0A2B     		cmp	r3, #10
 466 002e 0CD9     		bls	.L30
 155:.\main.c      **** 			{
 156:.\main.c      **** 				sendArray[j+(i*8)] = 1;
 467              		.loc 1 156 0
 468 0030 7B6C     		ldr	r3, [r7, #68]
 469 0032 4FEAC302 		lsl	r2, r3, #3
 470 0036 3B6C     		ldr	r3, [r7, #64]
 471 0038 1344     		add	r3, r2, r3
 472 003a 07F14802 		add	r2, r7, #72
 473 003e 1344     		add	r3, r2, r3
 474 0040 4FF00102 		mov	r2, #1
 475 0044 03F8482C 		strb	r2, [r3, #-72]
 476 0048 0BE0     		b	.L31
 477              	.L30:
 157:.\main.c      **** 			}
 158:.\main.c      **** 			else
 159:.\main.c      **** 			{
 160:.\main.c      **** 				sendArray[j+(i*8)] = 0;
 478              		.loc 1 160 0
 479 004a 7B6C     		ldr	r3, [r7, #68]
 480 004c 4FEAC302 		lsl	r2, r3, #3
 481 0050 3B6C     		ldr	r3, [r7, #64]
 482 0052 1344     		add	r3, r2, r3
 483 0054 07F14802 		add	r2, r7, #72
 484 0058 1344     		add	r3, r2, r3
 485 005a 4FF00002 		mov	r2, #0
 486 005e 03F8482C 		strb	r2, [r3, #-72]
 487              	.L31:
 488              		.loc 1 152 0
 489 0062 7B6C     		ldr	r3, [r7, #68]
 490 0064 03F10103 		add	r3, r3, #1
 491 0068 7B64     		str	r3, [r7, #68]
 492              	.L29:
 493 006a 7B6C     		ldr	r3, [r7, #68]
 494 006c 072B     		cmp	r3, #7
 495 006e D2DD     		ble	.L32
 496              		.loc 1 150 0
 497 0070 3B6C     		ldr	r3, [r7, #64]
 498 0072 03F10103 		add	r3, r3, #1
 499 0076 3B64     		str	r3, [r7, #64]
 500              	.L28:
 501 0078 3B6C     		ldr	r3, [r7, #64]
 502 007a 072B     		cmp	r3, #7
 503 007c C7DD     		ble	.L33
 161:.\main.c      **** 			}
 162:.\main.c      **** 			/*CyDelay(200);
 163:.\main.c      **** 			LCD_Char_1_Position(0,0);    
 164:.\main.c      **** 			LCD_Char_1_PrintNumber(j);
 165:.\main.c      **** 			LCD_Char_1_Position(0,1);
 166:.\main.c      **** 			LCD_Char_1_PrintNumber(i);
 167:.\main.c      ****             LCD_Char_1_Position(0,4);
 168:.\main.c      **** 			LCD_Char_1_PrintString("     ");
 169:.\main.c      **** 			LCD_Char_1_Position(0,4);*/
 170:.\main.c      ****             //LCD_Char_1_PrintNumber(sendArray[i+(j*8)]);
ARM GAS  C:\Users\rmcgarel\AppData\Local\Temp\ccNOJeJm.s 			page 13


 171:.\main.c      **** 		}
 172:.\main.c      **** 	}
 173:.\main.c      ****     UART_PutArray(sendArray,64);
 504              		.loc 1 173 0
 505 007e 3B46     		mov	r3, r7
 506 0080 1846     		mov	r0, r3
 507 0082 4FF04001 		mov	r1, #64
 508 0086 FFF7FEFF 		bl	UART_PutArray
 174:.\main.c      ****     if(UART_ReadTxStatus() == UART_TX_STS_COMPLETE)
 509              		.loc 1 174 0
 510 008a FFF7FEFF 		bl	UART_ReadTxStatus
 511 008e 0346     		mov	r3, r0
 512 0090 012B     		cmp	r3, #1
 513 0092 0CD1     		bne	.L34
 175:.\main.c      ****     {
 176:.\main.c      ****         LCD_Char_1_Position(0,0);
 514              		.loc 1 176 0
 515 0094 4FF00000 		mov	r0, #0
 516 0098 4FF00001 		mov	r1, #0
 517 009c FFF7FEFF 		bl	LCD_Char_1_Position
 177:.\main.c      ****         LCD_Char_1_PrintString("Complete!");
 518              		.loc 1 177 0
 519 00a0 40F20000 		movw	r0, #:lower16:.LC3
 520 00a4 C0F20000 		movt	r0, #:upper16:.LC3
 521 00a8 FFF7FEFF 		bl	LCD_Char_1_PrintString
 522 00ac 0BE0     		b	.L36
 523              	.L34:
 178:.\main.c      ****     }
 179:.\main.c      ****     else
 180:.\main.c      ****     {
 181:.\main.c      ****         LCD_Char_1_Position(0,0);
 524              		.loc 1 181 0
 525 00ae 4FF00000 		mov	r0, #0
 526 00b2 4FF00001 		mov	r1, #0
 527 00b6 FFF7FEFF 		bl	LCD_Char_1_Position
 182:.\main.c      ****         LCD_Char_1_PrintString("Failed!");
 528              		.loc 1 182 0
 529 00ba 40F20000 		movw	r0, #:lower16:.LC4
 530 00be C0F20000 		movt	r0, #:upper16:.LC4
 531 00c2 FFF7FEFF 		bl	LCD_Char_1_PrintString
 532              	.L36:
 183:.\main.c      ****     }
 184:.\main.c      **** }
 533              		.loc 1 184 0
 534 00c6 07F14807 		add	r7, r7, #72
 535 00ca BD46     		mov	sp, r7
 536 00cc 80BD     		pop	{r7, pc}
 537              		.cfi_endproc
 538              	.LFE32:
 539              		.size	sendValues, .-sendValues
 540 00ce 00BF     		.text
 541              	.Letext0: